
DIO_Driver.elf:     file format elf32-avr

Sections:
Idx Name          Size      VMA       LMA       File off  Algn
  0 .text         000063fc  00000000  00000000  00000094  2**1
                  CONTENTS, ALLOC, LOAD, READONLY, CODE
  1 .data         00000124  00800060  000063fc  00006490  2**0
                  CONTENTS, ALLOC, LOAD, DATA
  2 .bss          00000011  00800184  00800184  000065b4  2**0
                  ALLOC
  3 .stab         00006d74  00000000  00000000  000065b4  2**2
                  CONTENTS, READONLY, DEBUGGING
  4 .stabstr      00002a2a  00000000  00000000  0000d328  2**0
                  CONTENTS, READONLY, DEBUGGING
  5 .debug_aranges 00000180  00000000  00000000  0000fd52  2**0
                  CONTENTS, READONLY, DEBUGGING
  6 .debug_pubnames 000001d1  00000000  00000000  0000fed2  2**0
                  CONTENTS, READONLY, DEBUGGING
  7 .debug_info   00002010  00000000  00000000  000100a3  2**0
                  CONTENTS, READONLY, DEBUGGING
  8 .debug_abbrev 00001161  00000000  00000000  000120b3  2**0
                  CONTENTS, READONLY, DEBUGGING
  9 .debug_line   00001003  00000000  00000000  00013214  2**0
                  CONTENTS, READONLY, DEBUGGING
 10 .debug_frame  000001a0  00000000  00000000  00014218  2**2
                  CONTENTS, READONLY, DEBUGGING
 11 .debug_str    000002be  00000000  00000000  000143b8  2**0
                  CONTENTS, READONLY, DEBUGGING
 12 .debug_loc    0000090e  00000000  00000000  00014676  2**0
                  CONTENTS, READONLY, DEBUGGING
 13 .debug_ranges 00000050  00000000  00000000  00014f84  2**0
                  CONTENTS, READONLY, DEBUGGING

Disassembly of section .text:

00000000 <__vectors>:
       0:	0c 94 2a 00 	jmp	0x54	; 0x54 <__ctors_end>
       4:	0c 94 bc 10 	jmp	0x2178	; 0x2178 <__vector_1>
       8:	0c 94 ef 10 	jmp	0x21de	; 0x21de <__vector_2>
       c:	0c 94 22 11 	jmp	0x2244	; 0x2244 <__vector_3>
      10:	0c 94 47 00 	jmp	0x8e	; 0x8e <__bad_interrupt>
      14:	0c 94 47 00 	jmp	0x8e	; 0x8e <__bad_interrupt>
      18:	0c 94 47 00 	jmp	0x8e	; 0x8e <__bad_interrupt>
      1c:	0c 94 47 00 	jmp	0x8e	; 0x8e <__bad_interrupt>
      20:	0c 94 47 00 	jmp	0x8e	; 0x8e <__bad_interrupt>
      24:	0c 94 47 00 	jmp	0x8e	; 0x8e <__bad_interrupt>
      28:	0c 94 02 0a 	jmp	0x1404	; 0x1404 <__vector_10>
      2c:	0c 94 b6 09 	jmp	0x136c	; 0x136c <__vector_11>
      30:	0c 94 47 00 	jmp	0x8e	; 0x8e <__bad_interrupt>
      34:	0c 94 47 00 	jmp	0x8e	; 0x8e <__bad_interrupt>
      38:	0c 94 47 00 	jmp	0x8e	; 0x8e <__bad_interrupt>
      3c:	0c 94 47 00 	jmp	0x8e	; 0x8e <__bad_interrupt>
      40:	0c 94 bd 17 	jmp	0x2f7a	; 0x2f7a <__vector_16>
      44:	0c 94 47 00 	jmp	0x8e	; 0x8e <__bad_interrupt>
      48:	0c 94 47 00 	jmp	0x8e	; 0x8e <__bad_interrupt>
      4c:	0c 94 47 00 	jmp	0x8e	; 0x8e <__bad_interrupt>
      50:	0c 94 47 00 	jmp	0x8e	; 0x8e <__bad_interrupt>

00000054 <__ctors_end>:
      54:	11 24       	eor	r1, r1
      56:	1f be       	out	0x3f, r1	; 63
      58:	cf e5       	ldi	r28, 0x5F	; 95
      5a:	d8 e0       	ldi	r29, 0x08	; 8
      5c:	de bf       	out	0x3e, r29	; 62
      5e:	cd bf       	out	0x3d, r28	; 61

00000060 <__do_copy_data>:
      60:	11 e0       	ldi	r17, 0x01	; 1
      62:	a0 e6       	ldi	r26, 0x60	; 96
      64:	b0 e0       	ldi	r27, 0x00	; 0
      66:	ec ef       	ldi	r30, 0xFC	; 252
      68:	f3 e6       	ldi	r31, 0x63	; 99
      6a:	02 c0       	rjmp	.+4      	; 0x70 <.do_copy_data_start>

0000006c <.do_copy_data_loop>:
      6c:	05 90       	lpm	r0, Z+
      6e:	0d 92       	st	X+, r0

00000070 <.do_copy_data_start>:
      70:	a4 38       	cpi	r26, 0x84	; 132
      72:	b1 07       	cpc	r27, r17
      74:	d9 f7       	brne	.-10     	; 0x6c <.do_copy_data_loop>

00000076 <__do_clear_bss>:
      76:	11 e0       	ldi	r17, 0x01	; 1
      78:	a4 e8       	ldi	r26, 0x84	; 132
      7a:	b1 e0       	ldi	r27, 0x01	; 1
      7c:	01 c0       	rjmp	.+2      	; 0x80 <.do_clear_bss_start>

0000007e <.do_clear_bss_loop>:
      7e:	1d 92       	st	X+, r1

00000080 <.do_clear_bss_start>:
      80:	a5 39       	cpi	r26, 0x95	; 149
      82:	b1 07       	cpc	r27, r17
      84:	e1 f7       	brne	.-8      	; 0x7e <.do_clear_bss_loop>
      86:	0e 94 63 31 	call	0x62c6	; 0x62c6 <main>
      8a:	0c 94 fc 31 	jmp	0x63f8	; 0x63f8 <_exit>

0000008e <__bad_interrupt>:
      8e:	0c 94 00 00 	jmp	0	; 0x0 <__vectors>

00000092 <__fixunssfsi>:
      92:	ef 92       	push	r14
      94:	ff 92       	push	r15
      96:	0f 93       	push	r16
      98:	1f 93       	push	r17
      9a:	7b 01       	movw	r14, r22
      9c:	8c 01       	movw	r16, r24
      9e:	20 e0       	ldi	r18, 0x00	; 0
      a0:	30 e0       	ldi	r19, 0x00	; 0
      a2:	40 e0       	ldi	r20, 0x00	; 0
      a4:	5f e4       	ldi	r21, 0x4F	; 79
      a6:	0e 94 49 03 	call	0x692	; 0x692 <__gesf2>
      aa:	88 23       	and	r24, r24
      ac:	8c f0       	brlt	.+34     	; 0xd0 <__fixunssfsi+0x3e>
      ae:	c8 01       	movw	r24, r16
      b0:	b7 01       	movw	r22, r14
      b2:	20 e0       	ldi	r18, 0x00	; 0
      b4:	30 e0       	ldi	r19, 0x00	; 0
      b6:	40 e0       	ldi	r20, 0x00	; 0
      b8:	5f e4       	ldi	r21, 0x4F	; 79
      ba:	0e 94 c1 01 	call	0x382	; 0x382 <__subsf3>
      be:	0e 94 07 04 	call	0x80e	; 0x80e <__fixsfsi>
      c2:	9b 01       	movw	r18, r22
      c4:	ac 01       	movw	r20, r24
      c6:	20 50       	subi	r18, 0x00	; 0
      c8:	30 40       	sbci	r19, 0x00	; 0
      ca:	40 40       	sbci	r20, 0x00	; 0
      cc:	50 48       	sbci	r21, 0x80	; 128
      ce:	06 c0       	rjmp	.+12     	; 0xdc <__fixunssfsi+0x4a>
      d0:	c8 01       	movw	r24, r16
      d2:	b7 01       	movw	r22, r14
      d4:	0e 94 07 04 	call	0x80e	; 0x80e <__fixsfsi>
      d8:	9b 01       	movw	r18, r22
      da:	ac 01       	movw	r20, r24
      dc:	b9 01       	movw	r22, r18
      de:	ca 01       	movw	r24, r20
      e0:	1f 91       	pop	r17
      e2:	0f 91       	pop	r16
      e4:	ff 90       	pop	r15
      e6:	ef 90       	pop	r14
      e8:	08 95       	ret

000000ea <_fpadd_parts>:
      ea:	a0 e0       	ldi	r26, 0x00	; 0
      ec:	b0 e0       	ldi	r27, 0x00	; 0
      ee:	eb e7       	ldi	r30, 0x7B	; 123
      f0:	f0 e0       	ldi	r31, 0x00	; 0
      f2:	0c 94 c5 31 	jmp	0x638a	; 0x638a <__prologue_saves__>
      f6:	dc 01       	movw	r26, r24
      f8:	2b 01       	movw	r4, r22
      fa:	fa 01       	movw	r30, r20
      fc:	9c 91       	ld	r25, X
      fe:	92 30       	cpi	r25, 0x02	; 2
     100:	08 f4       	brcc	.+2      	; 0x104 <_fpadd_parts+0x1a>
     102:	39 c1       	rjmp	.+626    	; 0x376 <_fpadd_parts+0x28c>
     104:	eb 01       	movw	r28, r22
     106:	88 81       	ld	r24, Y
     108:	82 30       	cpi	r24, 0x02	; 2
     10a:	08 f4       	brcc	.+2      	; 0x10e <_fpadd_parts+0x24>
     10c:	33 c1       	rjmp	.+614    	; 0x374 <_fpadd_parts+0x28a>
     10e:	94 30       	cpi	r25, 0x04	; 4
     110:	69 f4       	brne	.+26     	; 0x12c <_fpadd_parts+0x42>
     112:	84 30       	cpi	r24, 0x04	; 4
     114:	09 f0       	breq	.+2      	; 0x118 <_fpadd_parts+0x2e>
     116:	2f c1       	rjmp	.+606    	; 0x376 <_fpadd_parts+0x28c>
     118:	11 96       	adiw	r26, 0x01	; 1
     11a:	9c 91       	ld	r25, X
     11c:	11 97       	sbiw	r26, 0x01	; 1
     11e:	89 81       	ldd	r24, Y+1	; 0x01
     120:	98 17       	cp	r25, r24
     122:	09 f4       	brne	.+2      	; 0x126 <_fpadd_parts+0x3c>
     124:	28 c1       	rjmp	.+592    	; 0x376 <_fpadd_parts+0x28c>
     126:	a0 e6       	ldi	r26, 0x60	; 96
     128:	b0 e0       	ldi	r27, 0x00	; 0
     12a:	25 c1       	rjmp	.+586    	; 0x376 <_fpadd_parts+0x28c>
     12c:	84 30       	cpi	r24, 0x04	; 4
     12e:	09 f4       	brne	.+2      	; 0x132 <_fpadd_parts+0x48>
     130:	21 c1       	rjmp	.+578    	; 0x374 <_fpadd_parts+0x28a>
     132:	82 30       	cpi	r24, 0x02	; 2
     134:	a9 f4       	brne	.+42     	; 0x160 <_fpadd_parts+0x76>
     136:	92 30       	cpi	r25, 0x02	; 2
     138:	09 f0       	breq	.+2      	; 0x13c <_fpadd_parts+0x52>
     13a:	1d c1       	rjmp	.+570    	; 0x376 <_fpadd_parts+0x28c>
     13c:	9a 01       	movw	r18, r20
     13e:	ad 01       	movw	r20, r26
     140:	88 e0       	ldi	r24, 0x08	; 8
     142:	ea 01       	movw	r28, r20
     144:	09 90       	ld	r0, Y+
     146:	ae 01       	movw	r20, r28
     148:	e9 01       	movw	r28, r18
     14a:	09 92       	st	Y+, r0
     14c:	9e 01       	movw	r18, r28
     14e:	81 50       	subi	r24, 0x01	; 1
     150:	c1 f7       	brne	.-16     	; 0x142 <_fpadd_parts+0x58>
     152:	e2 01       	movw	r28, r4
     154:	89 81       	ldd	r24, Y+1	; 0x01
     156:	11 96       	adiw	r26, 0x01	; 1
     158:	9c 91       	ld	r25, X
     15a:	89 23       	and	r24, r25
     15c:	81 83       	std	Z+1, r24	; 0x01
     15e:	08 c1       	rjmp	.+528    	; 0x370 <_fpadd_parts+0x286>
     160:	92 30       	cpi	r25, 0x02	; 2
     162:	09 f4       	brne	.+2      	; 0x166 <_fpadd_parts+0x7c>
     164:	07 c1       	rjmp	.+526    	; 0x374 <_fpadd_parts+0x28a>
     166:	12 96       	adiw	r26, 0x02	; 2
     168:	2d 90       	ld	r2, X+
     16a:	3c 90       	ld	r3, X
     16c:	13 97       	sbiw	r26, 0x03	; 3
     16e:	eb 01       	movw	r28, r22
     170:	8a 81       	ldd	r24, Y+2	; 0x02
     172:	9b 81       	ldd	r25, Y+3	; 0x03
     174:	14 96       	adiw	r26, 0x04	; 4
     176:	ad 90       	ld	r10, X+
     178:	bd 90       	ld	r11, X+
     17a:	cd 90       	ld	r12, X+
     17c:	dc 90       	ld	r13, X
     17e:	17 97       	sbiw	r26, 0x07	; 7
     180:	ec 80       	ldd	r14, Y+4	; 0x04
     182:	fd 80       	ldd	r15, Y+5	; 0x05
     184:	0e 81       	ldd	r16, Y+6	; 0x06
     186:	1f 81       	ldd	r17, Y+7	; 0x07
     188:	91 01       	movw	r18, r2
     18a:	28 1b       	sub	r18, r24
     18c:	39 0b       	sbc	r19, r25
     18e:	b9 01       	movw	r22, r18
     190:	37 ff       	sbrs	r19, 7
     192:	04 c0       	rjmp	.+8      	; 0x19c <_fpadd_parts+0xb2>
     194:	66 27       	eor	r22, r22
     196:	77 27       	eor	r23, r23
     198:	62 1b       	sub	r22, r18
     19a:	73 0b       	sbc	r23, r19
     19c:	60 32       	cpi	r22, 0x20	; 32
     19e:	71 05       	cpc	r23, r1
     1a0:	0c f0       	brlt	.+2      	; 0x1a4 <_fpadd_parts+0xba>
     1a2:	61 c0       	rjmp	.+194    	; 0x266 <_fpadd_parts+0x17c>
     1a4:	12 16       	cp	r1, r18
     1a6:	13 06       	cpc	r1, r19
     1a8:	6c f5       	brge	.+90     	; 0x204 <_fpadd_parts+0x11a>
     1aa:	37 01       	movw	r6, r14
     1ac:	48 01       	movw	r8, r16
     1ae:	06 2e       	mov	r0, r22
     1b0:	04 c0       	rjmp	.+8      	; 0x1ba <_fpadd_parts+0xd0>
     1b2:	96 94       	lsr	r9
     1b4:	87 94       	ror	r8
     1b6:	77 94       	ror	r7
     1b8:	67 94       	ror	r6
     1ba:	0a 94       	dec	r0
     1bc:	d2 f7       	brpl	.-12     	; 0x1b2 <_fpadd_parts+0xc8>
     1be:	21 e0       	ldi	r18, 0x01	; 1
     1c0:	30 e0       	ldi	r19, 0x00	; 0
     1c2:	40 e0       	ldi	r20, 0x00	; 0
     1c4:	50 e0       	ldi	r21, 0x00	; 0
     1c6:	04 c0       	rjmp	.+8      	; 0x1d0 <_fpadd_parts+0xe6>
     1c8:	22 0f       	add	r18, r18
     1ca:	33 1f       	adc	r19, r19
     1cc:	44 1f       	adc	r20, r20
     1ce:	55 1f       	adc	r21, r21
     1d0:	6a 95       	dec	r22
     1d2:	d2 f7       	brpl	.-12     	; 0x1c8 <_fpadd_parts+0xde>
     1d4:	21 50       	subi	r18, 0x01	; 1
     1d6:	30 40       	sbci	r19, 0x00	; 0
     1d8:	40 40       	sbci	r20, 0x00	; 0
     1da:	50 40       	sbci	r21, 0x00	; 0
     1dc:	2e 21       	and	r18, r14
     1de:	3f 21       	and	r19, r15
     1e0:	40 23       	and	r20, r16
     1e2:	51 23       	and	r21, r17
     1e4:	21 15       	cp	r18, r1
     1e6:	31 05       	cpc	r19, r1
     1e8:	41 05       	cpc	r20, r1
     1ea:	51 05       	cpc	r21, r1
     1ec:	21 f0       	breq	.+8      	; 0x1f6 <_fpadd_parts+0x10c>
     1ee:	21 e0       	ldi	r18, 0x01	; 1
     1f0:	30 e0       	ldi	r19, 0x00	; 0
     1f2:	40 e0       	ldi	r20, 0x00	; 0
     1f4:	50 e0       	ldi	r21, 0x00	; 0
     1f6:	79 01       	movw	r14, r18
     1f8:	8a 01       	movw	r16, r20
     1fa:	e6 28       	or	r14, r6
     1fc:	f7 28       	or	r15, r7
     1fe:	08 29       	or	r16, r8
     200:	19 29       	or	r17, r9
     202:	3c c0       	rjmp	.+120    	; 0x27c <_fpadd_parts+0x192>
     204:	23 2b       	or	r18, r19
     206:	d1 f1       	breq	.+116    	; 0x27c <_fpadd_parts+0x192>
     208:	26 0e       	add	r2, r22
     20a:	37 1e       	adc	r3, r23
     20c:	35 01       	movw	r6, r10
     20e:	46 01       	movw	r8, r12
     210:	06 2e       	mov	r0, r22
     212:	04 c0       	rjmp	.+8      	; 0x21c <_fpadd_parts+0x132>
     214:	96 94       	lsr	r9
     216:	87 94       	ror	r8
     218:	77 94       	ror	r7
     21a:	67 94       	ror	r6
     21c:	0a 94       	dec	r0
     21e:	d2 f7       	brpl	.-12     	; 0x214 <_fpadd_parts+0x12a>
     220:	21 e0       	ldi	r18, 0x01	; 1
     222:	30 e0       	ldi	r19, 0x00	; 0
     224:	40 e0       	ldi	r20, 0x00	; 0
     226:	50 e0       	ldi	r21, 0x00	; 0
     228:	04 c0       	rjmp	.+8      	; 0x232 <_fpadd_parts+0x148>
     22a:	22 0f       	add	r18, r18
     22c:	33 1f       	adc	r19, r19
     22e:	44 1f       	adc	r20, r20
     230:	55 1f       	adc	r21, r21
     232:	6a 95       	dec	r22
     234:	d2 f7       	brpl	.-12     	; 0x22a <_fpadd_parts+0x140>
     236:	21 50       	subi	r18, 0x01	; 1
     238:	30 40       	sbci	r19, 0x00	; 0
     23a:	40 40       	sbci	r20, 0x00	; 0
     23c:	50 40       	sbci	r21, 0x00	; 0
     23e:	2a 21       	and	r18, r10
     240:	3b 21       	and	r19, r11
     242:	4c 21       	and	r20, r12
     244:	5d 21       	and	r21, r13
     246:	21 15       	cp	r18, r1
     248:	31 05       	cpc	r19, r1
     24a:	41 05       	cpc	r20, r1
     24c:	51 05       	cpc	r21, r1
     24e:	21 f0       	breq	.+8      	; 0x258 <_fpadd_parts+0x16e>
     250:	21 e0       	ldi	r18, 0x01	; 1
     252:	30 e0       	ldi	r19, 0x00	; 0
     254:	40 e0       	ldi	r20, 0x00	; 0
     256:	50 e0       	ldi	r21, 0x00	; 0
     258:	59 01       	movw	r10, r18
     25a:	6a 01       	movw	r12, r20
     25c:	a6 28       	or	r10, r6
     25e:	b7 28       	or	r11, r7
     260:	c8 28       	or	r12, r8
     262:	d9 28       	or	r13, r9
     264:	0b c0       	rjmp	.+22     	; 0x27c <_fpadd_parts+0x192>
     266:	82 15       	cp	r24, r2
     268:	93 05       	cpc	r25, r3
     26a:	2c f0       	brlt	.+10     	; 0x276 <_fpadd_parts+0x18c>
     26c:	1c 01       	movw	r2, r24
     26e:	aa 24       	eor	r10, r10
     270:	bb 24       	eor	r11, r11
     272:	65 01       	movw	r12, r10
     274:	03 c0       	rjmp	.+6      	; 0x27c <_fpadd_parts+0x192>
     276:	ee 24       	eor	r14, r14
     278:	ff 24       	eor	r15, r15
     27a:	87 01       	movw	r16, r14
     27c:	11 96       	adiw	r26, 0x01	; 1
     27e:	9c 91       	ld	r25, X
     280:	d2 01       	movw	r26, r4
     282:	11 96       	adiw	r26, 0x01	; 1
     284:	8c 91       	ld	r24, X
     286:	98 17       	cp	r25, r24
     288:	09 f4       	brne	.+2      	; 0x28c <_fpadd_parts+0x1a2>
     28a:	45 c0       	rjmp	.+138    	; 0x316 <_fpadd_parts+0x22c>
     28c:	99 23       	and	r25, r25
     28e:	39 f0       	breq	.+14     	; 0x29e <_fpadd_parts+0x1b4>
     290:	a8 01       	movw	r20, r16
     292:	97 01       	movw	r18, r14
     294:	2a 19       	sub	r18, r10
     296:	3b 09       	sbc	r19, r11
     298:	4c 09       	sbc	r20, r12
     29a:	5d 09       	sbc	r21, r13
     29c:	06 c0       	rjmp	.+12     	; 0x2aa <_fpadd_parts+0x1c0>
     29e:	a6 01       	movw	r20, r12
     2a0:	95 01       	movw	r18, r10
     2a2:	2e 19       	sub	r18, r14
     2a4:	3f 09       	sbc	r19, r15
     2a6:	40 0b       	sbc	r20, r16
     2a8:	51 0b       	sbc	r21, r17
     2aa:	57 fd       	sbrc	r21, 7
     2ac:	08 c0       	rjmp	.+16     	; 0x2be <_fpadd_parts+0x1d4>
     2ae:	11 82       	std	Z+1, r1	; 0x01
     2b0:	33 82       	std	Z+3, r3	; 0x03
     2b2:	22 82       	std	Z+2, r2	; 0x02
     2b4:	24 83       	std	Z+4, r18	; 0x04
     2b6:	35 83       	std	Z+5, r19	; 0x05
     2b8:	46 83       	std	Z+6, r20	; 0x06
     2ba:	57 83       	std	Z+7, r21	; 0x07
     2bc:	1d c0       	rjmp	.+58     	; 0x2f8 <_fpadd_parts+0x20e>
     2be:	81 e0       	ldi	r24, 0x01	; 1
     2c0:	81 83       	std	Z+1, r24	; 0x01
     2c2:	33 82       	std	Z+3, r3	; 0x03
     2c4:	22 82       	std	Z+2, r2	; 0x02
     2c6:	88 27       	eor	r24, r24
     2c8:	99 27       	eor	r25, r25
     2ca:	dc 01       	movw	r26, r24
     2cc:	82 1b       	sub	r24, r18
     2ce:	93 0b       	sbc	r25, r19
     2d0:	a4 0b       	sbc	r26, r20
     2d2:	b5 0b       	sbc	r27, r21
     2d4:	84 83       	std	Z+4, r24	; 0x04
     2d6:	95 83       	std	Z+5, r25	; 0x05
     2d8:	a6 83       	std	Z+6, r26	; 0x06
     2da:	b7 83       	std	Z+7, r27	; 0x07
     2dc:	0d c0       	rjmp	.+26     	; 0x2f8 <_fpadd_parts+0x20e>
     2de:	22 0f       	add	r18, r18
     2e0:	33 1f       	adc	r19, r19
     2e2:	44 1f       	adc	r20, r20
     2e4:	55 1f       	adc	r21, r21
     2e6:	24 83       	std	Z+4, r18	; 0x04
     2e8:	35 83       	std	Z+5, r19	; 0x05
     2ea:	46 83       	std	Z+6, r20	; 0x06
     2ec:	57 83       	std	Z+7, r21	; 0x07
     2ee:	82 81       	ldd	r24, Z+2	; 0x02
     2f0:	93 81       	ldd	r25, Z+3	; 0x03
     2f2:	01 97       	sbiw	r24, 0x01	; 1
     2f4:	93 83       	std	Z+3, r25	; 0x03
     2f6:	82 83       	std	Z+2, r24	; 0x02
     2f8:	24 81       	ldd	r18, Z+4	; 0x04
     2fa:	35 81       	ldd	r19, Z+5	; 0x05
     2fc:	46 81       	ldd	r20, Z+6	; 0x06
     2fe:	57 81       	ldd	r21, Z+7	; 0x07
     300:	da 01       	movw	r26, r20
     302:	c9 01       	movw	r24, r18
     304:	01 97       	sbiw	r24, 0x01	; 1
     306:	a1 09       	sbc	r26, r1
     308:	b1 09       	sbc	r27, r1
     30a:	8f 5f       	subi	r24, 0xFF	; 255
     30c:	9f 4f       	sbci	r25, 0xFF	; 255
     30e:	af 4f       	sbci	r26, 0xFF	; 255
     310:	bf 43       	sbci	r27, 0x3F	; 63
     312:	28 f3       	brcs	.-54     	; 0x2de <_fpadd_parts+0x1f4>
     314:	0b c0       	rjmp	.+22     	; 0x32c <_fpadd_parts+0x242>
     316:	91 83       	std	Z+1, r25	; 0x01
     318:	33 82       	std	Z+3, r3	; 0x03
     31a:	22 82       	std	Z+2, r2	; 0x02
     31c:	ea 0c       	add	r14, r10
     31e:	fb 1c       	adc	r15, r11
     320:	0c 1d       	adc	r16, r12
     322:	1d 1d       	adc	r17, r13
     324:	e4 82       	std	Z+4, r14	; 0x04
     326:	f5 82       	std	Z+5, r15	; 0x05
     328:	06 83       	std	Z+6, r16	; 0x06
     32a:	17 83       	std	Z+7, r17	; 0x07
     32c:	83 e0       	ldi	r24, 0x03	; 3
     32e:	80 83       	st	Z, r24
     330:	24 81       	ldd	r18, Z+4	; 0x04
     332:	35 81       	ldd	r19, Z+5	; 0x05
     334:	46 81       	ldd	r20, Z+6	; 0x06
     336:	57 81       	ldd	r21, Z+7	; 0x07
     338:	57 ff       	sbrs	r21, 7
     33a:	1a c0       	rjmp	.+52     	; 0x370 <_fpadd_parts+0x286>
     33c:	c9 01       	movw	r24, r18
     33e:	aa 27       	eor	r26, r26
     340:	97 fd       	sbrc	r25, 7
     342:	a0 95       	com	r26
     344:	ba 2f       	mov	r27, r26
     346:	81 70       	andi	r24, 0x01	; 1
     348:	90 70       	andi	r25, 0x00	; 0
     34a:	a0 70       	andi	r26, 0x00	; 0
     34c:	b0 70       	andi	r27, 0x00	; 0
     34e:	56 95       	lsr	r21
     350:	47 95       	ror	r20
     352:	37 95       	ror	r19
     354:	27 95       	ror	r18
     356:	82 2b       	or	r24, r18
     358:	93 2b       	or	r25, r19
     35a:	a4 2b       	or	r26, r20
     35c:	b5 2b       	or	r27, r21
     35e:	84 83       	std	Z+4, r24	; 0x04
     360:	95 83       	std	Z+5, r25	; 0x05
     362:	a6 83       	std	Z+6, r26	; 0x06
     364:	b7 83       	std	Z+7, r27	; 0x07
     366:	82 81       	ldd	r24, Z+2	; 0x02
     368:	93 81       	ldd	r25, Z+3	; 0x03
     36a:	01 96       	adiw	r24, 0x01	; 1
     36c:	93 83       	std	Z+3, r25	; 0x03
     36e:	82 83       	std	Z+2, r24	; 0x02
     370:	df 01       	movw	r26, r30
     372:	01 c0       	rjmp	.+2      	; 0x376 <_fpadd_parts+0x28c>
     374:	d2 01       	movw	r26, r4
     376:	cd 01       	movw	r24, r26
     378:	cd b7       	in	r28, 0x3d	; 61
     37a:	de b7       	in	r29, 0x3e	; 62
     37c:	e2 e1       	ldi	r30, 0x12	; 18
     37e:	0c 94 e1 31 	jmp	0x63c2	; 0x63c2 <__epilogue_restores__>

00000382 <__subsf3>:
     382:	a0 e2       	ldi	r26, 0x20	; 32
     384:	b0 e0       	ldi	r27, 0x00	; 0
     386:	e7 ec       	ldi	r30, 0xC7	; 199
     388:	f1 e0       	ldi	r31, 0x01	; 1
     38a:	0c 94 d1 31 	jmp	0x63a2	; 0x63a2 <__prologue_saves__+0x18>
     38e:	69 83       	std	Y+1, r22	; 0x01
     390:	7a 83       	std	Y+2, r23	; 0x02
     392:	8b 83       	std	Y+3, r24	; 0x03
     394:	9c 83       	std	Y+4, r25	; 0x04
     396:	2d 83       	std	Y+5, r18	; 0x05
     398:	3e 83       	std	Y+6, r19	; 0x06
     39a:	4f 83       	std	Y+7, r20	; 0x07
     39c:	58 87       	std	Y+8, r21	; 0x08
     39e:	e9 e0       	ldi	r30, 0x09	; 9
     3a0:	ee 2e       	mov	r14, r30
     3a2:	f1 2c       	mov	r15, r1
     3a4:	ec 0e       	add	r14, r28
     3a6:	fd 1e       	adc	r15, r29
     3a8:	ce 01       	movw	r24, r28
     3aa:	01 96       	adiw	r24, 0x01	; 1
     3ac:	b7 01       	movw	r22, r14
     3ae:	0e 94 7f 05 	call	0xafe	; 0xafe <__unpack_f>
     3b2:	8e 01       	movw	r16, r28
     3b4:	0f 5e       	subi	r16, 0xEF	; 239
     3b6:	1f 4f       	sbci	r17, 0xFF	; 255
     3b8:	ce 01       	movw	r24, r28
     3ba:	05 96       	adiw	r24, 0x05	; 5
     3bc:	b8 01       	movw	r22, r16
     3be:	0e 94 7f 05 	call	0xafe	; 0xafe <__unpack_f>
     3c2:	8a 89       	ldd	r24, Y+18	; 0x12
     3c4:	91 e0       	ldi	r25, 0x01	; 1
     3c6:	89 27       	eor	r24, r25
     3c8:	8a 8b       	std	Y+18, r24	; 0x12
     3ca:	c7 01       	movw	r24, r14
     3cc:	b8 01       	movw	r22, r16
     3ce:	ae 01       	movw	r20, r28
     3d0:	47 5e       	subi	r20, 0xE7	; 231
     3d2:	5f 4f       	sbci	r21, 0xFF	; 255
     3d4:	0e 94 75 00 	call	0xea	; 0xea <_fpadd_parts>
     3d8:	0e 94 aa 04 	call	0x954	; 0x954 <__pack_f>
     3dc:	a0 96       	adiw	r28, 0x20	; 32
     3de:	e6 e0       	ldi	r30, 0x06	; 6
     3e0:	0c 94 ed 31 	jmp	0x63da	; 0x63da <__epilogue_restores__+0x18>

000003e4 <__addsf3>:
     3e4:	a0 e2       	ldi	r26, 0x20	; 32
     3e6:	b0 e0       	ldi	r27, 0x00	; 0
     3e8:	e8 ef       	ldi	r30, 0xF8	; 248
     3ea:	f1 e0       	ldi	r31, 0x01	; 1
     3ec:	0c 94 d1 31 	jmp	0x63a2	; 0x63a2 <__prologue_saves__+0x18>
     3f0:	69 83       	std	Y+1, r22	; 0x01
     3f2:	7a 83       	std	Y+2, r23	; 0x02
     3f4:	8b 83       	std	Y+3, r24	; 0x03
     3f6:	9c 83       	std	Y+4, r25	; 0x04
     3f8:	2d 83       	std	Y+5, r18	; 0x05
     3fa:	3e 83       	std	Y+6, r19	; 0x06
     3fc:	4f 83       	std	Y+7, r20	; 0x07
     3fe:	58 87       	std	Y+8, r21	; 0x08
     400:	f9 e0       	ldi	r31, 0x09	; 9
     402:	ef 2e       	mov	r14, r31
     404:	f1 2c       	mov	r15, r1
     406:	ec 0e       	add	r14, r28
     408:	fd 1e       	adc	r15, r29
     40a:	ce 01       	movw	r24, r28
     40c:	01 96       	adiw	r24, 0x01	; 1
     40e:	b7 01       	movw	r22, r14
     410:	0e 94 7f 05 	call	0xafe	; 0xafe <__unpack_f>
     414:	8e 01       	movw	r16, r28
     416:	0f 5e       	subi	r16, 0xEF	; 239
     418:	1f 4f       	sbci	r17, 0xFF	; 255
     41a:	ce 01       	movw	r24, r28
     41c:	05 96       	adiw	r24, 0x05	; 5
     41e:	b8 01       	movw	r22, r16
     420:	0e 94 7f 05 	call	0xafe	; 0xafe <__unpack_f>
     424:	c7 01       	movw	r24, r14
     426:	b8 01       	movw	r22, r16
     428:	ae 01       	movw	r20, r28
     42a:	47 5e       	subi	r20, 0xE7	; 231
     42c:	5f 4f       	sbci	r21, 0xFF	; 255
     42e:	0e 94 75 00 	call	0xea	; 0xea <_fpadd_parts>
     432:	0e 94 aa 04 	call	0x954	; 0x954 <__pack_f>
     436:	a0 96       	adiw	r28, 0x20	; 32
     438:	e6 e0       	ldi	r30, 0x06	; 6
     43a:	0c 94 ed 31 	jmp	0x63da	; 0x63da <__epilogue_restores__+0x18>

0000043e <__mulsf3>:
     43e:	a0 e2       	ldi	r26, 0x20	; 32
     440:	b0 e0       	ldi	r27, 0x00	; 0
     442:	e5 e2       	ldi	r30, 0x25	; 37
     444:	f2 e0       	ldi	r31, 0x02	; 2
     446:	0c 94 c5 31 	jmp	0x638a	; 0x638a <__prologue_saves__>
     44a:	69 83       	std	Y+1, r22	; 0x01
     44c:	7a 83       	std	Y+2, r23	; 0x02
     44e:	8b 83       	std	Y+3, r24	; 0x03
     450:	9c 83       	std	Y+4, r25	; 0x04
     452:	2d 83       	std	Y+5, r18	; 0x05
     454:	3e 83       	std	Y+6, r19	; 0x06
     456:	4f 83       	std	Y+7, r20	; 0x07
     458:	58 87       	std	Y+8, r21	; 0x08
     45a:	ce 01       	movw	r24, r28
     45c:	01 96       	adiw	r24, 0x01	; 1
     45e:	be 01       	movw	r22, r28
     460:	67 5f       	subi	r22, 0xF7	; 247
     462:	7f 4f       	sbci	r23, 0xFF	; 255
     464:	0e 94 7f 05 	call	0xafe	; 0xafe <__unpack_f>
     468:	ce 01       	movw	r24, r28
     46a:	05 96       	adiw	r24, 0x05	; 5
     46c:	be 01       	movw	r22, r28
     46e:	6f 5e       	subi	r22, 0xEF	; 239
     470:	7f 4f       	sbci	r23, 0xFF	; 255
     472:	0e 94 7f 05 	call	0xafe	; 0xafe <__unpack_f>
     476:	99 85       	ldd	r25, Y+9	; 0x09
     478:	92 30       	cpi	r25, 0x02	; 2
     47a:	88 f0       	brcs	.+34     	; 0x49e <__mulsf3+0x60>
     47c:	89 89       	ldd	r24, Y+17	; 0x11
     47e:	82 30       	cpi	r24, 0x02	; 2
     480:	c8 f0       	brcs	.+50     	; 0x4b4 <__mulsf3+0x76>
     482:	94 30       	cpi	r25, 0x04	; 4
     484:	19 f4       	brne	.+6      	; 0x48c <__mulsf3+0x4e>
     486:	82 30       	cpi	r24, 0x02	; 2
     488:	51 f4       	brne	.+20     	; 0x49e <__mulsf3+0x60>
     48a:	04 c0       	rjmp	.+8      	; 0x494 <__mulsf3+0x56>
     48c:	84 30       	cpi	r24, 0x04	; 4
     48e:	29 f4       	brne	.+10     	; 0x49a <__mulsf3+0x5c>
     490:	92 30       	cpi	r25, 0x02	; 2
     492:	81 f4       	brne	.+32     	; 0x4b4 <__mulsf3+0x76>
     494:	80 e6       	ldi	r24, 0x60	; 96
     496:	90 e0       	ldi	r25, 0x00	; 0
     498:	c6 c0       	rjmp	.+396    	; 0x626 <__mulsf3+0x1e8>
     49a:	92 30       	cpi	r25, 0x02	; 2
     49c:	49 f4       	brne	.+18     	; 0x4b0 <__mulsf3+0x72>
     49e:	20 e0       	ldi	r18, 0x00	; 0
     4a0:	9a 85       	ldd	r25, Y+10	; 0x0a
     4a2:	8a 89       	ldd	r24, Y+18	; 0x12
     4a4:	98 13       	cpse	r25, r24
     4a6:	21 e0       	ldi	r18, 0x01	; 1
     4a8:	2a 87       	std	Y+10, r18	; 0x0a
     4aa:	ce 01       	movw	r24, r28
     4ac:	09 96       	adiw	r24, 0x09	; 9
     4ae:	bb c0       	rjmp	.+374    	; 0x626 <__mulsf3+0x1e8>
     4b0:	82 30       	cpi	r24, 0x02	; 2
     4b2:	49 f4       	brne	.+18     	; 0x4c6 <__mulsf3+0x88>
     4b4:	20 e0       	ldi	r18, 0x00	; 0
     4b6:	9a 85       	ldd	r25, Y+10	; 0x0a
     4b8:	8a 89       	ldd	r24, Y+18	; 0x12
     4ba:	98 13       	cpse	r25, r24
     4bc:	21 e0       	ldi	r18, 0x01	; 1
     4be:	2a 8b       	std	Y+18, r18	; 0x12
     4c0:	ce 01       	movw	r24, r28
     4c2:	41 96       	adiw	r24, 0x11	; 17
     4c4:	b0 c0       	rjmp	.+352    	; 0x626 <__mulsf3+0x1e8>
     4c6:	2d 84       	ldd	r2, Y+13	; 0x0d
     4c8:	3e 84       	ldd	r3, Y+14	; 0x0e
     4ca:	4f 84       	ldd	r4, Y+15	; 0x0f
     4cc:	58 88       	ldd	r5, Y+16	; 0x10
     4ce:	6d 88       	ldd	r6, Y+21	; 0x15
     4d0:	7e 88       	ldd	r7, Y+22	; 0x16
     4d2:	8f 88       	ldd	r8, Y+23	; 0x17
     4d4:	98 8c       	ldd	r9, Y+24	; 0x18
     4d6:	ee 24       	eor	r14, r14
     4d8:	ff 24       	eor	r15, r15
     4da:	87 01       	movw	r16, r14
     4dc:	aa 24       	eor	r10, r10
     4de:	bb 24       	eor	r11, r11
     4e0:	65 01       	movw	r12, r10
     4e2:	40 e0       	ldi	r20, 0x00	; 0
     4e4:	50 e0       	ldi	r21, 0x00	; 0
     4e6:	60 e0       	ldi	r22, 0x00	; 0
     4e8:	70 e0       	ldi	r23, 0x00	; 0
     4ea:	e0 e0       	ldi	r30, 0x00	; 0
     4ec:	f0 e0       	ldi	r31, 0x00	; 0
     4ee:	c1 01       	movw	r24, r2
     4f0:	81 70       	andi	r24, 0x01	; 1
     4f2:	90 70       	andi	r25, 0x00	; 0
     4f4:	89 2b       	or	r24, r25
     4f6:	e9 f0       	breq	.+58     	; 0x532 <__mulsf3+0xf4>
     4f8:	e6 0c       	add	r14, r6
     4fa:	f7 1c       	adc	r15, r7
     4fc:	08 1d       	adc	r16, r8
     4fe:	19 1d       	adc	r17, r9
     500:	9a 01       	movw	r18, r20
     502:	ab 01       	movw	r20, r22
     504:	2a 0d       	add	r18, r10
     506:	3b 1d       	adc	r19, r11
     508:	4c 1d       	adc	r20, r12
     50a:	5d 1d       	adc	r21, r13
     50c:	80 e0       	ldi	r24, 0x00	; 0
     50e:	90 e0       	ldi	r25, 0x00	; 0
     510:	a0 e0       	ldi	r26, 0x00	; 0
     512:	b0 e0       	ldi	r27, 0x00	; 0
     514:	e6 14       	cp	r14, r6
     516:	f7 04       	cpc	r15, r7
     518:	08 05       	cpc	r16, r8
     51a:	19 05       	cpc	r17, r9
     51c:	20 f4       	brcc	.+8      	; 0x526 <__mulsf3+0xe8>
     51e:	81 e0       	ldi	r24, 0x01	; 1
     520:	90 e0       	ldi	r25, 0x00	; 0
     522:	a0 e0       	ldi	r26, 0x00	; 0
     524:	b0 e0       	ldi	r27, 0x00	; 0
     526:	ba 01       	movw	r22, r20
     528:	a9 01       	movw	r20, r18
     52a:	48 0f       	add	r20, r24
     52c:	59 1f       	adc	r21, r25
     52e:	6a 1f       	adc	r22, r26
     530:	7b 1f       	adc	r23, r27
     532:	aa 0c       	add	r10, r10
     534:	bb 1c       	adc	r11, r11
     536:	cc 1c       	adc	r12, r12
     538:	dd 1c       	adc	r13, r13
     53a:	97 fe       	sbrs	r9, 7
     53c:	08 c0       	rjmp	.+16     	; 0x54e <__mulsf3+0x110>
     53e:	81 e0       	ldi	r24, 0x01	; 1
     540:	90 e0       	ldi	r25, 0x00	; 0
     542:	a0 e0       	ldi	r26, 0x00	; 0
     544:	b0 e0       	ldi	r27, 0x00	; 0
     546:	a8 2a       	or	r10, r24
     548:	b9 2a       	or	r11, r25
     54a:	ca 2a       	or	r12, r26
     54c:	db 2a       	or	r13, r27
     54e:	31 96       	adiw	r30, 0x01	; 1
     550:	e0 32       	cpi	r30, 0x20	; 32
     552:	f1 05       	cpc	r31, r1
     554:	49 f0       	breq	.+18     	; 0x568 <__mulsf3+0x12a>
     556:	66 0c       	add	r6, r6
     558:	77 1c       	adc	r7, r7
     55a:	88 1c       	adc	r8, r8
     55c:	99 1c       	adc	r9, r9
     55e:	56 94       	lsr	r5
     560:	47 94       	ror	r4
     562:	37 94       	ror	r3
     564:	27 94       	ror	r2
     566:	c3 cf       	rjmp	.-122    	; 0x4ee <__mulsf3+0xb0>
     568:	fa 85       	ldd	r31, Y+10	; 0x0a
     56a:	ea 89       	ldd	r30, Y+18	; 0x12
     56c:	2b 89       	ldd	r18, Y+19	; 0x13
     56e:	3c 89       	ldd	r19, Y+20	; 0x14
     570:	8b 85       	ldd	r24, Y+11	; 0x0b
     572:	9c 85       	ldd	r25, Y+12	; 0x0c
     574:	28 0f       	add	r18, r24
     576:	39 1f       	adc	r19, r25
     578:	2e 5f       	subi	r18, 0xFE	; 254
     57a:	3f 4f       	sbci	r19, 0xFF	; 255
     57c:	17 c0       	rjmp	.+46     	; 0x5ac <__mulsf3+0x16e>
     57e:	ca 01       	movw	r24, r20
     580:	81 70       	andi	r24, 0x01	; 1
     582:	90 70       	andi	r25, 0x00	; 0
     584:	89 2b       	or	r24, r25
     586:	61 f0       	breq	.+24     	; 0x5a0 <__mulsf3+0x162>
     588:	16 95       	lsr	r17
     58a:	07 95       	ror	r16
     58c:	f7 94       	ror	r15
     58e:	e7 94       	ror	r14
     590:	80 e0       	ldi	r24, 0x00	; 0
     592:	90 e0       	ldi	r25, 0x00	; 0
     594:	a0 e0       	ldi	r26, 0x00	; 0
     596:	b0 e8       	ldi	r27, 0x80	; 128
     598:	e8 2a       	or	r14, r24
     59a:	f9 2a       	or	r15, r25
     59c:	0a 2b       	or	r16, r26
     59e:	1b 2b       	or	r17, r27
     5a0:	76 95       	lsr	r23
     5a2:	67 95       	ror	r22
     5a4:	57 95       	ror	r21
     5a6:	47 95       	ror	r20
     5a8:	2f 5f       	subi	r18, 0xFF	; 255
     5aa:	3f 4f       	sbci	r19, 0xFF	; 255
     5ac:	77 fd       	sbrc	r23, 7
     5ae:	e7 cf       	rjmp	.-50     	; 0x57e <__mulsf3+0x140>
     5b0:	0c c0       	rjmp	.+24     	; 0x5ca <__mulsf3+0x18c>
     5b2:	44 0f       	add	r20, r20
     5b4:	55 1f       	adc	r21, r21
     5b6:	66 1f       	adc	r22, r22
     5b8:	77 1f       	adc	r23, r23
     5ba:	17 fd       	sbrc	r17, 7
     5bc:	41 60       	ori	r20, 0x01	; 1
     5be:	ee 0c       	add	r14, r14
     5c0:	ff 1c       	adc	r15, r15
     5c2:	00 1f       	adc	r16, r16
     5c4:	11 1f       	adc	r17, r17
     5c6:	21 50       	subi	r18, 0x01	; 1
     5c8:	30 40       	sbci	r19, 0x00	; 0
     5ca:	40 30       	cpi	r20, 0x00	; 0
     5cc:	90 e0       	ldi	r25, 0x00	; 0
     5ce:	59 07       	cpc	r21, r25
     5d0:	90 e0       	ldi	r25, 0x00	; 0
     5d2:	69 07       	cpc	r22, r25
     5d4:	90 e4       	ldi	r25, 0x40	; 64
     5d6:	79 07       	cpc	r23, r25
     5d8:	60 f3       	brcs	.-40     	; 0x5b2 <__mulsf3+0x174>
     5da:	2b 8f       	std	Y+27, r18	; 0x1b
     5dc:	3c 8f       	std	Y+28, r19	; 0x1c
     5de:	db 01       	movw	r26, r22
     5e0:	ca 01       	movw	r24, r20
     5e2:	8f 77       	andi	r24, 0x7F	; 127
     5e4:	90 70       	andi	r25, 0x00	; 0
     5e6:	a0 70       	andi	r26, 0x00	; 0
     5e8:	b0 70       	andi	r27, 0x00	; 0
     5ea:	80 34       	cpi	r24, 0x40	; 64
     5ec:	91 05       	cpc	r25, r1
     5ee:	a1 05       	cpc	r26, r1
     5f0:	b1 05       	cpc	r27, r1
     5f2:	61 f4       	brne	.+24     	; 0x60c <__mulsf3+0x1ce>
     5f4:	47 fd       	sbrc	r20, 7
     5f6:	0a c0       	rjmp	.+20     	; 0x60c <__mulsf3+0x1ce>
     5f8:	e1 14       	cp	r14, r1
     5fa:	f1 04       	cpc	r15, r1
     5fc:	01 05       	cpc	r16, r1
     5fe:	11 05       	cpc	r17, r1
     600:	29 f0       	breq	.+10     	; 0x60c <__mulsf3+0x1ce>
     602:	40 5c       	subi	r20, 0xC0	; 192
     604:	5f 4f       	sbci	r21, 0xFF	; 255
     606:	6f 4f       	sbci	r22, 0xFF	; 255
     608:	7f 4f       	sbci	r23, 0xFF	; 255
     60a:	40 78       	andi	r20, 0x80	; 128
     60c:	1a 8e       	std	Y+26, r1	; 0x1a
     60e:	fe 17       	cp	r31, r30
     610:	11 f0       	breq	.+4      	; 0x616 <__mulsf3+0x1d8>
     612:	81 e0       	ldi	r24, 0x01	; 1
     614:	8a 8f       	std	Y+26, r24	; 0x1a
     616:	4d 8f       	std	Y+29, r20	; 0x1d
     618:	5e 8f       	std	Y+30, r21	; 0x1e
     61a:	6f 8f       	std	Y+31, r22	; 0x1f
     61c:	78 a3       	std	Y+32, r23	; 0x20
     61e:	83 e0       	ldi	r24, 0x03	; 3
     620:	89 8f       	std	Y+25, r24	; 0x19
     622:	ce 01       	movw	r24, r28
     624:	49 96       	adiw	r24, 0x19	; 25
     626:	0e 94 aa 04 	call	0x954	; 0x954 <__pack_f>
     62a:	a0 96       	adiw	r28, 0x20	; 32
     62c:	e2 e1       	ldi	r30, 0x12	; 18
     62e:	0c 94 e1 31 	jmp	0x63c2	; 0x63c2 <__epilogue_restores__>

00000632 <__gtsf2>:
     632:	a8 e1       	ldi	r26, 0x18	; 24
     634:	b0 e0       	ldi	r27, 0x00	; 0
     636:	ef e1       	ldi	r30, 0x1F	; 31
     638:	f3 e0       	ldi	r31, 0x03	; 3
     63a:	0c 94 d1 31 	jmp	0x63a2	; 0x63a2 <__prologue_saves__+0x18>
     63e:	69 83       	std	Y+1, r22	; 0x01
     640:	7a 83       	std	Y+2, r23	; 0x02
     642:	8b 83       	std	Y+3, r24	; 0x03
     644:	9c 83       	std	Y+4, r25	; 0x04
     646:	2d 83       	std	Y+5, r18	; 0x05
     648:	3e 83       	std	Y+6, r19	; 0x06
     64a:	4f 83       	std	Y+7, r20	; 0x07
     64c:	58 87       	std	Y+8, r21	; 0x08
     64e:	89 e0       	ldi	r24, 0x09	; 9
     650:	e8 2e       	mov	r14, r24
     652:	f1 2c       	mov	r15, r1
     654:	ec 0e       	add	r14, r28
     656:	fd 1e       	adc	r15, r29
     658:	ce 01       	movw	r24, r28
     65a:	01 96       	adiw	r24, 0x01	; 1
     65c:	b7 01       	movw	r22, r14
     65e:	0e 94 7f 05 	call	0xafe	; 0xafe <__unpack_f>
     662:	8e 01       	movw	r16, r28
     664:	0f 5e       	subi	r16, 0xEF	; 239
     666:	1f 4f       	sbci	r17, 0xFF	; 255
     668:	ce 01       	movw	r24, r28
     66a:	05 96       	adiw	r24, 0x05	; 5
     66c:	b8 01       	movw	r22, r16
     66e:	0e 94 7f 05 	call	0xafe	; 0xafe <__unpack_f>
     672:	89 85       	ldd	r24, Y+9	; 0x09
     674:	82 30       	cpi	r24, 0x02	; 2
     676:	40 f0       	brcs	.+16     	; 0x688 <__gtsf2+0x56>
     678:	89 89       	ldd	r24, Y+17	; 0x11
     67a:	82 30       	cpi	r24, 0x02	; 2
     67c:	28 f0       	brcs	.+10     	; 0x688 <__gtsf2+0x56>
     67e:	c7 01       	movw	r24, r14
     680:	b8 01       	movw	r22, r16
     682:	0e 94 f7 05 	call	0xbee	; 0xbee <__fpcmp_parts_f>
     686:	01 c0       	rjmp	.+2      	; 0x68a <__gtsf2+0x58>
     688:	8f ef       	ldi	r24, 0xFF	; 255
     68a:	68 96       	adiw	r28, 0x18	; 24
     68c:	e6 e0       	ldi	r30, 0x06	; 6
     68e:	0c 94 ed 31 	jmp	0x63da	; 0x63da <__epilogue_restores__+0x18>

00000692 <__gesf2>:
     692:	a8 e1       	ldi	r26, 0x18	; 24
     694:	b0 e0       	ldi	r27, 0x00	; 0
     696:	ef e4       	ldi	r30, 0x4F	; 79
     698:	f3 e0       	ldi	r31, 0x03	; 3
     69a:	0c 94 d1 31 	jmp	0x63a2	; 0x63a2 <__prologue_saves__+0x18>
     69e:	69 83       	std	Y+1, r22	; 0x01
     6a0:	7a 83       	std	Y+2, r23	; 0x02
     6a2:	8b 83       	std	Y+3, r24	; 0x03
     6a4:	9c 83       	std	Y+4, r25	; 0x04
     6a6:	2d 83       	std	Y+5, r18	; 0x05
     6a8:	3e 83       	std	Y+6, r19	; 0x06
     6aa:	4f 83       	std	Y+7, r20	; 0x07
     6ac:	58 87       	std	Y+8, r21	; 0x08
     6ae:	89 e0       	ldi	r24, 0x09	; 9
     6b0:	e8 2e       	mov	r14, r24
     6b2:	f1 2c       	mov	r15, r1
     6b4:	ec 0e       	add	r14, r28
     6b6:	fd 1e       	adc	r15, r29
     6b8:	ce 01       	movw	r24, r28
     6ba:	01 96       	adiw	r24, 0x01	; 1
     6bc:	b7 01       	movw	r22, r14
     6be:	0e 94 7f 05 	call	0xafe	; 0xafe <__unpack_f>
     6c2:	8e 01       	movw	r16, r28
     6c4:	0f 5e       	subi	r16, 0xEF	; 239
     6c6:	1f 4f       	sbci	r17, 0xFF	; 255
     6c8:	ce 01       	movw	r24, r28
     6ca:	05 96       	adiw	r24, 0x05	; 5
     6cc:	b8 01       	movw	r22, r16
     6ce:	0e 94 7f 05 	call	0xafe	; 0xafe <__unpack_f>
     6d2:	89 85       	ldd	r24, Y+9	; 0x09
     6d4:	82 30       	cpi	r24, 0x02	; 2
     6d6:	40 f0       	brcs	.+16     	; 0x6e8 <__gesf2+0x56>
     6d8:	89 89       	ldd	r24, Y+17	; 0x11
     6da:	82 30       	cpi	r24, 0x02	; 2
     6dc:	28 f0       	brcs	.+10     	; 0x6e8 <__gesf2+0x56>
     6de:	c7 01       	movw	r24, r14
     6e0:	b8 01       	movw	r22, r16
     6e2:	0e 94 f7 05 	call	0xbee	; 0xbee <__fpcmp_parts_f>
     6e6:	01 c0       	rjmp	.+2      	; 0x6ea <__gesf2+0x58>
     6e8:	8f ef       	ldi	r24, 0xFF	; 255
     6ea:	68 96       	adiw	r28, 0x18	; 24
     6ec:	e6 e0       	ldi	r30, 0x06	; 6
     6ee:	0c 94 ed 31 	jmp	0x63da	; 0x63da <__epilogue_restores__+0x18>

000006f2 <__ltsf2>:
     6f2:	a8 e1       	ldi	r26, 0x18	; 24
     6f4:	b0 e0       	ldi	r27, 0x00	; 0
     6f6:	ef e7       	ldi	r30, 0x7F	; 127
     6f8:	f3 e0       	ldi	r31, 0x03	; 3
     6fa:	0c 94 d1 31 	jmp	0x63a2	; 0x63a2 <__prologue_saves__+0x18>
     6fe:	69 83       	std	Y+1, r22	; 0x01
     700:	7a 83       	std	Y+2, r23	; 0x02
     702:	8b 83       	std	Y+3, r24	; 0x03
     704:	9c 83       	std	Y+4, r25	; 0x04
     706:	2d 83       	std	Y+5, r18	; 0x05
     708:	3e 83       	std	Y+6, r19	; 0x06
     70a:	4f 83       	std	Y+7, r20	; 0x07
     70c:	58 87       	std	Y+8, r21	; 0x08
     70e:	89 e0       	ldi	r24, 0x09	; 9
     710:	e8 2e       	mov	r14, r24
     712:	f1 2c       	mov	r15, r1
     714:	ec 0e       	add	r14, r28
     716:	fd 1e       	adc	r15, r29
     718:	ce 01       	movw	r24, r28
     71a:	01 96       	adiw	r24, 0x01	; 1
     71c:	b7 01       	movw	r22, r14
     71e:	0e 94 7f 05 	call	0xafe	; 0xafe <__unpack_f>
     722:	8e 01       	movw	r16, r28
     724:	0f 5e       	subi	r16, 0xEF	; 239
     726:	1f 4f       	sbci	r17, 0xFF	; 255
     728:	ce 01       	movw	r24, r28
     72a:	05 96       	adiw	r24, 0x05	; 5
     72c:	b8 01       	movw	r22, r16
     72e:	0e 94 7f 05 	call	0xafe	; 0xafe <__unpack_f>
     732:	89 85       	ldd	r24, Y+9	; 0x09
     734:	82 30       	cpi	r24, 0x02	; 2
     736:	40 f0       	brcs	.+16     	; 0x748 <__ltsf2+0x56>
     738:	89 89       	ldd	r24, Y+17	; 0x11
     73a:	82 30       	cpi	r24, 0x02	; 2
     73c:	28 f0       	brcs	.+10     	; 0x748 <__ltsf2+0x56>
     73e:	c7 01       	movw	r24, r14
     740:	b8 01       	movw	r22, r16
     742:	0e 94 f7 05 	call	0xbee	; 0xbee <__fpcmp_parts_f>
     746:	01 c0       	rjmp	.+2      	; 0x74a <__ltsf2+0x58>
     748:	81 e0       	ldi	r24, 0x01	; 1
     74a:	68 96       	adiw	r28, 0x18	; 24
     74c:	e6 e0       	ldi	r30, 0x06	; 6
     74e:	0c 94 ed 31 	jmp	0x63da	; 0x63da <__epilogue_restores__+0x18>

00000752 <__floatsisf>:
     752:	a8 e0       	ldi	r26, 0x08	; 8
     754:	b0 e0       	ldi	r27, 0x00	; 0
     756:	ef ea       	ldi	r30, 0xAF	; 175
     758:	f3 e0       	ldi	r31, 0x03	; 3
     75a:	0c 94 ce 31 	jmp	0x639c	; 0x639c <__prologue_saves__+0x12>
     75e:	9b 01       	movw	r18, r22
     760:	ac 01       	movw	r20, r24
     762:	83 e0       	ldi	r24, 0x03	; 3
     764:	89 83       	std	Y+1, r24	; 0x01
     766:	da 01       	movw	r26, r20
     768:	c9 01       	movw	r24, r18
     76a:	88 27       	eor	r24, r24
     76c:	b7 fd       	sbrc	r27, 7
     76e:	83 95       	inc	r24
     770:	99 27       	eor	r25, r25
     772:	aa 27       	eor	r26, r26
     774:	bb 27       	eor	r27, r27
     776:	b8 2e       	mov	r11, r24
     778:	21 15       	cp	r18, r1
     77a:	31 05       	cpc	r19, r1
     77c:	41 05       	cpc	r20, r1
     77e:	51 05       	cpc	r21, r1
     780:	19 f4       	brne	.+6      	; 0x788 <__floatsisf+0x36>
     782:	82 e0       	ldi	r24, 0x02	; 2
     784:	89 83       	std	Y+1, r24	; 0x01
     786:	3a c0       	rjmp	.+116    	; 0x7fc <__floatsisf+0xaa>
     788:	88 23       	and	r24, r24
     78a:	a9 f0       	breq	.+42     	; 0x7b6 <__floatsisf+0x64>
     78c:	20 30       	cpi	r18, 0x00	; 0
     78e:	80 e0       	ldi	r24, 0x00	; 0
     790:	38 07       	cpc	r19, r24
     792:	80 e0       	ldi	r24, 0x00	; 0
     794:	48 07       	cpc	r20, r24
     796:	80 e8       	ldi	r24, 0x80	; 128
     798:	58 07       	cpc	r21, r24
     79a:	29 f4       	brne	.+10     	; 0x7a6 <__floatsisf+0x54>
     79c:	60 e0       	ldi	r22, 0x00	; 0
     79e:	70 e0       	ldi	r23, 0x00	; 0
     7a0:	80 e0       	ldi	r24, 0x00	; 0
     7a2:	9f ec       	ldi	r25, 0xCF	; 207
     7a4:	30 c0       	rjmp	.+96     	; 0x806 <__floatsisf+0xb4>
     7a6:	ee 24       	eor	r14, r14
     7a8:	ff 24       	eor	r15, r15
     7aa:	87 01       	movw	r16, r14
     7ac:	e2 1a       	sub	r14, r18
     7ae:	f3 0a       	sbc	r15, r19
     7b0:	04 0b       	sbc	r16, r20
     7b2:	15 0b       	sbc	r17, r21
     7b4:	02 c0       	rjmp	.+4      	; 0x7ba <__floatsisf+0x68>
     7b6:	79 01       	movw	r14, r18
     7b8:	8a 01       	movw	r16, r20
     7ba:	8e e1       	ldi	r24, 0x1E	; 30
     7bc:	c8 2e       	mov	r12, r24
     7be:	d1 2c       	mov	r13, r1
     7c0:	dc 82       	std	Y+4, r13	; 0x04
     7c2:	cb 82       	std	Y+3, r12	; 0x03
     7c4:	ed 82       	std	Y+5, r14	; 0x05
     7c6:	fe 82       	std	Y+6, r15	; 0x06
     7c8:	0f 83       	std	Y+7, r16	; 0x07
     7ca:	18 87       	std	Y+8, r17	; 0x08
     7cc:	c8 01       	movw	r24, r16
     7ce:	b7 01       	movw	r22, r14
     7d0:	0e 94 5b 04 	call	0x8b6	; 0x8b6 <__clzsi2>
     7d4:	01 97       	sbiw	r24, 0x01	; 1
     7d6:	18 16       	cp	r1, r24
     7d8:	19 06       	cpc	r1, r25
     7da:	84 f4       	brge	.+32     	; 0x7fc <__floatsisf+0xaa>
     7dc:	08 2e       	mov	r0, r24
     7de:	04 c0       	rjmp	.+8      	; 0x7e8 <__floatsisf+0x96>
     7e0:	ee 0c       	add	r14, r14
     7e2:	ff 1c       	adc	r15, r15
     7e4:	00 1f       	adc	r16, r16
     7e6:	11 1f       	adc	r17, r17
     7e8:	0a 94       	dec	r0
     7ea:	d2 f7       	brpl	.-12     	; 0x7e0 <__floatsisf+0x8e>
     7ec:	ed 82       	std	Y+5, r14	; 0x05
     7ee:	fe 82       	std	Y+6, r15	; 0x06
     7f0:	0f 83       	std	Y+7, r16	; 0x07
     7f2:	18 87       	std	Y+8, r17	; 0x08
     7f4:	c8 1a       	sub	r12, r24
     7f6:	d9 0a       	sbc	r13, r25
     7f8:	dc 82       	std	Y+4, r13	; 0x04
     7fa:	cb 82       	std	Y+3, r12	; 0x03
     7fc:	ba 82       	std	Y+2, r11	; 0x02
     7fe:	ce 01       	movw	r24, r28
     800:	01 96       	adiw	r24, 0x01	; 1
     802:	0e 94 aa 04 	call	0x954	; 0x954 <__pack_f>
     806:	28 96       	adiw	r28, 0x08	; 8
     808:	e9 e0       	ldi	r30, 0x09	; 9
     80a:	0c 94 ea 31 	jmp	0x63d4	; 0x63d4 <__epilogue_restores__+0x12>

0000080e <__fixsfsi>:
     80e:	ac e0       	ldi	r26, 0x0C	; 12
     810:	b0 e0       	ldi	r27, 0x00	; 0
     812:	ed e0       	ldi	r30, 0x0D	; 13
     814:	f4 e0       	ldi	r31, 0x04	; 4
     816:	0c 94 d5 31 	jmp	0x63aa	; 0x63aa <__prologue_saves__+0x20>
     81a:	69 83       	std	Y+1, r22	; 0x01
     81c:	7a 83       	std	Y+2, r23	; 0x02
     81e:	8b 83       	std	Y+3, r24	; 0x03
     820:	9c 83       	std	Y+4, r25	; 0x04
     822:	ce 01       	movw	r24, r28
     824:	01 96       	adiw	r24, 0x01	; 1
     826:	be 01       	movw	r22, r28
     828:	6b 5f       	subi	r22, 0xFB	; 251
     82a:	7f 4f       	sbci	r23, 0xFF	; 255
     82c:	0e 94 7f 05 	call	0xafe	; 0xafe <__unpack_f>
     830:	8d 81       	ldd	r24, Y+5	; 0x05
     832:	82 30       	cpi	r24, 0x02	; 2
     834:	61 f1       	breq	.+88     	; 0x88e <__stack+0x2f>
     836:	82 30       	cpi	r24, 0x02	; 2
     838:	50 f1       	brcs	.+84     	; 0x88e <__stack+0x2f>
     83a:	84 30       	cpi	r24, 0x04	; 4
     83c:	21 f4       	brne	.+8      	; 0x846 <__fixsfsi+0x38>
     83e:	8e 81       	ldd	r24, Y+6	; 0x06
     840:	88 23       	and	r24, r24
     842:	51 f1       	breq	.+84     	; 0x898 <__stack+0x39>
     844:	2e c0       	rjmp	.+92     	; 0x8a2 <__stack+0x43>
     846:	2f 81       	ldd	r18, Y+7	; 0x07
     848:	38 85       	ldd	r19, Y+8	; 0x08
     84a:	37 fd       	sbrc	r19, 7
     84c:	20 c0       	rjmp	.+64     	; 0x88e <__stack+0x2f>
     84e:	6e 81       	ldd	r22, Y+6	; 0x06
     850:	2f 31       	cpi	r18, 0x1F	; 31
     852:	31 05       	cpc	r19, r1
     854:	1c f0       	brlt	.+6      	; 0x85c <__fixsfsi+0x4e>
     856:	66 23       	and	r22, r22
     858:	f9 f0       	breq	.+62     	; 0x898 <__stack+0x39>
     85a:	23 c0       	rjmp	.+70     	; 0x8a2 <__stack+0x43>
     85c:	8e e1       	ldi	r24, 0x1E	; 30
     85e:	90 e0       	ldi	r25, 0x00	; 0
     860:	82 1b       	sub	r24, r18
     862:	93 0b       	sbc	r25, r19
     864:	29 85       	ldd	r18, Y+9	; 0x09
     866:	3a 85       	ldd	r19, Y+10	; 0x0a
     868:	4b 85       	ldd	r20, Y+11	; 0x0b
     86a:	5c 85       	ldd	r21, Y+12	; 0x0c
     86c:	04 c0       	rjmp	.+8      	; 0x876 <__stack+0x17>
     86e:	56 95       	lsr	r21
     870:	47 95       	ror	r20
     872:	37 95       	ror	r19
     874:	27 95       	ror	r18
     876:	8a 95       	dec	r24
     878:	d2 f7       	brpl	.-12     	; 0x86e <__stack+0xf>
     87a:	66 23       	and	r22, r22
     87c:	b1 f0       	breq	.+44     	; 0x8aa <__stack+0x4b>
     87e:	50 95       	com	r21
     880:	40 95       	com	r20
     882:	30 95       	com	r19
     884:	21 95       	neg	r18
     886:	3f 4f       	sbci	r19, 0xFF	; 255
     888:	4f 4f       	sbci	r20, 0xFF	; 255
     88a:	5f 4f       	sbci	r21, 0xFF	; 255
     88c:	0e c0       	rjmp	.+28     	; 0x8aa <__stack+0x4b>
     88e:	20 e0       	ldi	r18, 0x00	; 0
     890:	30 e0       	ldi	r19, 0x00	; 0
     892:	40 e0       	ldi	r20, 0x00	; 0
     894:	50 e0       	ldi	r21, 0x00	; 0
     896:	09 c0       	rjmp	.+18     	; 0x8aa <__stack+0x4b>
     898:	2f ef       	ldi	r18, 0xFF	; 255
     89a:	3f ef       	ldi	r19, 0xFF	; 255
     89c:	4f ef       	ldi	r20, 0xFF	; 255
     89e:	5f e7       	ldi	r21, 0x7F	; 127
     8a0:	04 c0       	rjmp	.+8      	; 0x8aa <__stack+0x4b>
     8a2:	20 e0       	ldi	r18, 0x00	; 0
     8a4:	30 e0       	ldi	r19, 0x00	; 0
     8a6:	40 e0       	ldi	r20, 0x00	; 0
     8a8:	50 e8       	ldi	r21, 0x80	; 128
     8aa:	b9 01       	movw	r22, r18
     8ac:	ca 01       	movw	r24, r20
     8ae:	2c 96       	adiw	r28, 0x0c	; 12
     8b0:	e2 e0       	ldi	r30, 0x02	; 2
     8b2:	0c 94 f1 31 	jmp	0x63e2	; 0x63e2 <__epilogue_restores__+0x20>

000008b6 <__clzsi2>:
     8b6:	ef 92       	push	r14
     8b8:	ff 92       	push	r15
     8ba:	0f 93       	push	r16
     8bc:	1f 93       	push	r17
     8be:	7b 01       	movw	r14, r22
     8c0:	8c 01       	movw	r16, r24
     8c2:	80 e0       	ldi	r24, 0x00	; 0
     8c4:	e8 16       	cp	r14, r24
     8c6:	80 e0       	ldi	r24, 0x00	; 0
     8c8:	f8 06       	cpc	r15, r24
     8ca:	81 e0       	ldi	r24, 0x01	; 1
     8cc:	08 07       	cpc	r16, r24
     8ce:	80 e0       	ldi	r24, 0x00	; 0
     8d0:	18 07       	cpc	r17, r24
     8d2:	88 f4       	brcc	.+34     	; 0x8f6 <__clzsi2+0x40>
     8d4:	8f ef       	ldi	r24, 0xFF	; 255
     8d6:	e8 16       	cp	r14, r24
     8d8:	f1 04       	cpc	r15, r1
     8da:	01 05       	cpc	r16, r1
     8dc:	11 05       	cpc	r17, r1
     8de:	31 f0       	breq	.+12     	; 0x8ec <__clzsi2+0x36>
     8e0:	28 f0       	brcs	.+10     	; 0x8ec <__clzsi2+0x36>
     8e2:	88 e0       	ldi	r24, 0x08	; 8
     8e4:	90 e0       	ldi	r25, 0x00	; 0
     8e6:	a0 e0       	ldi	r26, 0x00	; 0
     8e8:	b0 e0       	ldi	r27, 0x00	; 0
     8ea:	17 c0       	rjmp	.+46     	; 0x91a <__clzsi2+0x64>
     8ec:	80 e0       	ldi	r24, 0x00	; 0
     8ee:	90 e0       	ldi	r25, 0x00	; 0
     8f0:	a0 e0       	ldi	r26, 0x00	; 0
     8f2:	b0 e0       	ldi	r27, 0x00	; 0
     8f4:	12 c0       	rjmp	.+36     	; 0x91a <__clzsi2+0x64>
     8f6:	80 e0       	ldi	r24, 0x00	; 0
     8f8:	e8 16       	cp	r14, r24
     8fa:	80 e0       	ldi	r24, 0x00	; 0
     8fc:	f8 06       	cpc	r15, r24
     8fe:	80 e0       	ldi	r24, 0x00	; 0
     900:	08 07       	cpc	r16, r24
     902:	81 e0       	ldi	r24, 0x01	; 1
     904:	18 07       	cpc	r17, r24
     906:	28 f0       	brcs	.+10     	; 0x912 <__clzsi2+0x5c>
     908:	88 e1       	ldi	r24, 0x18	; 24
     90a:	90 e0       	ldi	r25, 0x00	; 0
     90c:	a0 e0       	ldi	r26, 0x00	; 0
     90e:	b0 e0       	ldi	r27, 0x00	; 0
     910:	04 c0       	rjmp	.+8      	; 0x91a <__clzsi2+0x64>
     912:	80 e1       	ldi	r24, 0x10	; 16
     914:	90 e0       	ldi	r25, 0x00	; 0
     916:	a0 e0       	ldi	r26, 0x00	; 0
     918:	b0 e0       	ldi	r27, 0x00	; 0
     91a:	20 e2       	ldi	r18, 0x20	; 32
     91c:	30 e0       	ldi	r19, 0x00	; 0
     91e:	40 e0       	ldi	r20, 0x00	; 0
     920:	50 e0       	ldi	r21, 0x00	; 0
     922:	28 1b       	sub	r18, r24
     924:	39 0b       	sbc	r19, r25
     926:	4a 0b       	sbc	r20, r26
     928:	5b 0b       	sbc	r21, r27
     92a:	04 c0       	rjmp	.+8      	; 0x934 <__clzsi2+0x7e>
     92c:	16 95       	lsr	r17
     92e:	07 95       	ror	r16
     930:	f7 94       	ror	r15
     932:	e7 94       	ror	r14
     934:	8a 95       	dec	r24
     936:	d2 f7       	brpl	.-12     	; 0x92c <__clzsi2+0x76>
     938:	f7 01       	movw	r30, r14
     93a:	e8 59       	subi	r30, 0x98	; 152
     93c:	ff 4f       	sbci	r31, 0xFF	; 255
     93e:	80 81       	ld	r24, Z
     940:	28 1b       	sub	r18, r24
     942:	31 09       	sbc	r19, r1
     944:	41 09       	sbc	r20, r1
     946:	51 09       	sbc	r21, r1
     948:	c9 01       	movw	r24, r18
     94a:	1f 91       	pop	r17
     94c:	0f 91       	pop	r16
     94e:	ff 90       	pop	r15
     950:	ef 90       	pop	r14
     952:	08 95       	ret

00000954 <__pack_f>:
     954:	df 92       	push	r13
     956:	ef 92       	push	r14
     958:	ff 92       	push	r15
     95a:	0f 93       	push	r16
     95c:	1f 93       	push	r17
     95e:	fc 01       	movw	r30, r24
     960:	e4 80       	ldd	r14, Z+4	; 0x04
     962:	f5 80       	ldd	r15, Z+5	; 0x05
     964:	06 81       	ldd	r16, Z+6	; 0x06
     966:	17 81       	ldd	r17, Z+7	; 0x07
     968:	d1 80       	ldd	r13, Z+1	; 0x01
     96a:	80 81       	ld	r24, Z
     96c:	82 30       	cpi	r24, 0x02	; 2
     96e:	48 f4       	brcc	.+18     	; 0x982 <__pack_f+0x2e>
     970:	80 e0       	ldi	r24, 0x00	; 0
     972:	90 e0       	ldi	r25, 0x00	; 0
     974:	a0 e1       	ldi	r26, 0x10	; 16
     976:	b0 e0       	ldi	r27, 0x00	; 0
     978:	e8 2a       	or	r14, r24
     97a:	f9 2a       	or	r15, r25
     97c:	0a 2b       	or	r16, r26
     97e:	1b 2b       	or	r17, r27
     980:	a5 c0       	rjmp	.+330    	; 0xacc <__pack_f+0x178>
     982:	84 30       	cpi	r24, 0x04	; 4
     984:	09 f4       	brne	.+2      	; 0x988 <__pack_f+0x34>
     986:	9f c0       	rjmp	.+318    	; 0xac6 <__pack_f+0x172>
     988:	82 30       	cpi	r24, 0x02	; 2
     98a:	21 f4       	brne	.+8      	; 0x994 <__pack_f+0x40>
     98c:	ee 24       	eor	r14, r14
     98e:	ff 24       	eor	r15, r15
     990:	87 01       	movw	r16, r14
     992:	05 c0       	rjmp	.+10     	; 0x99e <__pack_f+0x4a>
     994:	e1 14       	cp	r14, r1
     996:	f1 04       	cpc	r15, r1
     998:	01 05       	cpc	r16, r1
     99a:	11 05       	cpc	r17, r1
     99c:	19 f4       	brne	.+6      	; 0x9a4 <__pack_f+0x50>
     99e:	e0 e0       	ldi	r30, 0x00	; 0
     9a0:	f0 e0       	ldi	r31, 0x00	; 0
     9a2:	96 c0       	rjmp	.+300    	; 0xad0 <__pack_f+0x17c>
     9a4:	62 81       	ldd	r22, Z+2	; 0x02
     9a6:	73 81       	ldd	r23, Z+3	; 0x03
     9a8:	9f ef       	ldi	r25, 0xFF	; 255
     9aa:	62 38       	cpi	r22, 0x82	; 130
     9ac:	79 07       	cpc	r23, r25
     9ae:	0c f0       	brlt	.+2      	; 0x9b2 <__pack_f+0x5e>
     9b0:	5b c0       	rjmp	.+182    	; 0xa68 <__pack_f+0x114>
     9b2:	22 e8       	ldi	r18, 0x82	; 130
     9b4:	3f ef       	ldi	r19, 0xFF	; 255
     9b6:	26 1b       	sub	r18, r22
     9b8:	37 0b       	sbc	r19, r23
     9ba:	2a 31       	cpi	r18, 0x1A	; 26
     9bc:	31 05       	cpc	r19, r1
     9be:	2c f0       	brlt	.+10     	; 0x9ca <__pack_f+0x76>
     9c0:	20 e0       	ldi	r18, 0x00	; 0
     9c2:	30 e0       	ldi	r19, 0x00	; 0
     9c4:	40 e0       	ldi	r20, 0x00	; 0
     9c6:	50 e0       	ldi	r21, 0x00	; 0
     9c8:	2a c0       	rjmp	.+84     	; 0xa1e <__pack_f+0xca>
     9ca:	b8 01       	movw	r22, r16
     9cc:	a7 01       	movw	r20, r14
     9ce:	02 2e       	mov	r0, r18
     9d0:	04 c0       	rjmp	.+8      	; 0x9da <__pack_f+0x86>
     9d2:	76 95       	lsr	r23
     9d4:	67 95       	ror	r22
     9d6:	57 95       	ror	r21
     9d8:	47 95       	ror	r20
     9da:	0a 94       	dec	r0
     9dc:	d2 f7       	brpl	.-12     	; 0x9d2 <__pack_f+0x7e>
     9de:	81 e0       	ldi	r24, 0x01	; 1
     9e0:	90 e0       	ldi	r25, 0x00	; 0
     9e2:	a0 e0       	ldi	r26, 0x00	; 0
     9e4:	b0 e0       	ldi	r27, 0x00	; 0
     9e6:	04 c0       	rjmp	.+8      	; 0x9f0 <__pack_f+0x9c>
     9e8:	88 0f       	add	r24, r24
     9ea:	99 1f       	adc	r25, r25
     9ec:	aa 1f       	adc	r26, r26
     9ee:	bb 1f       	adc	r27, r27
     9f0:	2a 95       	dec	r18
     9f2:	d2 f7       	brpl	.-12     	; 0x9e8 <__pack_f+0x94>
     9f4:	01 97       	sbiw	r24, 0x01	; 1
     9f6:	a1 09       	sbc	r26, r1
     9f8:	b1 09       	sbc	r27, r1
     9fa:	8e 21       	and	r24, r14
     9fc:	9f 21       	and	r25, r15
     9fe:	a0 23       	and	r26, r16
     a00:	b1 23       	and	r27, r17
     a02:	00 97       	sbiw	r24, 0x00	; 0
     a04:	a1 05       	cpc	r26, r1
     a06:	b1 05       	cpc	r27, r1
     a08:	21 f0       	breq	.+8      	; 0xa12 <__pack_f+0xbe>
     a0a:	81 e0       	ldi	r24, 0x01	; 1
     a0c:	90 e0       	ldi	r25, 0x00	; 0
     a0e:	a0 e0       	ldi	r26, 0x00	; 0
     a10:	b0 e0       	ldi	r27, 0x00	; 0
     a12:	9a 01       	movw	r18, r20
     a14:	ab 01       	movw	r20, r22
     a16:	28 2b       	or	r18, r24
     a18:	39 2b       	or	r19, r25
     a1a:	4a 2b       	or	r20, r26
     a1c:	5b 2b       	or	r21, r27
     a1e:	da 01       	movw	r26, r20
     a20:	c9 01       	movw	r24, r18
     a22:	8f 77       	andi	r24, 0x7F	; 127
     a24:	90 70       	andi	r25, 0x00	; 0
     a26:	a0 70       	andi	r26, 0x00	; 0
     a28:	b0 70       	andi	r27, 0x00	; 0
     a2a:	80 34       	cpi	r24, 0x40	; 64
     a2c:	91 05       	cpc	r25, r1
     a2e:	a1 05       	cpc	r26, r1
     a30:	b1 05       	cpc	r27, r1
     a32:	39 f4       	brne	.+14     	; 0xa42 <__pack_f+0xee>
     a34:	27 ff       	sbrs	r18, 7
     a36:	09 c0       	rjmp	.+18     	; 0xa4a <__pack_f+0xf6>
     a38:	20 5c       	subi	r18, 0xC0	; 192
     a3a:	3f 4f       	sbci	r19, 0xFF	; 255
     a3c:	4f 4f       	sbci	r20, 0xFF	; 255
     a3e:	5f 4f       	sbci	r21, 0xFF	; 255
     a40:	04 c0       	rjmp	.+8      	; 0xa4a <__pack_f+0xf6>
     a42:	21 5c       	subi	r18, 0xC1	; 193
     a44:	3f 4f       	sbci	r19, 0xFF	; 255
     a46:	4f 4f       	sbci	r20, 0xFF	; 255
     a48:	5f 4f       	sbci	r21, 0xFF	; 255
     a4a:	e0 e0       	ldi	r30, 0x00	; 0
     a4c:	f0 e0       	ldi	r31, 0x00	; 0
     a4e:	20 30       	cpi	r18, 0x00	; 0
     a50:	a0 e0       	ldi	r26, 0x00	; 0
     a52:	3a 07       	cpc	r19, r26
     a54:	a0 e0       	ldi	r26, 0x00	; 0
     a56:	4a 07       	cpc	r20, r26
     a58:	a0 e4       	ldi	r26, 0x40	; 64
     a5a:	5a 07       	cpc	r21, r26
     a5c:	10 f0       	brcs	.+4      	; 0xa62 <__pack_f+0x10e>
     a5e:	e1 e0       	ldi	r30, 0x01	; 1
     a60:	f0 e0       	ldi	r31, 0x00	; 0
     a62:	79 01       	movw	r14, r18
     a64:	8a 01       	movw	r16, r20
     a66:	27 c0       	rjmp	.+78     	; 0xab6 <__pack_f+0x162>
     a68:	60 38       	cpi	r22, 0x80	; 128
     a6a:	71 05       	cpc	r23, r1
     a6c:	64 f5       	brge	.+88     	; 0xac6 <__pack_f+0x172>
     a6e:	fb 01       	movw	r30, r22
     a70:	e1 58       	subi	r30, 0x81	; 129
     a72:	ff 4f       	sbci	r31, 0xFF	; 255
     a74:	d8 01       	movw	r26, r16
     a76:	c7 01       	movw	r24, r14
     a78:	8f 77       	andi	r24, 0x7F	; 127
     a7a:	90 70       	andi	r25, 0x00	; 0
     a7c:	a0 70       	andi	r26, 0x00	; 0
     a7e:	b0 70       	andi	r27, 0x00	; 0
     a80:	80 34       	cpi	r24, 0x40	; 64
     a82:	91 05       	cpc	r25, r1
     a84:	a1 05       	cpc	r26, r1
     a86:	b1 05       	cpc	r27, r1
     a88:	39 f4       	brne	.+14     	; 0xa98 <__pack_f+0x144>
     a8a:	e7 fe       	sbrs	r14, 7
     a8c:	0d c0       	rjmp	.+26     	; 0xaa8 <__pack_f+0x154>
     a8e:	80 e4       	ldi	r24, 0x40	; 64
     a90:	90 e0       	ldi	r25, 0x00	; 0
     a92:	a0 e0       	ldi	r26, 0x00	; 0
     a94:	b0 e0       	ldi	r27, 0x00	; 0
     a96:	04 c0       	rjmp	.+8      	; 0xaa0 <__pack_f+0x14c>
     a98:	8f e3       	ldi	r24, 0x3F	; 63
     a9a:	90 e0       	ldi	r25, 0x00	; 0
     a9c:	a0 e0       	ldi	r26, 0x00	; 0
     a9e:	b0 e0       	ldi	r27, 0x00	; 0
     aa0:	e8 0e       	add	r14, r24
     aa2:	f9 1e       	adc	r15, r25
     aa4:	0a 1f       	adc	r16, r26
     aa6:	1b 1f       	adc	r17, r27
     aa8:	17 ff       	sbrs	r17, 7
     aaa:	05 c0       	rjmp	.+10     	; 0xab6 <__pack_f+0x162>
     aac:	16 95       	lsr	r17
     aae:	07 95       	ror	r16
     ab0:	f7 94       	ror	r15
     ab2:	e7 94       	ror	r14
     ab4:	31 96       	adiw	r30, 0x01	; 1
     ab6:	87 e0       	ldi	r24, 0x07	; 7
     ab8:	16 95       	lsr	r17
     aba:	07 95       	ror	r16
     abc:	f7 94       	ror	r15
     abe:	e7 94       	ror	r14
     ac0:	8a 95       	dec	r24
     ac2:	d1 f7       	brne	.-12     	; 0xab8 <__pack_f+0x164>
     ac4:	05 c0       	rjmp	.+10     	; 0xad0 <__pack_f+0x17c>
     ac6:	ee 24       	eor	r14, r14
     ac8:	ff 24       	eor	r15, r15
     aca:	87 01       	movw	r16, r14
     acc:	ef ef       	ldi	r30, 0xFF	; 255
     ace:	f0 e0       	ldi	r31, 0x00	; 0
     ad0:	6e 2f       	mov	r22, r30
     ad2:	67 95       	ror	r22
     ad4:	66 27       	eor	r22, r22
     ad6:	67 95       	ror	r22
     ad8:	90 2f       	mov	r25, r16
     ada:	9f 77       	andi	r25, 0x7F	; 127
     adc:	d7 94       	ror	r13
     ade:	dd 24       	eor	r13, r13
     ae0:	d7 94       	ror	r13
     ae2:	8e 2f       	mov	r24, r30
     ae4:	86 95       	lsr	r24
     ae6:	49 2f       	mov	r20, r25
     ae8:	46 2b       	or	r20, r22
     aea:	58 2f       	mov	r21, r24
     aec:	5d 29       	or	r21, r13
     aee:	b7 01       	movw	r22, r14
     af0:	ca 01       	movw	r24, r20
     af2:	1f 91       	pop	r17
     af4:	0f 91       	pop	r16
     af6:	ff 90       	pop	r15
     af8:	ef 90       	pop	r14
     afa:	df 90       	pop	r13
     afc:	08 95       	ret

00000afe <__unpack_f>:
     afe:	fc 01       	movw	r30, r24
     b00:	db 01       	movw	r26, r22
     b02:	40 81       	ld	r20, Z
     b04:	51 81       	ldd	r21, Z+1	; 0x01
     b06:	22 81       	ldd	r18, Z+2	; 0x02
     b08:	62 2f       	mov	r22, r18
     b0a:	6f 77       	andi	r22, 0x7F	; 127
     b0c:	70 e0       	ldi	r23, 0x00	; 0
     b0e:	22 1f       	adc	r18, r18
     b10:	22 27       	eor	r18, r18
     b12:	22 1f       	adc	r18, r18
     b14:	93 81       	ldd	r25, Z+3	; 0x03
     b16:	89 2f       	mov	r24, r25
     b18:	88 0f       	add	r24, r24
     b1a:	82 2b       	or	r24, r18
     b1c:	28 2f       	mov	r18, r24
     b1e:	30 e0       	ldi	r19, 0x00	; 0
     b20:	99 1f       	adc	r25, r25
     b22:	99 27       	eor	r25, r25
     b24:	99 1f       	adc	r25, r25
     b26:	11 96       	adiw	r26, 0x01	; 1
     b28:	9c 93       	st	X, r25
     b2a:	11 97       	sbiw	r26, 0x01	; 1
     b2c:	21 15       	cp	r18, r1
     b2e:	31 05       	cpc	r19, r1
     b30:	a9 f5       	brne	.+106    	; 0xb9c <__unpack_f+0x9e>
     b32:	41 15       	cp	r20, r1
     b34:	51 05       	cpc	r21, r1
     b36:	61 05       	cpc	r22, r1
     b38:	71 05       	cpc	r23, r1
     b3a:	11 f4       	brne	.+4      	; 0xb40 <__unpack_f+0x42>
     b3c:	82 e0       	ldi	r24, 0x02	; 2
     b3e:	37 c0       	rjmp	.+110    	; 0xbae <__unpack_f+0xb0>
     b40:	82 e8       	ldi	r24, 0x82	; 130
     b42:	9f ef       	ldi	r25, 0xFF	; 255
     b44:	13 96       	adiw	r26, 0x03	; 3
     b46:	9c 93       	st	X, r25
     b48:	8e 93       	st	-X, r24
     b4a:	12 97       	sbiw	r26, 0x02	; 2
     b4c:	9a 01       	movw	r18, r20
     b4e:	ab 01       	movw	r20, r22
     b50:	67 e0       	ldi	r22, 0x07	; 7
     b52:	22 0f       	add	r18, r18
     b54:	33 1f       	adc	r19, r19
     b56:	44 1f       	adc	r20, r20
     b58:	55 1f       	adc	r21, r21
     b5a:	6a 95       	dec	r22
     b5c:	d1 f7       	brne	.-12     	; 0xb52 <__unpack_f+0x54>
     b5e:	83 e0       	ldi	r24, 0x03	; 3
     b60:	8c 93       	st	X, r24
     b62:	0d c0       	rjmp	.+26     	; 0xb7e <__unpack_f+0x80>
     b64:	22 0f       	add	r18, r18
     b66:	33 1f       	adc	r19, r19
     b68:	44 1f       	adc	r20, r20
     b6a:	55 1f       	adc	r21, r21
     b6c:	12 96       	adiw	r26, 0x02	; 2
     b6e:	8d 91       	ld	r24, X+
     b70:	9c 91       	ld	r25, X
     b72:	13 97       	sbiw	r26, 0x03	; 3
     b74:	01 97       	sbiw	r24, 0x01	; 1
     b76:	13 96       	adiw	r26, 0x03	; 3
     b78:	9c 93       	st	X, r25
     b7a:	8e 93       	st	-X, r24
     b7c:	12 97       	sbiw	r26, 0x02	; 2
     b7e:	20 30       	cpi	r18, 0x00	; 0
     b80:	80 e0       	ldi	r24, 0x00	; 0
     b82:	38 07       	cpc	r19, r24
     b84:	80 e0       	ldi	r24, 0x00	; 0
     b86:	48 07       	cpc	r20, r24
     b88:	80 e4       	ldi	r24, 0x40	; 64
     b8a:	58 07       	cpc	r21, r24
     b8c:	58 f3       	brcs	.-42     	; 0xb64 <__unpack_f+0x66>
     b8e:	14 96       	adiw	r26, 0x04	; 4
     b90:	2d 93       	st	X+, r18
     b92:	3d 93       	st	X+, r19
     b94:	4d 93       	st	X+, r20
     b96:	5c 93       	st	X, r21
     b98:	17 97       	sbiw	r26, 0x07	; 7
     b9a:	08 95       	ret
     b9c:	2f 3f       	cpi	r18, 0xFF	; 255
     b9e:	31 05       	cpc	r19, r1
     ba0:	79 f4       	brne	.+30     	; 0xbc0 <__unpack_f+0xc2>
     ba2:	41 15       	cp	r20, r1
     ba4:	51 05       	cpc	r21, r1
     ba6:	61 05       	cpc	r22, r1
     ba8:	71 05       	cpc	r23, r1
     baa:	19 f4       	brne	.+6      	; 0xbb2 <__unpack_f+0xb4>
     bac:	84 e0       	ldi	r24, 0x04	; 4
     bae:	8c 93       	st	X, r24
     bb0:	08 95       	ret
     bb2:	64 ff       	sbrs	r22, 4
     bb4:	03 c0       	rjmp	.+6      	; 0xbbc <__unpack_f+0xbe>
     bb6:	81 e0       	ldi	r24, 0x01	; 1
     bb8:	8c 93       	st	X, r24
     bba:	12 c0       	rjmp	.+36     	; 0xbe0 <__unpack_f+0xe2>
     bbc:	1c 92       	st	X, r1
     bbe:	10 c0       	rjmp	.+32     	; 0xbe0 <__unpack_f+0xe2>
     bc0:	2f 57       	subi	r18, 0x7F	; 127
     bc2:	30 40       	sbci	r19, 0x00	; 0
     bc4:	13 96       	adiw	r26, 0x03	; 3
     bc6:	3c 93       	st	X, r19
     bc8:	2e 93       	st	-X, r18
     bca:	12 97       	sbiw	r26, 0x02	; 2
     bcc:	83 e0       	ldi	r24, 0x03	; 3
     bce:	8c 93       	st	X, r24
     bd0:	87 e0       	ldi	r24, 0x07	; 7
     bd2:	44 0f       	add	r20, r20
     bd4:	55 1f       	adc	r21, r21
     bd6:	66 1f       	adc	r22, r22
     bd8:	77 1f       	adc	r23, r23
     bda:	8a 95       	dec	r24
     bdc:	d1 f7       	brne	.-12     	; 0xbd2 <__unpack_f+0xd4>
     bde:	70 64       	ori	r23, 0x40	; 64
     be0:	14 96       	adiw	r26, 0x04	; 4
     be2:	4d 93       	st	X+, r20
     be4:	5d 93       	st	X+, r21
     be6:	6d 93       	st	X+, r22
     be8:	7c 93       	st	X, r23
     bea:	17 97       	sbiw	r26, 0x07	; 7
     bec:	08 95       	ret

00000bee <__fpcmp_parts_f>:
     bee:	1f 93       	push	r17
     bf0:	dc 01       	movw	r26, r24
     bf2:	fb 01       	movw	r30, r22
     bf4:	9c 91       	ld	r25, X
     bf6:	92 30       	cpi	r25, 0x02	; 2
     bf8:	08 f4       	brcc	.+2      	; 0xbfc <__fpcmp_parts_f+0xe>
     bfa:	47 c0       	rjmp	.+142    	; 0xc8a <__fpcmp_parts_f+0x9c>
     bfc:	80 81       	ld	r24, Z
     bfe:	82 30       	cpi	r24, 0x02	; 2
     c00:	08 f4       	brcc	.+2      	; 0xc04 <__fpcmp_parts_f+0x16>
     c02:	43 c0       	rjmp	.+134    	; 0xc8a <__fpcmp_parts_f+0x9c>
     c04:	94 30       	cpi	r25, 0x04	; 4
     c06:	51 f4       	brne	.+20     	; 0xc1c <__fpcmp_parts_f+0x2e>
     c08:	11 96       	adiw	r26, 0x01	; 1
     c0a:	1c 91       	ld	r17, X
     c0c:	84 30       	cpi	r24, 0x04	; 4
     c0e:	99 f5       	brne	.+102    	; 0xc76 <__fpcmp_parts_f+0x88>
     c10:	81 81       	ldd	r24, Z+1	; 0x01
     c12:	68 2f       	mov	r22, r24
     c14:	70 e0       	ldi	r23, 0x00	; 0
     c16:	61 1b       	sub	r22, r17
     c18:	71 09       	sbc	r23, r1
     c1a:	3f c0       	rjmp	.+126    	; 0xc9a <__fpcmp_parts_f+0xac>
     c1c:	84 30       	cpi	r24, 0x04	; 4
     c1e:	21 f0       	breq	.+8      	; 0xc28 <__fpcmp_parts_f+0x3a>
     c20:	92 30       	cpi	r25, 0x02	; 2
     c22:	31 f4       	brne	.+12     	; 0xc30 <__fpcmp_parts_f+0x42>
     c24:	82 30       	cpi	r24, 0x02	; 2
     c26:	b9 f1       	breq	.+110    	; 0xc96 <__fpcmp_parts_f+0xa8>
     c28:	81 81       	ldd	r24, Z+1	; 0x01
     c2a:	88 23       	and	r24, r24
     c2c:	89 f1       	breq	.+98     	; 0xc90 <__fpcmp_parts_f+0xa2>
     c2e:	2d c0       	rjmp	.+90     	; 0xc8a <__fpcmp_parts_f+0x9c>
     c30:	11 96       	adiw	r26, 0x01	; 1
     c32:	1c 91       	ld	r17, X
     c34:	11 97       	sbiw	r26, 0x01	; 1
     c36:	82 30       	cpi	r24, 0x02	; 2
     c38:	f1 f0       	breq	.+60     	; 0xc76 <__fpcmp_parts_f+0x88>
     c3a:	81 81       	ldd	r24, Z+1	; 0x01
     c3c:	18 17       	cp	r17, r24
     c3e:	d9 f4       	brne	.+54     	; 0xc76 <__fpcmp_parts_f+0x88>
     c40:	12 96       	adiw	r26, 0x02	; 2
     c42:	2d 91       	ld	r18, X+
     c44:	3c 91       	ld	r19, X
     c46:	13 97       	sbiw	r26, 0x03	; 3
     c48:	82 81       	ldd	r24, Z+2	; 0x02
     c4a:	93 81       	ldd	r25, Z+3	; 0x03
     c4c:	82 17       	cp	r24, r18
     c4e:	93 07       	cpc	r25, r19
     c50:	94 f0       	brlt	.+36     	; 0xc76 <__fpcmp_parts_f+0x88>
     c52:	28 17       	cp	r18, r24
     c54:	39 07       	cpc	r19, r25
     c56:	bc f0       	brlt	.+46     	; 0xc86 <__fpcmp_parts_f+0x98>
     c58:	14 96       	adiw	r26, 0x04	; 4
     c5a:	8d 91       	ld	r24, X+
     c5c:	9d 91       	ld	r25, X+
     c5e:	0d 90       	ld	r0, X+
     c60:	bc 91       	ld	r27, X
     c62:	a0 2d       	mov	r26, r0
     c64:	24 81       	ldd	r18, Z+4	; 0x04
     c66:	35 81       	ldd	r19, Z+5	; 0x05
     c68:	46 81       	ldd	r20, Z+6	; 0x06
     c6a:	57 81       	ldd	r21, Z+7	; 0x07
     c6c:	28 17       	cp	r18, r24
     c6e:	39 07       	cpc	r19, r25
     c70:	4a 07       	cpc	r20, r26
     c72:	5b 07       	cpc	r21, r27
     c74:	18 f4       	brcc	.+6      	; 0xc7c <__fpcmp_parts_f+0x8e>
     c76:	11 23       	and	r17, r17
     c78:	41 f0       	breq	.+16     	; 0xc8a <__fpcmp_parts_f+0x9c>
     c7a:	0a c0       	rjmp	.+20     	; 0xc90 <__fpcmp_parts_f+0xa2>
     c7c:	82 17       	cp	r24, r18
     c7e:	93 07       	cpc	r25, r19
     c80:	a4 07       	cpc	r26, r20
     c82:	b5 07       	cpc	r27, r21
     c84:	40 f4       	brcc	.+16     	; 0xc96 <__fpcmp_parts_f+0xa8>
     c86:	11 23       	and	r17, r17
     c88:	19 f0       	breq	.+6      	; 0xc90 <__fpcmp_parts_f+0xa2>
     c8a:	61 e0       	ldi	r22, 0x01	; 1
     c8c:	70 e0       	ldi	r23, 0x00	; 0
     c8e:	05 c0       	rjmp	.+10     	; 0xc9a <__fpcmp_parts_f+0xac>
     c90:	6f ef       	ldi	r22, 0xFF	; 255
     c92:	7f ef       	ldi	r23, 0xFF	; 255
     c94:	02 c0       	rjmp	.+4      	; 0xc9a <__fpcmp_parts_f+0xac>
     c96:	60 e0       	ldi	r22, 0x00	; 0
     c98:	70 e0       	ldi	r23, 0x00	; 0
     c9a:	cb 01       	movw	r24, r22
     c9c:	1f 91       	pop	r17
     c9e:	08 95       	ret

00000ca0 <WDT_voidEnable>:

#include "WDT_Config.h"
#include "WDT_Private.h"


void WDT_voidEnable(void){
     ca0:	df 93       	push	r29
     ca2:	cf 93       	push	r28
     ca4:	cd b7       	in	r28, 0x3d	; 61
     ca6:	de b7       	in	r29, 0x3e	; 62
	SET_BIT(WDT_u8_WDTCR_REG, WDT_Enable_Pin);
     ca8:	a1 e4       	ldi	r26, 0x41	; 65
     caa:	b0 e0       	ldi	r27, 0x00	; 0
     cac:	e1 e4       	ldi	r30, 0x41	; 65
     cae:	f0 e0       	ldi	r31, 0x00	; 0
     cb0:	80 81       	ld	r24, Z
     cb2:	88 60       	ori	r24, 0x08	; 8
     cb4:	8c 93       	st	X, r24
	
	/* Select Prescaler */
	SET_BIT(WDT_u8_WDTCR_REG, WDT_WDP0_Pin);
     cb6:	a1 e4       	ldi	r26, 0x41	; 65
     cb8:	b0 e0       	ldi	r27, 0x00	; 0
     cba:	e1 e4       	ldi	r30, 0x41	; 65
     cbc:	f0 e0       	ldi	r31, 0x00	; 0
     cbe:	80 81       	ld	r24, Z
     cc0:	81 60       	ori	r24, 0x01	; 1
     cc2:	8c 93       	st	X, r24
	SET_BIT(WDT_u8_WDTCR_REG, WDT_WDP1_Pin);
     cc4:	a1 e4       	ldi	r26, 0x41	; 65
     cc6:	b0 e0       	ldi	r27, 0x00	; 0
     cc8:	e1 e4       	ldi	r30, 0x41	; 65
     cca:	f0 e0       	ldi	r31, 0x00	; 0
     ccc:	80 81       	ld	r24, Z
     cce:	82 60       	ori	r24, 0x02	; 2
     cd0:	8c 93       	st	X, r24
	SET_BIT(WDT_u8_WDTCR_REG, WDT_WDP2_Pin);
     cd2:	a1 e4       	ldi	r26, 0x41	; 65
     cd4:	b0 e0       	ldi	r27, 0x00	; 0
     cd6:	e1 e4       	ldi	r30, 0x41	; 65
     cd8:	f0 e0       	ldi	r31, 0x00	; 0
     cda:	80 81       	ld	r24, Z
     cdc:	84 60       	ori	r24, 0x04	; 4
     cde:	8c 93       	st	X, r24
}
     ce0:	cf 91       	pop	r28
     ce2:	df 91       	pop	r29
     ce4:	08 95       	ret

00000ce6 <WDT_voidDisable>:

void WDT_voidDisable(void){
     ce6:	df 93       	push	r29
     ce8:	cf 93       	push	r28
     cea:	cd b7       	in	r28, 0x3d	; 61
     cec:	de b7       	in	r29, 0x3e	; 62
	SET_BIT(WDT_u8_WDTCR_REG, WDT_Enable_Pin);
     cee:	a1 e4       	ldi	r26, 0x41	; 65
     cf0:	b0 e0       	ldi	r27, 0x00	; 0
     cf2:	e1 e4       	ldi	r30, 0x41	; 65
     cf4:	f0 e0       	ldi	r31, 0x00	; 0
     cf6:	80 81       	ld	r24, Z
     cf8:	88 60       	ori	r24, 0x08	; 8
     cfa:	8c 93       	st	X, r24
	SET_BIT(WDT_u8_WDTCR_REG, WDT_Disable_Pin);
     cfc:	a1 e4       	ldi	r26, 0x41	; 65
     cfe:	b0 e0       	ldi	r27, 0x00	; 0
     d00:	e1 e4       	ldi	r30, 0x41	; 65
     d02:	f0 e0       	ldi	r31, 0x00	; 0
     d04:	80 81       	ld	r24, Z
     d06:	80 61       	ori	r24, 0x10	; 16
     d08:	8c 93       	st	X, r24
	
	WDT_u8_WDTCR_REG = 0x00;
     d0a:	e1 e4       	ldi	r30, 0x41	; 65
     d0c:	f0 e0       	ldi	r31, 0x00	; 0
     d0e:	10 82       	st	Z, r1
}
     d10:	cf 91       	pop	r28
     d12:	df 91       	pop	r29
     d14:	08 95       	ret

00000d16 <UART_Init>:

#include "UART_Config.h"
#include "UART_Private.h"


void UART_Init(void){
     d16:	df 93       	push	r29
     d18:	cf 93       	push	r28
     d1a:	00 d0       	rcall	.+0      	; 0xd1c <UART_Init+0x6>
     d1c:	0f 92       	push	r0
     d1e:	cd b7       	in	r28, 0x3d	; 61
     d20:	de b7       	in	r29, 0x3e	; 62
	
	/* This Variable To Put 1 In Bit 7 & Select Asynch Mode  */
	u8 Local_u8UCSRCValue = 0x80;
     d22:	80 e8       	ldi	r24, 0x80	; 128
     d24:	8b 83       	std	Y+3, r24	; 0x03
	
	/* Variable To Select Boud Rate */
	u16 Local_u16BoudRate = 103;
     d26:	87 e6       	ldi	r24, 0x67	; 103
     d28:	90 e0       	ldi	r25, 0x00	; 0
     d2a:	9a 83       	std	Y+2, r25	; 0x02
     d2c:	89 83       	std	Y+1, r24	; 0x01
	
	/* Select Normal Speed Mode */
	#if Speed_Mode == Normal_Speed
	CLR_BIT(UART_u8_UCSRA_REG, UART_U2X_PIN);
     d2e:	ab e2       	ldi	r26, 0x2B	; 43
     d30:	b0 e0       	ldi	r27, 0x00	; 0
     d32:	eb e2       	ldi	r30, 0x2B	; 43
     d34:	f0 e0       	ldi	r31, 0x00	; 0
     d36:	80 81       	ld	r24, Z
     d38:	8d 7f       	andi	r24, 0xFD	; 253
     d3a:	8c 93       	st	X, r24
	#elif Speed_Mode == Double_Speed
	SET_BIT(UART_u8_UCSRA_REG, UART_U2X_PIN);
	#endif
	
	/* Disable MPCM */
	CLR_BIT(UART_u8_UCSRA_REG, UART_MPCM_PIN);
     d3c:	ab e2       	ldi	r26, 0x2B	; 43
     d3e:	b0 e0       	ldi	r27, 0x00	; 0
     d40:	eb e2       	ldi	r30, 0x2B	; 43
     d42:	f0 e0       	ldi	r31, 0x00	; 0
     d44:	80 81       	ld	r24, Z
     d46:	8e 7f       	andi	r24, 0xFE	; 254
     d48:	8c 93       	st	X, r24
	CLR_BIT(UART_u8_UCSRB_REG, UART_UCSZ2_PIN);
	CLR_BIT(Local_u8UCSRCValue, UART_UCSZ0);
	SET_BIT(Local_u8UCSRCValue, UART_UCSZ1);
	
	#elif BitData_Mode == Eight_Data
	CLR_BIT(UART_u8_UCSRB_REG, UART_UCSZ2_PIN);
     d4a:	aa e2       	ldi	r26, 0x2A	; 42
     d4c:	b0 e0       	ldi	r27, 0x00	; 0
     d4e:	ea e2       	ldi	r30, 0x2A	; 42
     d50:	f0 e0       	ldi	r31, 0x00	; 0
     d52:	80 81       	ld	r24, Z
     d54:	8b 7f       	andi	r24, 0xFB	; 251
     d56:	8c 93       	st	X, r24
	SET_BIT(Local_u8UCSRCValue, UART_UCSZ0);
     d58:	8b 81       	ldd	r24, Y+3	; 0x03
     d5a:	82 60       	ori	r24, 0x02	; 2
     d5c:	8b 83       	std	Y+3, r24	; 0x03
	SET_BIT(Local_u8UCSRCValue, UART_UCSZ1);
     d5e:	8b 81       	ldd	r24, Y+3	; 0x03
     d60:	84 60       	ori	r24, 0x04	; 4
     d62:	8b 83       	std	Y+3, r24	; 0x03
	SET_BIT(Local_u8UCSRCValue, UART_UCSZ1);
	#endif
	
	/* Operation Mode (Asynch / Synch) */
	#if Operation_Mode == ASynch
	CLR_BIT(Local_u8UCSRCValue, UART_UMSEL);
     d64:	8b 81       	ldd	r24, Y+3	; 0x03
     d66:	8f 7b       	andi	r24, 0xBF	; 191
     d68:	8b 83       	std	Y+3, r24	; 0x03
	SET_BIT(Local_u8UCSRCValue, UART_UMSEL);
	#endif
	
	/* Select Parity Mode (None / Even / Odd) */
	#if Parity_Mode == None
	CLR_BIT(Local_u8UCSRCValue, UART_UPM0);
     d6a:	8b 81       	ldd	r24, Y+3	; 0x03
     d6c:	8f 7e       	andi	r24, 0xEF	; 239
     d6e:	8b 83       	std	Y+3, r24	; 0x03
	CLR_BIT(Local_u8UCSRCValue, UART_UPM1);
     d70:	8b 81       	ldd	r24, Y+3	; 0x03
     d72:	8f 7d       	andi	r24, 0xDF	; 223
     d74:	8b 83       	std	Y+3, r24	; 0x03
	SET_BIT(Local_u8UCSRCValue, UART_UPM1);
	#endif
	
	/*  Stop Bits Mode ( 1 / 2) */
	#if StopBits_Mode == One_Bit
	CLR_BIT(Local_u8UCSRCValue, UART_USBS);
     d76:	8b 81       	ldd	r24, Y+3	; 0x03
     d78:	87 7f       	andi	r24, 0xF7	; 247
     d7a:	8b 83       	std	Y+3, r24	; 0x03
	#elif StopBits_Mode == Two_Bits
	SET_BIT(Local_u8UCSRCValue, UART_USBS);
	#endif
	
	/* Update UCSRC Reg Value  */
	UART_u8_UCSRC_REG = Local_u8UCSRCValue;
     d7c:	e0 e4       	ldi	r30, 0x40	; 64
     d7e:	f0 e0       	ldi	r31, 0x00	; 0
     d80:	8b 81       	ldd	r24, Y+3	; 0x03
     d82:	80 83       	st	Z, r24
	
	/* Boud Rate => 9600 */
	UART_u8_UBRRL_REG = (u8)Local_u16BoudRate;
     d84:	e9 e2       	ldi	r30, 0x29	; 41
     d86:	f0 e0       	ldi	r31, 0x00	; 0
     d88:	89 81       	ldd	r24, Y+1	; 0x01
     d8a:	80 83       	st	Z, r24
	UART_u8_UBRRH_REG = (u8)(Local_u16BoudRate >> 8);
     d8c:	e0 e4       	ldi	r30, 0x40	; 64
     d8e:	f0 e0       	ldi	r31, 0x00	; 0
     d90:	89 81       	ldd	r24, Y+1	; 0x01
     d92:	9a 81       	ldd	r25, Y+2	; 0x02
     d94:	89 2f       	mov	r24, r25
     d96:	99 27       	eor	r25, r25
     d98:	80 83       	st	Z, r24
	
	/* Enable Tx & Rx */
	SET_BIT(UART_u8_UCSRB_REG, UART_TXEN_PIN);
     d9a:	aa e2       	ldi	r26, 0x2A	; 42
     d9c:	b0 e0       	ldi	r27, 0x00	; 0
     d9e:	ea e2       	ldi	r30, 0x2A	; 42
     da0:	f0 e0       	ldi	r31, 0x00	; 0
     da2:	80 81       	ld	r24, Z
     da4:	88 60       	ori	r24, 0x08	; 8
     da6:	8c 93       	st	X, r24
	SET_BIT(UART_u8_UCSRB_REG, UART_RXEN_PIN);
     da8:	aa e2       	ldi	r26, 0x2A	; 42
     daa:	b0 e0       	ldi	r27, 0x00	; 0
     dac:	ea e2       	ldi	r30, 0x2A	; 42
     dae:	f0 e0       	ldi	r31, 0x00	; 0
     db0:	80 81       	ld	r24, Z
     db2:	80 61       	ori	r24, 0x10	; 16
     db4:	8c 93       	st	X, r24
	
}
     db6:	0f 90       	pop	r0
     db8:	0f 90       	pop	r0
     dba:	0f 90       	pop	r0
     dbc:	cf 91       	pop	r28
     dbe:	df 91       	pop	r29
     dc0:	08 95       	ret

00000dc2 <UART_Send1ByteData>:

void UART_Send1ByteData(u8 Copy_u8Sended1ByteData){
     dc2:	df 93       	push	r29
     dc4:	cf 93       	push	r28
     dc6:	0f 92       	push	r0
     dc8:	cd b7       	in	r28, 0x3d	; 61
     dca:	de b7       	in	r29, 0x3e	; 62
     dcc:	89 83       	std	Y+1, r24	; 0x01
	/* UDRE Pin Should be 1 (empty) to be able to write date in it */
	while(!GET_BIT(UART_u8_UCSRA_REG, UART_UDRE_PIN));
     dce:	eb e2       	ldi	r30, 0x2B	; 43
     dd0:	f0 e0       	ldi	r31, 0x00	; 0
     dd2:	80 81       	ld	r24, Z
     dd4:	82 95       	swap	r24
     dd6:	86 95       	lsr	r24
     dd8:	87 70       	andi	r24, 0x07	; 7
     dda:	88 2f       	mov	r24, r24
     ddc:	90 e0       	ldi	r25, 0x00	; 0
     dde:	81 70       	andi	r24, 0x01	; 1
     de0:	90 70       	andi	r25, 0x00	; 0
     de2:	00 97       	sbiw	r24, 0x00	; 0
     de4:	a1 f3       	breq	.-24     	; 0xdce <UART_Send1ByteData+0xc>
	
	/* Send 1 Byte Data */
	UART_u8_UDR_REG = Copy_u8Sended1ByteData;
     de6:	ec e2       	ldi	r30, 0x2C	; 44
     de8:	f0 e0       	ldi	r31, 0x00	; 0
     dea:	89 81       	ldd	r24, Y+1	; 0x01
     dec:	80 83       	st	Z, r24
	
}
     dee:	0f 90       	pop	r0
     df0:	cf 91       	pop	r28
     df2:	df 91       	pop	r29
     df4:	08 95       	ret

00000df6 <UART_SendString>:

void UART_SendString(u8 *Copy_u8SendedString){
     df6:	df 93       	push	r29
     df8:	cf 93       	push	r28
     dfa:	00 d0       	rcall	.+0      	; 0xdfc <UART_SendString+0x6>
     dfc:	0f 92       	push	r0
     dfe:	cd b7       	in	r28, 0x3d	; 61
     e00:	de b7       	in	r29, 0x3e	; 62
     e02:	9b 83       	std	Y+3, r25	; 0x03
     e04:	8a 83       	std	Y+2, r24	; 0x02
	u8 i = 0;
     e06:	19 82       	std	Y+1, r1	; 0x01
     e08:	0e c0       	rjmp	.+28     	; 0xe26 <UART_SendString+0x30>
	while(Copy_u8SendedString[i] !=  '\0'){
		UART_Send1ByteData(Copy_u8SendedString[i]);
     e0a:	89 81       	ldd	r24, Y+1	; 0x01
     e0c:	28 2f       	mov	r18, r24
     e0e:	30 e0       	ldi	r19, 0x00	; 0
     e10:	8a 81       	ldd	r24, Y+2	; 0x02
     e12:	9b 81       	ldd	r25, Y+3	; 0x03
     e14:	fc 01       	movw	r30, r24
     e16:	e2 0f       	add	r30, r18
     e18:	f3 1f       	adc	r31, r19
     e1a:	80 81       	ld	r24, Z
     e1c:	0e 94 e1 06 	call	0xdc2	; 0xdc2 <UART_Send1ByteData>
		i++;
     e20:	89 81       	ldd	r24, Y+1	; 0x01
     e22:	8f 5f       	subi	r24, 0xFF	; 255
     e24:	89 83       	std	Y+1, r24	; 0x01
	
}

void UART_SendString(u8 *Copy_u8SendedString){
	u8 i = 0;
	while(Copy_u8SendedString[i] !=  '\0'){
     e26:	89 81       	ldd	r24, Y+1	; 0x01
     e28:	28 2f       	mov	r18, r24
     e2a:	30 e0       	ldi	r19, 0x00	; 0
     e2c:	8a 81       	ldd	r24, Y+2	; 0x02
     e2e:	9b 81       	ldd	r25, Y+3	; 0x03
     e30:	fc 01       	movw	r30, r24
     e32:	e2 0f       	add	r30, r18
     e34:	f3 1f       	adc	r31, r19
     e36:	80 81       	ld	r24, Z
     e38:	88 23       	and	r24, r24
     e3a:	39 f7       	brne	.-50     	; 0xe0a <UART_SendString+0x14>
		UART_Send1ByteData(Copy_u8SendedString[i]);
		i++;
	}
}
     e3c:	0f 90       	pop	r0
     e3e:	0f 90       	pop	r0
     e40:	0f 90       	pop	r0
     e42:	cf 91       	pop	r28
     e44:	df 91       	pop	r29
     e46:	08 95       	ret

00000e48 <UART_DisplayNumber>:

void UART_DisplayNumber(u32 num){
     e48:	0f 93       	push	r16
     e4a:	1f 93       	push	r17
     e4c:	df 93       	push	r29
     e4e:	cf 93       	push	r28
     e50:	cd b7       	in	r28, 0x3d	; 61
     e52:	de b7       	in	r29, 0x3e	; 62
     e54:	68 97       	sbiw	r28, 0x18	; 24
     e56:	0f b6       	in	r0, 0x3f	; 63
     e58:	f8 94       	cli
     e5a:	de bf       	out	0x3e, r29	; 62
     e5c:	0f be       	out	0x3f, r0	; 63
     e5e:	cd bf       	out	0x3d, r28	; 61
     e60:	6d 8b       	std	Y+21, r22	; 0x15
     e62:	7e 8b       	std	Y+22, r23	; 0x16
     e64:	8f 8b       	std	Y+23, r24	; 0x17
     e66:	98 8f       	std	Y+24, r25	; 0x18

    // Convert the number to a string
    u8 buffer[16];
    u8 i = 0;
     e68:	1c 82       	std	Y+4, r1	; 0x04
    u8 isNegative = 0;
     e6a:	1b 82       	std	Y+3, r1	; 0x03
        isNegative = 1;
        num = -num;
    }

    do {
        buffer[i++] = (char)(num % 10) + '0';
     e6c:	8c 81       	ldd	r24, Y+4	; 0x04
     e6e:	08 2f       	mov	r16, r24
     e70:	10 e0       	ldi	r17, 0x00	; 0
     e72:	8d 89       	ldd	r24, Y+21	; 0x15
     e74:	9e 89       	ldd	r25, Y+22	; 0x16
     e76:	af 89       	ldd	r26, Y+23	; 0x17
     e78:	b8 8d       	ldd	r27, Y+24	; 0x18
     e7a:	2a e0       	ldi	r18, 0x0A	; 10
     e7c:	30 e0       	ldi	r19, 0x00	; 0
     e7e:	40 e0       	ldi	r20, 0x00	; 0
     e80:	50 e0       	ldi	r21, 0x00	; 0
     e82:	bc 01       	movw	r22, r24
     e84:	cd 01       	movw	r24, r26
     e86:	0e 94 8f 31 	call	0x631e	; 0x631e <__udivmodsi4>
     e8a:	dc 01       	movw	r26, r24
     e8c:	cb 01       	movw	r24, r22
     e8e:	28 2f       	mov	r18, r24
     e90:	20 5d       	subi	r18, 0xD0	; 208
     e92:	ce 01       	movw	r24, r28
     e94:	05 96       	adiw	r24, 0x05	; 5
     e96:	fc 01       	movw	r30, r24
     e98:	e0 0f       	add	r30, r16
     e9a:	f1 1f       	adc	r31, r17
     e9c:	20 83       	st	Z, r18
     e9e:	8c 81       	ldd	r24, Y+4	; 0x04
     ea0:	8f 5f       	subi	r24, 0xFF	; 255
     ea2:	8c 83       	std	Y+4, r24	; 0x04
        num /= 10;
     ea4:	8d 89       	ldd	r24, Y+21	; 0x15
     ea6:	9e 89       	ldd	r25, Y+22	; 0x16
     ea8:	af 89       	ldd	r26, Y+23	; 0x17
     eaa:	b8 8d       	ldd	r27, Y+24	; 0x18
     eac:	2a e0       	ldi	r18, 0x0A	; 10
     eae:	30 e0       	ldi	r19, 0x00	; 0
     eb0:	40 e0       	ldi	r20, 0x00	; 0
     eb2:	50 e0       	ldi	r21, 0x00	; 0
     eb4:	bc 01       	movw	r22, r24
     eb6:	cd 01       	movw	r24, r26
     eb8:	0e 94 8f 31 	call	0x631e	; 0x631e <__udivmodsi4>
     ebc:	da 01       	movw	r26, r20
     ebe:	c9 01       	movw	r24, r18
     ec0:	8d 8b       	std	Y+21, r24	; 0x15
     ec2:	9e 8b       	std	Y+22, r25	; 0x16
     ec4:	af 8b       	std	Y+23, r26	; 0x17
     ec6:	b8 8f       	std	Y+24, r27	; 0x18
    } while (num > 0);
     ec8:	8d 89       	ldd	r24, Y+21	; 0x15
     eca:	9e 89       	ldd	r25, Y+22	; 0x16
     ecc:	af 89       	ldd	r26, Y+23	; 0x17
     ece:	b8 8d       	ldd	r27, Y+24	; 0x18
     ed0:	00 97       	sbiw	r24, 0x00	; 0
     ed2:	a1 05       	cpc	r26, r1
     ed4:	b1 05       	cpc	r27, r1
     ed6:	51 f6       	brne	.-108    	; 0xe6c <UART_DisplayNumber+0x24>

    if (isNegative) {
     ed8:	8b 81       	ldd	r24, Y+3	; 0x03
     eda:	88 23       	and	r24, r24
     edc:	69 f0       	breq	.+26     	; 0xef8 <UART_DisplayNumber+0xb0>
        buffer[i++] = '-';
     ede:	8c 81       	ldd	r24, Y+4	; 0x04
     ee0:	28 2f       	mov	r18, r24
     ee2:	30 e0       	ldi	r19, 0x00	; 0
     ee4:	ce 01       	movw	r24, r28
     ee6:	05 96       	adiw	r24, 0x05	; 5
     ee8:	fc 01       	movw	r30, r24
     eea:	e2 0f       	add	r30, r18
     eec:	f3 1f       	adc	r31, r19
     eee:	8d e2       	ldi	r24, 0x2D	; 45
     ef0:	80 83       	st	Z, r24
     ef2:	8c 81       	ldd	r24, Y+4	; 0x04
     ef4:	8f 5f       	subi	r24, 0xFF	; 255
     ef6:	8c 83       	std	Y+4, r24	; 0x04
    }

    // Reverse the string
    u8 j;
    for (j = 0; j < i / 2; j++) {
     ef8:	1a 82       	std	Y+2, r1	; 0x02
     efa:	3d c0       	rjmp	.+122    	; 0xf76 <UART_DisplayNumber+0x12e>
        char temp = buffer[j];
     efc:	8a 81       	ldd	r24, Y+2	; 0x02
     efe:	28 2f       	mov	r18, r24
     f00:	30 e0       	ldi	r19, 0x00	; 0
     f02:	ce 01       	movw	r24, r28
     f04:	05 96       	adiw	r24, 0x05	; 5
     f06:	fc 01       	movw	r30, r24
     f08:	e2 0f       	add	r30, r18
     f0a:	f3 1f       	adc	r31, r19
     f0c:	80 81       	ld	r24, Z
     f0e:	89 83       	std	Y+1, r24	; 0x01
        buffer[j] = buffer[i - j - 1];
     f10:	8a 81       	ldd	r24, Y+2	; 0x02
     f12:	48 2f       	mov	r20, r24
     f14:	50 e0       	ldi	r21, 0x00	; 0
     f16:	8c 81       	ldd	r24, Y+4	; 0x04
     f18:	28 2f       	mov	r18, r24
     f1a:	30 e0       	ldi	r19, 0x00	; 0
     f1c:	8a 81       	ldd	r24, Y+2	; 0x02
     f1e:	88 2f       	mov	r24, r24
     f20:	90 e0       	ldi	r25, 0x00	; 0
     f22:	b9 01       	movw	r22, r18
     f24:	68 1b       	sub	r22, r24
     f26:	79 0b       	sbc	r23, r25
     f28:	cb 01       	movw	r24, r22
     f2a:	9c 01       	movw	r18, r24
     f2c:	21 50       	subi	r18, 0x01	; 1
     f2e:	30 40       	sbci	r19, 0x00	; 0
     f30:	ce 01       	movw	r24, r28
     f32:	05 96       	adiw	r24, 0x05	; 5
     f34:	fc 01       	movw	r30, r24
     f36:	e2 0f       	add	r30, r18
     f38:	f3 1f       	adc	r31, r19
     f3a:	20 81       	ld	r18, Z
     f3c:	ce 01       	movw	r24, r28
     f3e:	05 96       	adiw	r24, 0x05	; 5
     f40:	fc 01       	movw	r30, r24
     f42:	e4 0f       	add	r30, r20
     f44:	f5 1f       	adc	r31, r21
     f46:	20 83       	st	Z, r18
        buffer[i - j - 1] = temp;
     f48:	8c 81       	ldd	r24, Y+4	; 0x04
     f4a:	28 2f       	mov	r18, r24
     f4c:	30 e0       	ldi	r19, 0x00	; 0
     f4e:	8a 81       	ldd	r24, Y+2	; 0x02
     f50:	88 2f       	mov	r24, r24
     f52:	90 e0       	ldi	r25, 0x00	; 0
     f54:	a9 01       	movw	r20, r18
     f56:	48 1b       	sub	r20, r24
     f58:	59 0b       	sbc	r21, r25
     f5a:	ca 01       	movw	r24, r20
     f5c:	9c 01       	movw	r18, r24
     f5e:	21 50       	subi	r18, 0x01	; 1
     f60:	30 40       	sbci	r19, 0x00	; 0
     f62:	ce 01       	movw	r24, r28
     f64:	05 96       	adiw	r24, 0x05	; 5
     f66:	fc 01       	movw	r30, r24
     f68:	e2 0f       	add	r30, r18
     f6a:	f3 1f       	adc	r31, r19
     f6c:	89 81       	ldd	r24, Y+1	; 0x01
     f6e:	80 83       	st	Z, r24
        buffer[i++] = '-';
    }

    // Reverse the string
    u8 j;
    for (j = 0; j < i / 2; j++) {
     f70:	8a 81       	ldd	r24, Y+2	; 0x02
     f72:	8f 5f       	subi	r24, 0xFF	; 255
     f74:	8a 83       	std	Y+2, r24	; 0x02
     f76:	8c 81       	ldd	r24, Y+4	; 0x04
     f78:	98 2f       	mov	r25, r24
     f7a:	96 95       	lsr	r25
     f7c:	8a 81       	ldd	r24, Y+2	; 0x02
     f7e:	89 17       	cp	r24, r25
     f80:	08 f4       	brcc	.+2      	; 0xf84 <UART_DisplayNumber+0x13c>
     f82:	bc cf       	rjmp	.-136    	; 0xefc <UART_DisplayNumber+0xb4>
        buffer[j] = buffer[i - j - 1];
        buffer[i - j - 1] = temp;
    }

    // Null-terminate the string
    buffer[i] = '\0';
     f84:	8c 81       	ldd	r24, Y+4	; 0x04
     f86:	28 2f       	mov	r18, r24
     f88:	30 e0       	ldi	r19, 0x00	; 0
     f8a:	ce 01       	movw	r24, r28
     f8c:	05 96       	adiw	r24, 0x05	; 5
     f8e:	fc 01       	movw	r30, r24
     f90:	e2 0f       	add	r30, r18
     f92:	f3 1f       	adc	r31, r19
     f94:	10 82       	st	Z, r1

    // Write the string to LCD
    UART_SendString(buffer);
     f96:	ce 01       	movw	r24, r28
     f98:	05 96       	adiw	r24, 0x05	; 5
     f9a:	0e 94 fb 06 	call	0xdf6	; 0xdf6 <UART_SendString>
}
     f9e:	68 96       	adiw	r28, 0x18	; 24
     fa0:	0f b6       	in	r0, 0x3f	; 63
     fa2:	f8 94       	cli
     fa4:	de bf       	out	0x3e, r29	; 62
     fa6:	0f be       	out	0x3f, r0	; 63
     fa8:	cd bf       	out	0x3d, r28	; 61
     faa:	cf 91       	pop	r28
     fac:	df 91       	pop	r29
     fae:	1f 91       	pop	r17
     fb0:	0f 91       	pop	r16
     fb2:	08 95       	ret

00000fb4 <UART_displayFloat>:

void UART_displayFloat(f32 number) {
     fb4:	df 93       	push	r29
     fb6:	cf 93       	push	r28
     fb8:	cd b7       	in	r28, 0x3d	; 61
     fba:	de b7       	in	r29, 0x3e	; 62
     fbc:	28 97       	sbiw	r28, 0x08	; 8
     fbe:	0f b6       	in	r0, 0x3f	; 63
     fc0:	f8 94       	cli
     fc2:	de bf       	out	0x3e, r29	; 62
     fc4:	0f be       	out	0x3f, r0	; 63
     fc6:	cd bf       	out	0x3d, r28	; 61
     fc8:	6d 83       	std	Y+5, r22	; 0x05
     fca:	7e 83       	std	Y+6, r23	; 0x06
     fcc:	8f 83       	std	Y+7, r24	; 0x07
     fce:	98 87       	std	Y+8, r25	; 0x08
    int integerPart = (int)number;
     fd0:	6d 81       	ldd	r22, Y+5	; 0x05
     fd2:	7e 81       	ldd	r23, Y+6	; 0x06
     fd4:	8f 81       	ldd	r24, Y+7	; 0x07
     fd6:	98 85       	ldd	r25, Y+8	; 0x08
     fd8:	0e 94 07 04 	call	0x80e	; 0x80e <__fixsfsi>
     fdc:	dc 01       	movw	r26, r24
     fde:	cb 01       	movw	r24, r22
     fe0:	9c 83       	std	Y+4, r25	; 0x04
     fe2:	8b 83       	std	Y+3, r24	; 0x03
    int decimalPart = (number - integerPart) * 1000;
     fe4:	8b 81       	ldd	r24, Y+3	; 0x03
     fe6:	9c 81       	ldd	r25, Y+4	; 0x04
     fe8:	aa 27       	eor	r26, r26
     fea:	97 fd       	sbrc	r25, 7
     fec:	a0 95       	com	r26
     fee:	ba 2f       	mov	r27, r26
     ff0:	bc 01       	movw	r22, r24
     ff2:	cd 01       	movw	r24, r26
     ff4:	0e 94 a9 03 	call	0x752	; 0x752 <__floatsisf>
     ff8:	9b 01       	movw	r18, r22
     ffa:	ac 01       	movw	r20, r24
     ffc:	6d 81       	ldd	r22, Y+5	; 0x05
     ffe:	7e 81       	ldd	r23, Y+6	; 0x06
    1000:	8f 81       	ldd	r24, Y+7	; 0x07
    1002:	98 85       	ldd	r25, Y+8	; 0x08
    1004:	0e 94 c1 01 	call	0x382	; 0x382 <__subsf3>
    1008:	dc 01       	movw	r26, r24
    100a:	cb 01       	movw	r24, r22
    100c:	bc 01       	movw	r22, r24
    100e:	cd 01       	movw	r24, r26
    1010:	20 e0       	ldi	r18, 0x00	; 0
    1012:	30 e0       	ldi	r19, 0x00	; 0
    1014:	4a e7       	ldi	r20, 0x7A	; 122
    1016:	54 e4       	ldi	r21, 0x44	; 68
    1018:	0e 94 1f 02 	call	0x43e	; 0x43e <__mulsf3>
    101c:	dc 01       	movw	r26, r24
    101e:	cb 01       	movw	r24, r22
    1020:	bc 01       	movw	r22, r24
    1022:	cd 01       	movw	r24, r26
    1024:	0e 94 07 04 	call	0x80e	; 0x80e <__fixsfsi>
    1028:	dc 01       	movw	r26, r24
    102a:	cb 01       	movw	r24, r22
    102c:	9a 83       	std	Y+2, r25	; 0x02
    102e:	89 83       	std	Y+1, r24	; 0x01
    if(integerPart >= 100){
    1030:	8b 81       	ldd	r24, Y+3	; 0x03
    1032:	9c 81       	ldd	r25, Y+4	; 0x04
    1034:	84 36       	cpi	r24, 0x64	; 100
    1036:	91 05       	cpc	r25, r1
    1038:	54 f0       	brlt	.+20     	; 0x104e <UART_displayFloat+0x9a>
    	integerPart /= 10;
    103a:	8b 81       	ldd	r24, Y+3	; 0x03
    103c:	9c 81       	ldd	r25, Y+4	; 0x04
    103e:	2a e0       	ldi	r18, 0x0A	; 10
    1040:	30 e0       	ldi	r19, 0x00	; 0
    1042:	b9 01       	movw	r22, r18
    1044:	0e 94 7c 31 	call	0x62f8	; 0x62f8 <__divmodhi4>
    1048:	cb 01       	movw	r24, r22
    104a:	9c 83       	std	Y+4, r25	; 0x04
    104c:	8b 83       	std	Y+3, r24	; 0x03
    }
    UART_DisplayNumber(integerPart);
    104e:	8b 81       	ldd	r24, Y+3	; 0x03
    1050:	9c 81       	ldd	r25, Y+4	; 0x04
    1052:	aa 27       	eor	r26, r26
    1054:	97 fd       	sbrc	r25, 7
    1056:	a0 95       	com	r26
    1058:	ba 2f       	mov	r27, r26
    105a:	bc 01       	movw	r22, r24
    105c:	cd 01       	movw	r24, r26
    105e:	0e 94 24 07 	call	0xe48	; 0xe48 <UART_DisplayNumber>
    UART_Send1ByteData('.');
    1062:	8e e2       	ldi	r24, 0x2E	; 46
    1064:	0e 94 e1 06 	call	0xdc2	; 0xdc2 <UART_Send1ByteData>
    UART_DisplayNumber(decimalPart);
    1068:	89 81       	ldd	r24, Y+1	; 0x01
    106a:	9a 81       	ldd	r25, Y+2	; 0x02
    106c:	aa 27       	eor	r26, r26
    106e:	97 fd       	sbrc	r25, 7
    1070:	a0 95       	com	r26
    1072:	ba 2f       	mov	r27, r26
    1074:	bc 01       	movw	r22, r24
    1076:	cd 01       	movw	r24, r26
    1078:	0e 94 24 07 	call	0xe48	; 0xe48 <UART_DisplayNumber>
}
    107c:	28 96       	adiw	r28, 0x08	; 8
    107e:	0f b6       	in	r0, 0x3f	; 63
    1080:	f8 94       	cli
    1082:	de bf       	out	0x3e, r29	; 62
    1084:	0f be       	out	0x3f, r0	; 63
    1086:	cd bf       	out	0x3d, r28	; 61
    1088:	cf 91       	pop	r28
    108a:	df 91       	pop	r29
    108c:	08 95       	ret

0000108e <UART_u8Recieve1ByteData>:

u8 UART_u8Recieve1ByteData(u8 *Copy_Pu8RecievedByteData){
    108e:	df 93       	push	r29
    1090:	cf 93       	push	r28
    1092:	00 d0       	rcall	.+0      	; 0x1094 <UART_u8Recieve1ByteData+0x6>
    1094:	0f 92       	push	r0
    1096:	cd b7       	in	r28, 0x3d	; 61
    1098:	de b7       	in	r29, 0x3e	; 62
    109a:	9b 83       	std	Y+3, r25	; 0x03
    109c:	8a 83       	std	Y+2, r24	; 0x02
	u8 Local_u8ErrorState = STD_TYPES_OK;
    109e:	81 e0       	ldi	r24, 0x01	; 1
    10a0:	89 83       	std	Y+1, r24	; 0x01
	
	if(Copy_Pu8RecievedByteData != NULL){
    10a2:	8a 81       	ldd	r24, Y+2	; 0x02
    10a4:	9b 81       	ldd	r25, Y+3	; 0x03
    10a6:	00 97       	sbiw	r24, 0x00	; 0
    10a8:	61 f0       	breq	.+24     	; 0x10c2 <UART_u8Recieve1ByteData+0x34>
		while(!GET_BIT(UART_u8_UCSRA_REG, UART_RXC_PIN));
    10aa:	eb e2       	ldi	r30, 0x2B	; 43
    10ac:	f0 e0       	ldi	r31, 0x00	; 0
    10ae:	80 81       	ld	r24, Z
    10b0:	88 23       	and	r24, r24
    10b2:	dc f7       	brge	.-10     	; 0x10aa <UART_u8Recieve1ByteData+0x1c>
		*Copy_Pu8RecievedByteData = UART_u8_UDR_REG;
    10b4:	ec e2       	ldi	r30, 0x2C	; 44
    10b6:	f0 e0       	ldi	r31, 0x00	; 0
    10b8:	80 81       	ld	r24, Z
    10ba:	ea 81       	ldd	r30, Y+2	; 0x02
    10bc:	fb 81       	ldd	r31, Y+3	; 0x03
    10be:	80 83       	st	Z, r24
    10c0:	01 c0       	rjmp	.+2      	; 0x10c4 <UART_u8Recieve1ByteData+0x36>
	}
	
	else{
		Local_u8ErrorState = STD_TYPES_NOK;
    10c2:	19 82       	std	Y+1, r1	; 0x01
	}
	
	return Local_u8ErrorState;
    10c4:	89 81       	ldd	r24, Y+1	; 0x01
}
    10c6:	0f 90       	pop	r0
    10c8:	0f 90       	pop	r0
    10ca:	0f 90       	pop	r0
    10cc:	cf 91       	pop	r28
    10ce:	df 91       	pop	r29
    10d0:	08 95       	ret

000010d2 <UART_u8RecieveString>:


u8 UART_u8RecieveString(u8 *Copy_Pu8RecievedString, u8 Copy_u8StringSize){
    10d2:	df 93       	push	r29
    10d4:	cf 93       	push	r28
    10d6:	00 d0       	rcall	.+0      	; 0x10d8 <UART_u8RecieveString+0x6>
    10d8:	00 d0       	rcall	.+0      	; 0x10da <UART_u8RecieveString+0x8>
    10da:	0f 92       	push	r0
    10dc:	cd b7       	in	r28, 0x3d	; 61
    10de:	de b7       	in	r29, 0x3e	; 62
    10e0:	9c 83       	std	Y+4, r25	; 0x04
    10e2:	8b 83       	std	Y+3, r24	; 0x03
    10e4:	6d 83       	std	Y+5, r22	; 0x05
	u8 Local_u8ErrorState = STD_TYPES_OK;
    10e6:	81 e0       	ldi	r24, 0x01	; 1
    10e8:	8a 83       	std	Y+2, r24	; 0x02
	u8 i = 0;
    10ea:	19 82       	std	Y+1, r1	; 0x01
	
	if(Copy_Pu8RecievedString != NULL){
    10ec:	8b 81       	ldd	r24, Y+3	; 0x03
    10ee:	9c 81       	ldd	r25, Y+4	; 0x04
    10f0:	00 97       	sbiw	r24, 0x00	; 0
    10f2:	19 f1       	breq	.+70     	; 0x113a <UART_u8RecieveString+0x68>
    10f4:	14 c0       	rjmp	.+40     	; 0x111e <UART_u8RecieveString+0x4c>
		while(i < Copy_u8StringSize){
			while(!GET_BIT(UART_u8_UCSRA_REG, UART_RXC_PIN));
    10f6:	eb e2       	ldi	r30, 0x2B	; 43
    10f8:	f0 e0       	ldi	r31, 0x00	; 0
    10fa:	80 81       	ld	r24, Z
    10fc:	88 23       	and	r24, r24
    10fe:	dc f7       	brge	.-10     	; 0x10f6 <UART_u8RecieveString+0x24>
			Copy_Pu8RecievedString[i] = UART_u8_UDR_REG;
    1100:	89 81       	ldd	r24, Y+1	; 0x01
    1102:	28 2f       	mov	r18, r24
    1104:	30 e0       	ldi	r19, 0x00	; 0
    1106:	8b 81       	ldd	r24, Y+3	; 0x03
    1108:	9c 81       	ldd	r25, Y+4	; 0x04
    110a:	dc 01       	movw	r26, r24
    110c:	a2 0f       	add	r26, r18
    110e:	b3 1f       	adc	r27, r19
    1110:	ec e2       	ldi	r30, 0x2C	; 44
    1112:	f0 e0       	ldi	r31, 0x00	; 0
    1114:	80 81       	ld	r24, Z
    1116:	8c 93       	st	X, r24
			i++;
    1118:	89 81       	ldd	r24, Y+1	; 0x01
    111a:	8f 5f       	subi	r24, 0xFF	; 255
    111c:	89 83       	std	Y+1, r24	; 0x01
u8 UART_u8RecieveString(u8 *Copy_Pu8RecievedString, u8 Copy_u8StringSize){
	u8 Local_u8ErrorState = STD_TYPES_OK;
	u8 i = 0;
	
	if(Copy_Pu8RecievedString != NULL){
		while(i < Copy_u8StringSize){
    111e:	99 81       	ldd	r25, Y+1	; 0x01
    1120:	8d 81       	ldd	r24, Y+5	; 0x05
    1122:	98 17       	cp	r25, r24
    1124:	40 f3       	brcs	.-48     	; 0x10f6 <UART_u8RecieveString+0x24>
			while(!GET_BIT(UART_u8_UCSRA_REG, UART_RXC_PIN));
			Copy_Pu8RecievedString[i] = UART_u8_UDR_REG;
			i++;
		}
		Copy_Pu8RecievedString[i] = '\0';
    1126:	89 81       	ldd	r24, Y+1	; 0x01
    1128:	28 2f       	mov	r18, r24
    112a:	30 e0       	ldi	r19, 0x00	; 0
    112c:	8b 81       	ldd	r24, Y+3	; 0x03
    112e:	9c 81       	ldd	r25, Y+4	; 0x04
    1130:	fc 01       	movw	r30, r24
    1132:	e2 0f       	add	r30, r18
    1134:	f3 1f       	adc	r31, r19
    1136:	10 82       	st	Z, r1
    1138:	01 c0       	rjmp	.+2      	; 0x113c <UART_u8RecieveString+0x6a>
	}
	
	else{
		Local_u8ErrorState = STD_TYPES_NOK;
    113a:	1a 82       	std	Y+2, r1	; 0x02
	}
	
	return Local_u8ErrorState;
    113c:	8a 81       	ldd	r24, Y+2	; 0x02
}
    113e:	0f 90       	pop	r0
    1140:	0f 90       	pop	r0
    1142:	0f 90       	pop	r0
    1144:	0f 90       	pop	r0
    1146:	0f 90       	pop	r0
    1148:	cf 91       	pop	r28
    114a:	df 91       	pop	r29
    114c:	08 95       	ret

0000114e <TIMERS_voidTimer0Init>:

/* Global Pointer To Function for TIMER0 CTC */
static void(*TIMERS_pfTIMER0CTC)(void) = NULL;


void TIMERS_voidTimer0Init(void){
    114e:	df 93       	push	r29
    1150:	cf 93       	push	r28
    1152:	cd b7       	in	r28, 0x3d	; 61
    1154:	de b7       	in	r29, 0x3e	; 62
	#elif OC0_MODE == Non_Inverting
	SET_BIT(TIMERS_u8_TCCR0_REG, TIMERS_COM01);
	CLR_BIT(TIMERS_u8_TCCR0_REG, TIMERS_COM00);
	#endif
	#elif TIMER_MODE == PWM_FAST
	SET_BIT(TIMERS_u8_TCCR0_REG, TIMERS_TCCR0_WGM00_PIN);
    1156:	a3 e5       	ldi	r26, 0x53	; 83
    1158:	b0 e0       	ldi	r27, 0x00	; 0
    115a:	e3 e5       	ldi	r30, 0x53	; 83
    115c:	f0 e0       	ldi	r31, 0x00	; 0
    115e:	80 81       	ld	r24, Z
    1160:	80 64       	ori	r24, 0x40	; 64
    1162:	8c 93       	st	X, r24
	SET_BIT(TIMERS_u8_TCCR0_REG, TIMERS_TCCR0_WGM01_PIN);
    1164:	a3 e5       	ldi	r26, 0x53	; 83
    1166:	b0 e0       	ldi	r27, 0x00	; 0
    1168:	e3 e5       	ldi	r30, 0x53	; 83
    116a:	f0 e0       	ldi	r31, 0x00	; 0
    116c:	80 81       	ld	r24, Z
    116e:	88 60       	ori	r24, 0x08	; 8
    1170:	8c 93       	st	X, r24
	#if OC0_MODE == Inverting
	SET_BIT(TIMERS_u8_TCCR0_REG, TIMERS_COM01);
    1172:	a3 e5       	ldi	r26, 0x53	; 83
    1174:	b0 e0       	ldi	r27, 0x00	; 0
    1176:	e3 e5       	ldi	r30, 0x53	; 83
    1178:	f0 e0       	ldi	r31, 0x00	; 0
    117a:	80 81       	ld	r24, Z
    117c:	80 62       	ori	r24, 0x20	; 32
    117e:	8c 93       	st	X, r24
	SET_BIT(TIMERS_u8_TCCR0_REG, TIMERS_COM00);
    1180:	a3 e5       	ldi	r26, 0x53	; 83
    1182:	b0 e0       	ldi	r27, 0x00	; 0
    1184:	e3 e5       	ldi	r30, 0x53	; 83
    1186:	f0 e0       	ldi	r31, 0x00	; 0
    1188:	80 81       	ld	r24, Z
    118a:	80 61       	ori	r24, 0x10	; 16
    118c:	8c 93       	st	X, r24
	#endif
	#endif
	
	
	/* Set Prescaler Value => clk / 8 */
	CLR_BIT(TIMERS_u8_TCCR0_REG, TIMERS_TCCR0_CS00_PIN);
    118e:	a3 e5       	ldi	r26, 0x53	; 83
    1190:	b0 e0       	ldi	r27, 0x00	; 0
    1192:	e3 e5       	ldi	r30, 0x53	; 83
    1194:	f0 e0       	ldi	r31, 0x00	; 0
    1196:	80 81       	ld	r24, Z
    1198:	8e 7f       	andi	r24, 0xFE	; 254
    119a:	8c 93       	st	X, r24
	SET_BIT(TIMERS_u8_TCCR0_REG, TIMERS_TCCR0_CS01_PIN);
    119c:	a3 e5       	ldi	r26, 0x53	; 83
    119e:	b0 e0       	ldi	r27, 0x00	; 0
    11a0:	e3 e5       	ldi	r30, 0x53	; 83
    11a2:	f0 e0       	ldi	r31, 0x00	; 0
    11a4:	80 81       	ld	r24, Z
    11a6:	82 60       	ori	r24, 0x02	; 2
    11a8:	8c 93       	st	X, r24
	CLR_BIT(TIMERS_u8_TCCR0_REG, TIMERS_TCCR0_CS02_PIN);
    11aa:	a3 e5       	ldi	r26, 0x53	; 83
    11ac:	b0 e0       	ldi	r27, 0x00	; 0
    11ae:	e3 e5       	ldi	r30, 0x53	; 83
    11b0:	f0 e0       	ldi	r31, 0x00	; 0
    11b2:	80 81       	ld	r24, Z
    11b4:	8b 7f       	andi	r24, 0xFB	; 251
    11b6:	8c 93       	st	X, r24
}
    11b8:	cf 91       	pop	r28
    11ba:	df 91       	pop	r29
    11bc:	08 95       	ret

000011be <TIMERS_voidTimer1Init>:

void TIMERS_voidTimer1Init(void){
    11be:	df 93       	push	r29
    11c0:	cf 93       	push	r28
    11c2:	cd b7       	in	r28, 0x3d	; 61
    11c4:	de b7       	in	r29, 0x3e	; 62
	/* Select Timer1 Mode => PWM Fact(14) */
	SET_BIT(TIMERS_u8_TCCR1A_REG, TIMER1_WGM11);
    11c6:	af e4       	ldi	r26, 0x4F	; 79
    11c8:	b0 e0       	ldi	r27, 0x00	; 0
    11ca:	ef e4       	ldi	r30, 0x4F	; 79
    11cc:	f0 e0       	ldi	r31, 0x00	; 0
    11ce:	80 81       	ld	r24, Z
    11d0:	82 60       	ori	r24, 0x02	; 2
    11d2:	8c 93       	st	X, r24
	CLR_BIT(TIMERS_u8_TCCR1A_REG, TIMER1_WGM10);
    11d4:	af e4       	ldi	r26, 0x4F	; 79
    11d6:	b0 e0       	ldi	r27, 0x00	; 0
    11d8:	ef e4       	ldi	r30, 0x4F	; 79
    11da:	f0 e0       	ldi	r31, 0x00	; 0
    11dc:	80 81       	ld	r24, Z
    11de:	8e 7f       	andi	r24, 0xFE	; 254
    11e0:	8c 93       	st	X, r24
	SET_BIT(TIMERS_u8_TCCR1B_REG, TIMER1_WGM12);
    11e2:	ae e4       	ldi	r26, 0x4E	; 78
    11e4:	b0 e0       	ldi	r27, 0x00	; 0
    11e6:	ee e4       	ldi	r30, 0x4E	; 78
    11e8:	f0 e0       	ldi	r31, 0x00	; 0
    11ea:	80 81       	ld	r24, Z
    11ec:	88 60       	ori	r24, 0x08	; 8
    11ee:	8c 93       	st	X, r24
	SET_BIT(TIMERS_u8_TCCR1B_REG, TIMER1_WGM13);
    11f0:	ae e4       	ldi	r26, 0x4E	; 78
    11f2:	b0 e0       	ldi	r27, 0x00	; 0
    11f4:	ee e4       	ldi	r30, 0x4E	; 78
    11f6:	f0 e0       	ldi	r31, 0x00	; 0
    11f8:	80 81       	ld	r24, Z
    11fa:	80 61       	ori	r24, 0x10	; 16
    11fc:	8c 93       	st	X, r24
	
	/* Select HW Action on OCA1 pin => Non- Inverting */
	SET_BIT(TIMERS_u8_TCCR1A_REG, TIMER1_COM1A1);
    11fe:	af e4       	ldi	r26, 0x4F	; 79
    1200:	b0 e0       	ldi	r27, 0x00	; 0
    1202:	ef e4       	ldi	r30, 0x4F	; 79
    1204:	f0 e0       	ldi	r31, 0x00	; 0
    1206:	80 81       	ld	r24, Z
    1208:	80 68       	ori	r24, 0x80	; 128
    120a:	8c 93       	st	X, r24
	CLR_BIT(TIMERS_u8_TCCR1A_REG, TIMER1_COM1A0);
    120c:	af e4       	ldi	r26, 0x4F	; 79
    120e:	b0 e0       	ldi	r27, 0x00	; 0
    1210:	ef e4       	ldi	r30, 0x4F	; 79
    1212:	f0 e0       	ldi	r31, 0x00	; 0
    1214:	80 81       	ld	r24, Z
    1216:	8f 7b       	andi	r24, 0xBF	; 191
    1218:	8c 93       	st	X, r24

	
	/* Set Prescaler Value => clk / 8 */
	CLR_BIT(TIMERS_u8_TCCR1B_REG, TIMERS_TCCR0_CS00_PIN);
    121a:	ae e4       	ldi	r26, 0x4E	; 78
    121c:	b0 e0       	ldi	r27, 0x00	; 0
    121e:	ee e4       	ldi	r30, 0x4E	; 78
    1220:	f0 e0       	ldi	r31, 0x00	; 0
    1222:	80 81       	ld	r24, Z
    1224:	8e 7f       	andi	r24, 0xFE	; 254
    1226:	8c 93       	st	X, r24
	SET_BIT(TIMERS_u8_TCCR1B_REG, TIMERS_TCCR0_CS01_PIN);
    1228:	ae e4       	ldi	r26, 0x4E	; 78
    122a:	b0 e0       	ldi	r27, 0x00	; 0
    122c:	ee e4       	ldi	r30, 0x4E	; 78
    122e:	f0 e0       	ldi	r31, 0x00	; 0
    1230:	80 81       	ld	r24, Z
    1232:	82 60       	ori	r24, 0x02	; 2
    1234:	8c 93       	st	X, r24
	CLR_BIT(TIMERS_u8_TCCR1B_REG, TIMERS_TCCR0_CS02_PIN);
    1236:	ae e4       	ldi	r26, 0x4E	; 78
    1238:	b0 e0       	ldi	r27, 0x00	; 0
    123a:	ee e4       	ldi	r30, 0x4E	; 78
    123c:	f0 e0       	ldi	r31, 0x00	; 0
    123e:	80 81       	ld	r24, Z
    1240:	8b 7f       	andi	r24, 0xFB	; 251
    1242:	8c 93       	st	X, r24
	
	/* Set Top Value in ICR1 */
	TIMERS_u16_ICR1_REG = 39999;
    1244:	e6 e4       	ldi	r30, 0x46	; 70
    1246:	f0 e0       	ldi	r31, 0x00	; 0
    1248:	8f e3       	ldi	r24, 0x3F	; 63
    124a:	9c e9       	ldi	r25, 0x9C	; 156
    124c:	91 83       	std	Z+1, r25	; 0x01
    124e:	80 83       	st	Z, r24
	
	/* Set Angle Of Servo Motor */
	TIMERS_u16_OCR1A_REG = 3499;
    1250:	ea e4       	ldi	r30, 0x4A	; 74
    1252:	f0 e0       	ldi	r31, 0x00	; 0
    1254:	8b ea       	ldi	r24, 0xAB	; 171
    1256:	9d e0       	ldi	r25, 0x0D	; 13
    1258:	91 83       	std	Z+1, r25	; 0x01
    125a:	80 83       	st	Z, r24
}
    125c:	cf 91       	pop	r28
    125e:	df 91       	pop	r29
    1260:	08 95       	ret

00001262 <TIMERS_u8TIMER0SetCallBack>:


u8 TIMERS_u8TIMER0SetCallBack(void(*Copy_pf)(void)){
    1262:	df 93       	push	r29
    1264:	cf 93       	push	r28
    1266:	00 d0       	rcall	.+0      	; 0x1268 <TIMERS_u8TIMER0SetCallBack+0x6>
    1268:	0f 92       	push	r0
    126a:	cd b7       	in	r28, 0x3d	; 61
    126c:	de b7       	in	r29, 0x3e	; 62
    126e:	9b 83       	std	Y+3, r25	; 0x03
    1270:	8a 83       	std	Y+2, r24	; 0x02
	u8 Local_u8ErrorState = STD_TYPES_OK;
    1272:	81 e0       	ldi	r24, 0x01	; 1
    1274:	89 83       	std	Y+1, r24	; 0x01
	if(Copy_pf != NULL){
    1276:	8a 81       	ldd	r24, Y+2	; 0x02
    1278:	9b 81       	ldd	r25, Y+3	; 0x03
    127a:	00 97       	sbiw	r24, 0x00	; 0
    127c:	39 f0       	breq	.+14     	; 0x128c <TIMERS_u8TIMER0SetCallBack+0x2a>
		TIMERS_pfTIMER0OVF = Copy_pf;
    127e:	8a 81       	ldd	r24, Y+2	; 0x02
    1280:	9b 81       	ldd	r25, Y+3	; 0x03
    1282:	90 93 85 01 	sts	0x0185, r25
    1286:	80 93 84 01 	sts	0x0184, r24
    128a:	01 c0       	rjmp	.+2      	; 0x128e <TIMERS_u8TIMER0SetCallBack+0x2c>
	}
	else{
		Local_u8ErrorState = STD_TYPES_NOK;
    128c:	19 82       	std	Y+1, r1	; 0x01
	}
	return Local_u8ErrorState;
    128e:	89 81       	ldd	r24, Y+1	; 0x01
}
    1290:	0f 90       	pop	r0
    1292:	0f 90       	pop	r0
    1294:	0f 90       	pop	r0
    1296:	cf 91       	pop	r28
    1298:	df 91       	pop	r29
    129a:	08 95       	ret

0000129c <TIMERS_u8TIMER0CTCSetCallBack>:


u8 TIMERS_u8TIMER0CTCSetCallBack(void(*Copy_pf)(void)){
    129c:	df 93       	push	r29
    129e:	cf 93       	push	r28
    12a0:	00 d0       	rcall	.+0      	; 0x12a2 <TIMERS_u8TIMER0CTCSetCallBack+0x6>
    12a2:	0f 92       	push	r0
    12a4:	cd b7       	in	r28, 0x3d	; 61
    12a6:	de b7       	in	r29, 0x3e	; 62
    12a8:	9b 83       	std	Y+3, r25	; 0x03
    12aa:	8a 83       	std	Y+2, r24	; 0x02
	u8 Local_u8ErrorState = STD_TYPES_OK;
    12ac:	81 e0       	ldi	r24, 0x01	; 1
    12ae:	89 83       	std	Y+1, r24	; 0x01
	if(Copy_pf != NULL){
    12b0:	8a 81       	ldd	r24, Y+2	; 0x02
    12b2:	9b 81       	ldd	r25, Y+3	; 0x03
    12b4:	00 97       	sbiw	r24, 0x00	; 0
    12b6:	39 f0       	breq	.+14     	; 0x12c6 <TIMERS_u8TIMER0CTCSetCallBack+0x2a>
		TIMERS_pfTIMER0CTC = Copy_pf;
    12b8:	8a 81       	ldd	r24, Y+2	; 0x02
    12ba:	9b 81       	ldd	r25, Y+3	; 0x03
    12bc:	90 93 87 01 	sts	0x0187, r25
    12c0:	80 93 86 01 	sts	0x0186, r24
    12c4:	01 c0       	rjmp	.+2      	; 0x12c8 <TIMERS_u8TIMER0CTCSetCallBack+0x2c>
	}
	else{
		Local_u8ErrorState = STD_TYPES_NOK;
    12c6:	19 82       	std	Y+1, r1	; 0x01
	}
	return Local_u8ErrorState;
    12c8:	89 81       	ldd	r24, Y+1	; 0x01
}
    12ca:	0f 90       	pop	r0
    12cc:	0f 90       	pop	r0
    12ce:	0f 90       	pop	r0
    12d0:	cf 91       	pop	r28
    12d2:	df 91       	pop	r29
    12d4:	08 95       	ret

000012d6 <TIMERS_voidTIMER0SetCompareMatchValue>:


void TIMERS_voidTIMER0SetCompareMatchValue(u8 Copy_u8OCR0Value){
    12d6:	df 93       	push	r29
    12d8:	cf 93       	push	r28
    12da:	0f 92       	push	r0
    12dc:	cd b7       	in	r28, 0x3d	; 61
    12de:	de b7       	in	r29, 0x3e	; 62
    12e0:	89 83       	std	Y+1, r24	; 0x01

	TIMERS_u8_OCR0_REG = Copy_u8OCR0Value;
    12e2:	ec e5       	ldi	r30, 0x5C	; 92
    12e4:	f0 e0       	ldi	r31, 0x00	; 0
    12e6:	89 81       	ldd	r24, Y+1	; 0x01
    12e8:	80 83       	st	Z, r24
	
}
    12ea:	0f 90       	pop	r0
    12ec:	cf 91       	pop	r28
    12ee:	df 91       	pop	r29
    12f0:	08 95       	ret

000012f2 <TIMERS_voidTIMER0SetPreload>:

void TIMERS_voidTIMER0SetPreload(u8 Copy_u8PreloadValue){
    12f2:	df 93       	push	r29
    12f4:	cf 93       	push	r28
    12f6:	0f 92       	push	r0
    12f8:	cd b7       	in	r28, 0x3d	; 61
    12fa:	de b7       	in	r29, 0x3e	; 62
    12fc:	89 83       	std	Y+1, r24	; 0x01
	TIMERS_u8_TCNT0_REG = Copy_u8PreloadValue;
    12fe:	e2 e5       	ldi	r30, 0x52	; 82
    1300:	f0 e0       	ldi	r31, 0x00	; 0
    1302:	89 81       	ldd	r24, Y+1	; 0x01
    1304:	80 83       	st	Z, r24
}
    1306:	0f 90       	pop	r0
    1308:	cf 91       	pop	r28
    130a:	df 91       	pop	r29
    130c:	08 95       	ret

0000130e <TIMERS_voidTIMER1SetCompareMatchValueA>:

void TIMERS_voidTIMER1SetCompareMatchValueA(u16 Copy_u8OCR1Value){
    130e:	df 93       	push	r29
    1310:	cf 93       	push	r28
    1312:	00 d0       	rcall	.+0      	; 0x1314 <TIMERS_voidTIMER1SetCompareMatchValueA+0x6>
    1314:	cd b7       	in	r28, 0x3d	; 61
    1316:	de b7       	in	r29, 0x3e	; 62
    1318:	9a 83       	std	Y+2, r25	; 0x02
    131a:	89 83       	std	Y+1, r24	; 0x01
	TIMERS_u16_OCR1A_REG = Copy_u8OCR1Value;
    131c:	ea e4       	ldi	r30, 0x4A	; 74
    131e:	f0 e0       	ldi	r31, 0x00	; 0
    1320:	89 81       	ldd	r24, Y+1	; 0x01
    1322:	9a 81       	ldd	r25, Y+2	; 0x02
    1324:	91 83       	std	Z+1, r25	; 0x01
    1326:	80 83       	st	Z, r24
}
    1328:	0f 90       	pop	r0
    132a:	0f 90       	pop	r0
    132c:	cf 91       	pop	r28
    132e:	df 91       	pop	r29
    1330:	08 95       	ret

00001332 <TIMERS_voidTIMER1SetTimerValue>:

void TIMERS_voidTIMER1SetTimerValue(u16 Copy_u8OCR1Value){
    1332:	df 93       	push	r29
    1334:	cf 93       	push	r28
    1336:	00 d0       	rcall	.+0      	; 0x1338 <TIMERS_voidTIMER1SetTimerValue+0x6>
    1338:	cd b7       	in	r28, 0x3d	; 61
    133a:	de b7       	in	r29, 0x3e	; 62
    133c:	9a 83       	std	Y+2, r25	; 0x02
    133e:	89 83       	std	Y+1, r24	; 0x01
	TIMERS_u16_TCNT1_REG = Copy_u8OCR1Value;
    1340:	ec e4       	ldi	r30, 0x4C	; 76
    1342:	f0 e0       	ldi	r31, 0x00	; 0
    1344:	89 81       	ldd	r24, Y+1	; 0x01
    1346:	9a 81       	ldd	r25, Y+2	; 0x02
    1348:	91 83       	std	Z+1, r25	; 0x01
    134a:	80 83       	st	Z, r24
}
    134c:	0f 90       	pop	r0
    134e:	0f 90       	pop	r0
    1350:	cf 91       	pop	r28
    1352:	df 91       	pop	r29
    1354:	08 95       	ret

00001356 <TIMERS_u16TIMER1ReadTimerValue>:

u16 TIMERS_u16TIMER1ReadTimerValue(void){
    1356:	df 93       	push	r29
    1358:	cf 93       	push	r28
    135a:	cd b7       	in	r28, 0x3d	; 61
    135c:	de b7       	in	r29, 0x3e	; 62
	return TIMERS_u16_TCNT1_REG;
    135e:	ec e4       	ldi	r30, 0x4C	; 76
    1360:	f0 e0       	ldi	r31, 0x00	; 0
    1362:	80 81       	ld	r24, Z
    1364:	91 81       	ldd	r25, Z+1	; 0x01
}
    1366:	cf 91       	pop	r28
    1368:	df 91       	pop	r29
    136a:	08 95       	ret

0000136c <__vector_11>:

/********************** ISR Of Timer0 Overflow ************************/

void __vector_11(void)		__attribute__((signal));

void __vector_11(void){
    136c:	1f 92       	push	r1
    136e:	0f 92       	push	r0
    1370:	0f b6       	in	r0, 0x3f	; 63
    1372:	0f 92       	push	r0
    1374:	11 24       	eor	r1, r1
    1376:	2f 93       	push	r18
    1378:	3f 93       	push	r19
    137a:	4f 93       	push	r20
    137c:	5f 93       	push	r21
    137e:	6f 93       	push	r22
    1380:	7f 93       	push	r23
    1382:	8f 93       	push	r24
    1384:	9f 93       	push	r25
    1386:	af 93       	push	r26
    1388:	bf 93       	push	r27
    138a:	ef 93       	push	r30
    138c:	ff 93       	push	r31
    138e:	df 93       	push	r29
    1390:	cf 93       	push	r28
    1392:	cd b7       	in	r28, 0x3d	; 61
    1394:	de b7       	in	r29, 0x3e	; 62
	static u16 Local_u16CounterOVF = 0;
	Local_u16CounterOVF++;
    1396:	80 91 88 01 	lds	r24, 0x0188
    139a:	90 91 89 01 	lds	r25, 0x0189
    139e:	01 96       	adiw	r24, 0x01	; 1
    13a0:	90 93 89 01 	sts	0x0189, r25
    13a4:	80 93 88 01 	sts	0x0188, r24
	if(Local_u16CounterOVF == 3907){
    13a8:	80 91 88 01 	lds	r24, 0x0188
    13ac:	90 91 89 01 	lds	r25, 0x0189
    13b0:	2f e0       	ldi	r18, 0x0F	; 15
    13b2:	83 34       	cpi	r24, 0x43	; 67
    13b4:	92 07       	cpc	r25, r18
    13b6:	99 f4       	brne	.+38     	; 0x13de <__vector_11+0x72>
		/* Update Preload Value */
		TIMERS_u8_TCNT0_REG = 192;
    13b8:	e2 e5       	ldi	r30, 0x52	; 82
    13ba:	f0 e0       	ldi	r31, 0x00	; 0
    13bc:	80 ec       	ldi	r24, 0xC0	; 192
    13be:	80 83       	st	Z, r24
		
		/* Clear Overflow Counter */
		Local_u16CounterOVF = 0;
    13c0:	10 92 89 01 	sts	0x0189, r1
    13c4:	10 92 88 01 	sts	0x0188, r1
		
		/* Call App Function */
		if(TIMERS_pfTIMER0OVF != NULL){
    13c8:	80 91 84 01 	lds	r24, 0x0184
    13cc:	90 91 85 01 	lds	r25, 0x0185
    13d0:	00 97       	sbiw	r24, 0x00	; 0
    13d2:	29 f0       	breq	.+10     	; 0x13de <__vector_11+0x72>
			TIMERS_pfTIMER0OVF();
    13d4:	e0 91 84 01 	lds	r30, 0x0184
    13d8:	f0 91 85 01 	lds	r31, 0x0185
    13dc:	09 95       	icall
		}
	}
}
    13de:	cf 91       	pop	r28
    13e0:	df 91       	pop	r29
    13e2:	ff 91       	pop	r31
    13e4:	ef 91       	pop	r30
    13e6:	bf 91       	pop	r27
    13e8:	af 91       	pop	r26
    13ea:	9f 91       	pop	r25
    13ec:	8f 91       	pop	r24
    13ee:	7f 91       	pop	r23
    13f0:	6f 91       	pop	r22
    13f2:	5f 91       	pop	r21
    13f4:	4f 91       	pop	r20
    13f6:	3f 91       	pop	r19
    13f8:	2f 91       	pop	r18
    13fa:	0f 90       	pop	r0
    13fc:	0f be       	out	0x3f, r0	; 63
    13fe:	0f 90       	pop	r0
    1400:	1f 90       	pop	r1
    1402:	18 95       	reti

00001404 <__vector_10>:

/********************** ISR Of Timer0 CTC ************************/

void __vector_10(void)		__attribute__((signal));

void __vector_10(void){
    1404:	1f 92       	push	r1
    1406:	0f 92       	push	r0
    1408:	0f b6       	in	r0, 0x3f	; 63
    140a:	0f 92       	push	r0
    140c:	11 24       	eor	r1, r1
    140e:	2f 93       	push	r18
    1410:	3f 93       	push	r19
    1412:	4f 93       	push	r20
    1414:	5f 93       	push	r21
    1416:	6f 93       	push	r22
    1418:	7f 93       	push	r23
    141a:	8f 93       	push	r24
    141c:	9f 93       	push	r25
    141e:	af 93       	push	r26
    1420:	bf 93       	push	r27
    1422:	ef 93       	push	r30
    1424:	ff 93       	push	r31
    1426:	df 93       	push	r29
    1428:	cf 93       	push	r28
    142a:	cd b7       	in	r28, 0x3d	; 61
    142c:	de b7       	in	r29, 0x3e	; 62
	static u16 Local_u16CounterCTC = 0;
	Local_u16CounterCTC++;
    142e:	80 91 8a 01 	lds	r24, 0x018A
    1432:	90 91 8b 01 	lds	r25, 0x018B
    1436:	01 96       	adiw	r24, 0x01	; 1
    1438:	90 93 8b 01 	sts	0x018B, r25
    143c:	80 93 8a 01 	sts	0x018A, r24
	if(Local_u16CounterCTC == 10000){
    1440:	80 91 8a 01 	lds	r24, 0x018A
    1444:	90 91 8b 01 	lds	r25, 0x018B
    1448:	27 e2       	ldi	r18, 0x27	; 39
    144a:	80 31       	cpi	r24, 0x10	; 16
    144c:	92 07       	cpc	r25, r18
    144e:	79 f4       	brne	.+30     	; 0x146e <__vector_10+0x6a>
		Local_u16CounterCTC = 0;
    1450:	10 92 8b 01 	sts	0x018B, r1
    1454:	10 92 8a 01 	sts	0x018A, r1
		/* Call App Function */
		if(TIMERS_pfTIMER0CTC != NULL){
    1458:	80 91 86 01 	lds	r24, 0x0186
    145c:	90 91 87 01 	lds	r25, 0x0187
    1460:	00 97       	sbiw	r24, 0x00	; 0
    1462:	29 f0       	breq	.+10     	; 0x146e <__vector_10+0x6a>
			TIMERS_pfTIMER0CTC();
    1464:	e0 91 86 01 	lds	r30, 0x0186
    1468:	f0 91 87 01 	lds	r31, 0x0187
    146c:	09 95       	icall
		}
	}
}
    146e:	cf 91       	pop	r28
    1470:	df 91       	pop	r29
    1472:	ff 91       	pop	r31
    1474:	ef 91       	pop	r30
    1476:	bf 91       	pop	r27
    1478:	af 91       	pop	r26
    147a:	9f 91       	pop	r25
    147c:	8f 91       	pop	r24
    147e:	7f 91       	pop	r23
    1480:	6f 91       	pop	r22
    1482:	5f 91       	pop	r21
    1484:	4f 91       	pop	r20
    1486:	3f 91       	pop	r19
    1488:	2f 91       	pop	r18
    148a:	0f 90       	pop	r0
    148c:	0f be       	out	0x3f, r0	; 63
    148e:	0f 90       	pop	r0
    1490:	1f 90       	pop	r1
    1492:	18 95       	reti

00001494 <Switch_Init>:
#include "../../MCAL/DIO/DIO_Interface.h";
#include "Switch_Private.h";
#include "Switch_Config.h";


void Switch_Init(Switch * Arr, u8 Switchf_Num){
    1494:	df 93       	push	r29
    1496:	cf 93       	push	r28
    1498:	00 d0       	rcall	.+0      	; 0x149a <Switch_Init+0x6>
    149a:	00 d0       	rcall	.+0      	; 0x149c <Switch_Init+0x8>
    149c:	0f 92       	push	r0
    149e:	cd b7       	in	r28, 0x3d	; 61
    14a0:	de b7       	in	r29, 0x3e	; 62
    14a2:	9c 83       	std	Y+4, r25	; 0x04
    14a4:	8b 83       	std	Y+3, r24	; 0x03
    14a6:	6d 83       	std	Y+5, r22	; 0x05

	for(int i = 0; i < Switchf_Num; i++){
    14a8:	1a 82       	std	Y+2, r1	; 0x02
    14aa:	19 82       	std	Y+1, r1	; 0x01
    14ac:	50 c0       	rjmp	.+160    	; 0x154e <Switch_Init+0xba>
		DIO_u8SetPinDirection(Arr[i].Switch_Port, Arr[i].Switch_Pin, DIO_u8_INPUT);
    14ae:	29 81       	ldd	r18, Y+1	; 0x01
    14b0:	3a 81       	ldd	r19, Y+2	; 0x02
    14b2:	c9 01       	movw	r24, r18
    14b4:	88 0f       	add	r24, r24
    14b6:	99 1f       	adc	r25, r25
    14b8:	28 0f       	add	r18, r24
    14ba:	39 1f       	adc	r19, r25
    14bc:	8b 81       	ldd	r24, Y+3	; 0x03
    14be:	9c 81       	ldd	r25, Y+4	; 0x04
    14c0:	fc 01       	movw	r30, r24
    14c2:	e2 0f       	add	r30, r18
    14c4:	f3 1f       	adc	r31, r19
    14c6:	40 81       	ld	r20, Z
    14c8:	29 81       	ldd	r18, Y+1	; 0x01
    14ca:	3a 81       	ldd	r19, Y+2	; 0x02
    14cc:	c9 01       	movw	r24, r18
    14ce:	88 0f       	add	r24, r24
    14d0:	99 1f       	adc	r25, r25
    14d2:	28 0f       	add	r18, r24
    14d4:	39 1f       	adc	r19, r25
    14d6:	8b 81       	ldd	r24, Y+3	; 0x03
    14d8:	9c 81       	ldd	r25, Y+4	; 0x04
    14da:	fc 01       	movw	r30, r24
    14dc:	e2 0f       	add	r30, r18
    14de:	f3 1f       	adc	r31, r19
    14e0:	91 81       	ldd	r25, Z+1	; 0x01
    14e2:	84 2f       	mov	r24, r20
    14e4:	69 2f       	mov	r22, r25
    14e6:	40 e0       	ldi	r20, 0x00	; 0
    14e8:	0e 94 78 11 	call	0x22f0	; 0x22f0 <DIO_u8SetPinDirection>
		DIO_u8SetPinValue(Arr[i].Switch_Port, Arr[i].Switch_Pin, Arr[i].Switch_State);
    14ec:	29 81       	ldd	r18, Y+1	; 0x01
    14ee:	3a 81       	ldd	r19, Y+2	; 0x02
    14f0:	c9 01       	movw	r24, r18
    14f2:	88 0f       	add	r24, r24
    14f4:	99 1f       	adc	r25, r25
    14f6:	28 0f       	add	r18, r24
    14f8:	39 1f       	adc	r19, r25
    14fa:	8b 81       	ldd	r24, Y+3	; 0x03
    14fc:	9c 81       	ldd	r25, Y+4	; 0x04
    14fe:	fc 01       	movw	r30, r24
    1500:	e2 0f       	add	r30, r18
    1502:	f3 1f       	adc	r31, r19
    1504:	50 81       	ld	r21, Z
    1506:	29 81       	ldd	r18, Y+1	; 0x01
    1508:	3a 81       	ldd	r19, Y+2	; 0x02
    150a:	c9 01       	movw	r24, r18
    150c:	88 0f       	add	r24, r24
    150e:	99 1f       	adc	r25, r25
    1510:	28 0f       	add	r18, r24
    1512:	39 1f       	adc	r19, r25
    1514:	8b 81       	ldd	r24, Y+3	; 0x03
    1516:	9c 81       	ldd	r25, Y+4	; 0x04
    1518:	fc 01       	movw	r30, r24
    151a:	e2 0f       	add	r30, r18
    151c:	f3 1f       	adc	r31, r19
    151e:	41 81       	ldd	r20, Z+1	; 0x01
    1520:	29 81       	ldd	r18, Y+1	; 0x01
    1522:	3a 81       	ldd	r19, Y+2	; 0x02
    1524:	c9 01       	movw	r24, r18
    1526:	88 0f       	add	r24, r24
    1528:	99 1f       	adc	r25, r25
    152a:	28 0f       	add	r18, r24
    152c:	39 1f       	adc	r19, r25
    152e:	8b 81       	ldd	r24, Y+3	; 0x03
    1530:	9c 81       	ldd	r25, Y+4	; 0x04
    1532:	fc 01       	movw	r30, r24
    1534:	e2 0f       	add	r30, r18
    1536:	f3 1f       	adc	r31, r19
    1538:	92 81       	ldd	r25, Z+2	; 0x02
    153a:	85 2f       	mov	r24, r21
    153c:	64 2f       	mov	r22, r20
    153e:	49 2f       	mov	r20, r25
    1540:	0e 94 a2 12 	call	0x2544	; 0x2544 <DIO_u8SetPinValue>
#include "Switch_Config.h";


void Switch_Init(Switch * Arr, u8 Switchf_Num){

	for(int i = 0; i < Switchf_Num; i++){
    1544:	89 81       	ldd	r24, Y+1	; 0x01
    1546:	9a 81       	ldd	r25, Y+2	; 0x02
    1548:	01 96       	adiw	r24, 0x01	; 1
    154a:	9a 83       	std	Y+2, r25	; 0x02
    154c:	89 83       	std	Y+1, r24	; 0x01
    154e:	8d 81       	ldd	r24, Y+5	; 0x05
    1550:	28 2f       	mov	r18, r24
    1552:	30 e0       	ldi	r19, 0x00	; 0
    1554:	89 81       	ldd	r24, Y+1	; 0x01
    1556:	9a 81       	ldd	r25, Y+2	; 0x02
    1558:	82 17       	cp	r24, r18
    155a:	93 07       	cpc	r25, r19
    155c:	0c f4       	brge	.+2      	; 0x1560 <Switch_Init+0xcc>
    155e:	a7 cf       	rjmp	.-178    	; 0x14ae <Switch_Init+0x1a>
		DIO_u8SetPinDirection(Arr[i].Switch_Port, Arr[i].Switch_Pin, DIO_u8_INPUT);
		DIO_u8SetPinValue(Arr[i].Switch_Port, Arr[i].Switch_Pin, Arr[i].Switch_State);
	}

}
    1560:	0f 90       	pop	r0
    1562:	0f 90       	pop	r0
    1564:	0f 90       	pop	r0
    1566:	0f 90       	pop	r0
    1568:	0f 90       	pop	r0
    156a:	cf 91       	pop	r28
    156c:	df 91       	pop	r29
    156e:	08 95       	ret

00001570 <Switch_GetValue>:


void Switch_GetValue(Switch *Arr ,u8 *ptr_Value){
    1570:	df 93       	push	r29
    1572:	cf 93       	push	r28
    1574:	00 d0       	rcall	.+0      	; 0x1576 <Switch_GetValue+0x6>
    1576:	00 d0       	rcall	.+0      	; 0x1578 <Switch_GetValue+0x8>
    1578:	cd b7       	in	r28, 0x3d	; 61
    157a:	de b7       	in	r29, 0x3e	; 62
    157c:	9a 83       	std	Y+2, r25	; 0x02
    157e:	89 83       	std	Y+1, r24	; 0x01
    1580:	7c 83       	std	Y+4, r23	; 0x04
    1582:	6b 83       	std	Y+3, r22	; 0x03
	DIO_u8GetPinValue(Arr->Switch_Port, Arr->Switch_Pin, ptr_Value);
    1584:	e9 81       	ldd	r30, Y+1	; 0x01
    1586:	fa 81       	ldd	r31, Y+2	; 0x02
    1588:	80 81       	ld	r24, Z
    158a:	e9 81       	ldd	r30, Y+1	; 0x01
    158c:	fa 81       	ldd	r31, Y+2	; 0x02
    158e:	91 81       	ldd	r25, Z+1	; 0x01
    1590:	2b 81       	ldd	r18, Y+3	; 0x03
    1592:	3c 81       	ldd	r19, Y+4	; 0x04
    1594:	69 2f       	mov	r22, r25
    1596:	a9 01       	movw	r20, r18
    1598:	0e 94 d3 13 	call	0x27a6	; 0x27a6 <DIO_u8GetPinValue>
}
    159c:	0f 90       	pop	r0
    159e:	0f 90       	pop	r0
    15a0:	0f 90       	pop	r0
    15a2:	0f 90       	pop	r0
    15a4:	cf 91       	pop	r28
    15a6:	df 91       	pop	r29
    15a8:	08 95       	ret

000015aa <SPI_voidInit>:

#include "SPI_Config.h"
#include "SPI_Private.h"


void SPI_voidInit(void){
    15aa:	df 93       	push	r29
    15ac:	cf 93       	push	r28
    15ae:	cd b7       	in	r28, 0x3d	; 61
    15b0:	de b7       	in	r29, 0x3e	; 62
	
	/* Select MC Mood */
	#if MC_Mode == Master
		/* PINS Direction */
		DIO_u8SetPinDirection(DIO_u8_PORTB, DIO_u8_PIN4, DIO_u8_INPUT);
    15b2:	81 e0       	ldi	r24, 0x01	; 1
    15b4:	64 e0       	ldi	r22, 0x04	; 4
    15b6:	40 e0       	ldi	r20, 0x00	; 0
    15b8:	0e 94 78 11 	call	0x22f0	; 0x22f0 <DIO_u8SetPinDirection>
		DIO_u8SetPinDirection(DIO_u8_PORTB, DIO_u8_PIN5, DIO_u8_OUTPUT);
    15bc:	81 e0       	ldi	r24, 0x01	; 1
    15be:	65 e0       	ldi	r22, 0x05	; 5
    15c0:	41 e0       	ldi	r20, 0x01	; 1
    15c2:	0e 94 78 11 	call	0x22f0	; 0x22f0 <DIO_u8SetPinDirection>
		DIO_u8SetPinDirection(DIO_u8_PORTB, DIO_u8_PIN6, DIO_u8_INPUT);
    15c6:	81 e0       	ldi	r24, 0x01	; 1
    15c8:	66 e0       	ldi	r22, 0x06	; 6
    15ca:	40 e0       	ldi	r20, 0x00	; 0
    15cc:	0e 94 78 11 	call	0x22f0	; 0x22f0 <DIO_u8SetPinDirection>
		DIO_u8SetPinDirection(DIO_u8_PORTB, DIO_u8_PIN7, DIO_u8_OUTPUT);
    15d0:	81 e0       	ldi	r24, 0x01	; 1
    15d2:	67 e0       	ldi	r22, 0x07	; 7
    15d4:	41 e0       	ldi	r20, 0x01	; 1
    15d6:	0e 94 78 11 	call	0x22f0	; 0x22f0 <DIO_u8SetPinDirection>
		DIO_u8SetPinValue(DIO_u8_PORTB, DIO_u8_PIN4, DIO_u8_INPUT_PULLUP);
    15da:	81 e0       	ldi	r24, 0x01	; 1
    15dc:	64 e0       	ldi	r22, 0x04	; 4
    15de:	41 e0       	ldi	r20, 0x01	; 1
    15e0:	0e 94 a2 12 	call	0x2544	; 0x2544 <DIO_u8SetPinValue>
		/* Select Data Order => MSB */	
		#if Data_Order_Mode == MSB
			CLR_BIT(SPI_SPCR_REG, SPI_DORD_PIN);
    15e4:	ad e2       	ldi	r26, 0x2D	; 45
    15e6:	b0 e0       	ldi	r27, 0x00	; 0
    15e8:	ed e2       	ldi	r30, 0x2D	; 45
    15ea:	f0 e0       	ldi	r31, 0x00	; 0
    15ec:	80 81       	ld	r24, Z
    15ee:	8f 7d       	andi	r24, 0xDF	; 223
    15f0:	8c 93       	st	X, r24
		#elif Data_Order_Mode == LSB
			SET_BIT(SPI_SPCR_REG, SPI_DORD_PIN);
		#endif
			
		/* Select Master Mode */
		SET_BIT(SPI_SPCR_REG, SPI_MSTR_PIN);
    15f2:	ad e2       	ldi	r26, 0x2D	; 45
    15f4:	b0 e0       	ldi	r27, 0x00	; 0
    15f6:	ed e2       	ldi	r30, 0x2D	; 45
    15f8:	f0 e0       	ldi	r31, 0x00	; 0
    15fa:	80 81       	ld	r24, Z
    15fc:	80 61       	ori	r24, 0x10	; 16
    15fe:	8c 93       	st	X, r24
		#elif Clk_Rate_Mode == Clk_16
			SET_BIT(SPI_SPCR_REG, SPI_SPR0_PIN);
			CLR_BIT(SPI_SPCR_REG, SPI_SPR1_PIN);
			CLR_BIT(SPI_SPSR_REG, SPI_SPI2X_PIN);
		#elif Clk_Rate_Mode == Clk_64
			CLR_BIT(SPI_SPCR_REG, SPI_SPR0_PIN);
    1600:	ad e2       	ldi	r26, 0x2D	; 45
    1602:	b0 e0       	ldi	r27, 0x00	; 0
    1604:	ed e2       	ldi	r30, 0x2D	; 45
    1606:	f0 e0       	ldi	r31, 0x00	; 0
    1608:	80 81       	ld	r24, Z
    160a:	8e 7f       	andi	r24, 0xFE	; 254
    160c:	8c 93       	st	X, r24
			SET_BIT(SPI_SPCR_REG, SPI_SPR1_PIN);
    160e:	ad e2       	ldi	r26, 0x2D	; 45
    1610:	b0 e0       	ldi	r27, 0x00	; 0
    1612:	ed e2       	ldi	r30, 0x2D	; 45
    1614:	f0 e0       	ldi	r31, 0x00	; 0
    1616:	80 81       	ld	r24, Z
    1618:	82 60       	ori	r24, 0x02	; 2
    161a:	8c 93       	st	X, r24
			CLR_BIT(SPI_SPSR_REG, SPI_SPI2X_PIN);
    161c:	ae e2       	ldi	r26, 0x2E	; 46
    161e:	b0 e0       	ldi	r27, 0x00	; 0
    1620:	ee e2       	ldi	r30, 0x2E	; 46
    1622:	f0 e0       	ldi	r31, 0x00	; 0
    1624:	80 81       	ld	r24, Z
    1626:	8e 7f       	andi	r24, 0xFE	; 254
    1628:	8c 93       	st	X, r24
			SET_BIT(SPI_SPSR_REG, SPI_SPI2X_PIN);
		#endif
			
		/* Select Clk Polarity => Falling,Rising */
		#if Clk_Polarity_Mode == Falling_Rising
			SET_BIT(SPI_SPCR_REG, SPI_CPOL_PIN);
    162a:	ad e2       	ldi	r26, 0x2D	; 45
    162c:	b0 e0       	ldi	r27, 0x00	; 0
    162e:	ed e2       	ldi	r30, 0x2D	; 45
    1630:	f0 e0       	ldi	r31, 0x00	; 0
    1632:	80 81       	ld	r24, Z
    1634:	88 60       	ori	r24, 0x08	; 8
    1636:	8c 93       	st	X, r24
			CLR_BIT(SPI_SPCR_REG, SPI_CPOL_PIN);
		#endif 
		
		/* Select Clk Phase => Setup,Sample */
		#if Clk_Phase_Mode == Setup_Sample
			SET_BIT(SPI_SPCR_REG, SPI_CPHA_PIN);
    1638:	ad e2       	ldi	r26, 0x2D	; 45
    163a:	b0 e0       	ldi	r27, 0x00	; 0
    163c:	ed e2       	ldi	r30, 0x2D	; 45
    163e:	f0 e0       	ldi	r31, 0x00	; 0
    1640:	80 81       	ld	r24, Z
    1642:	84 60       	ori	r24, 0x04	; 4
    1644:	8c 93       	st	X, r24
			CLR_BIT(SPI_SPCR_REG, SPI_CPHA_PIN);
		#endif
	#endif 

	/* Enable SPI */
	SET_BIT(SPI_SPCR_REG, SPI_SPE_PIN);
    1646:	ad e2       	ldi	r26, 0x2D	; 45
    1648:	b0 e0       	ldi	r27, 0x00	; 0
    164a:	ed e2       	ldi	r30, 0x2D	; 45
    164c:	f0 e0       	ldi	r31, 0x00	; 0
    164e:	80 81       	ld	r24, Z
    1650:	80 64       	ori	r24, 0x40	; 64
    1652:	8c 93       	st	X, r24
}
    1654:	cf 91       	pop	r28
    1656:	df 91       	pop	r29
    1658:	08 95       	ret

0000165a <SPI_u8SendResieve>:

u8 SPI_u8SendResieve(u8 Copy_u8SendedByte, u8 *Copy_Pu8Recievedyte){
    165a:	df 93       	push	r29
    165c:	cf 93       	push	r28
    165e:	00 d0       	rcall	.+0      	; 0x1660 <SPI_u8SendResieve+0x6>
    1660:	00 d0       	rcall	.+0      	; 0x1662 <SPI_u8SendResieve+0x8>
    1662:	cd b7       	in	r28, 0x3d	; 61
    1664:	de b7       	in	r29, 0x3e	; 62
    1666:	8a 83       	std	Y+2, r24	; 0x02
    1668:	7c 83       	std	Y+4, r23	; 0x04
    166a:	6b 83       	std	Y+3, r22	; 0x03
	u8 Local_u8ErrorState = STD_TYPES_NOK;
    166c:	19 82       	std	Y+1, r1	; 0x01
	if(Copy_Pu8Recievedyte != NULL){
    166e:	8b 81       	ldd	r24, Y+3	; 0x03
    1670:	9c 81       	ldd	r25, Y+4	; 0x04
    1672:	00 97       	sbiw	r24, 0x00	; 0
    1674:	89 f0       	breq	.+34     	; 0x1698 <SPI_u8SendResieve+0x3e>
		/* Send Byte */
		SPI_SPDR_REG = Copy_u8SendedByte;
    1676:	ef e2       	ldi	r30, 0x2F	; 47
    1678:	f0 e0       	ldi	r31, 0x00	; 0
    167a:	8a 81       	ldd	r24, Y+2	; 0x02
    167c:	80 83       	st	Z, r24
		/* Check if Transmission is Completed */
		while((GET_BIT(SPI_SPSR_REG, SPI_SPIF_PIN)) == 0);
    167e:	ee e2       	ldi	r30, 0x2E	; 46
    1680:	f0 e0       	ldi	r31, 0x00	; 0
    1682:	80 81       	ld	r24, Z
    1684:	88 23       	and	r24, r24
    1686:	dc f7       	brge	.-10     	; 0x167e <SPI_u8SendResieve+0x24>
		/* Read Byte */
		*Copy_Pu8Recievedyte = SPI_SPDR_REG;
    1688:	ef e2       	ldi	r30, 0x2F	; 47
    168a:	f0 e0       	ldi	r31, 0x00	; 0
    168c:	80 81       	ld	r24, Z
    168e:	eb 81       	ldd	r30, Y+3	; 0x03
    1690:	fc 81       	ldd	r31, Y+4	; 0x04
    1692:	80 83       	st	Z, r24
		
		Local_u8ErrorState = STD_TYPES_OK;
    1694:	81 e0       	ldi	r24, 0x01	; 1
    1696:	89 83       	std	Y+1, r24	; 0x01
	}
	
	return Local_u8ErrorState;
    1698:	89 81       	ldd	r24, Y+1	; 0x01
}
    169a:	0f 90       	pop	r0
    169c:	0f 90       	pop	r0
    169e:	0f 90       	pop	r0
    16a0:	0f 90       	pop	r0
    16a2:	cf 91       	pop	r28
    16a4:	df 91       	pop	r29
    16a6:	08 95       	ret

000016a8 <SPI_SlaveSendByte>:
void SPI_SlaveSendByte(u8 Copy_DataByte){
    16a8:	df 93       	push	r29
    16aa:	cf 93       	push	r28
    16ac:	0f 92       	push	r0
    16ae:	cd b7       	in	r28, 0x3d	; 61
    16b0:	de b7       	in	r29, 0x3e	; 62
    16b2:	89 83       	std	Y+1, r24	; 0x01
	/* Send Byte */
	SPI_SPDR_REG = Copy_DataByte;
    16b4:	ef e2       	ldi	r30, 0x2F	; 47
    16b6:	f0 e0       	ldi	r31, 0x00	; 0
    16b8:	89 81       	ldd	r24, Y+1	; 0x01
    16ba:	80 83       	st	Z, r24
}
    16bc:	0f 90       	pop	r0
    16be:	cf 91       	pop	r28
    16c0:	df 91       	pop	r29
    16c2:	08 95       	ret

000016c4 <SPI_RecieveByte>:

u8 SPI_RecieveByte(u8 *Copy_Pu8RecievedByte){
    16c4:	df 93       	push	r29
    16c6:	cf 93       	push	r28
    16c8:	00 d0       	rcall	.+0      	; 0x16ca <SPI_RecieveByte+0x6>
    16ca:	0f 92       	push	r0
    16cc:	cd b7       	in	r28, 0x3d	; 61
    16ce:	de b7       	in	r29, 0x3e	; 62
    16d0:	9b 83       	std	Y+3, r25	; 0x03
    16d2:	8a 83       	std	Y+2, r24	; 0x02
	u8 Local_u8ErrorState = STD_TYPES_NOK;
    16d4:	19 82       	std	Y+1, r1	; 0x01
	if(Copy_Pu8RecievedByte != NULL){
    16d6:	8a 81       	ldd	r24, Y+2	; 0x02
    16d8:	9b 81       	ldd	r25, Y+3	; 0x03
    16da:	00 97       	sbiw	r24, 0x00	; 0
    16dc:	69 f0       	breq	.+26     	; 0x16f8 <SPI_RecieveByte+0x34>
		/* Check if Transmission is Completed */
		while((GET_BIT(SPI_SPSR_REG, SPI_SPIF_PIN)) == 0);
    16de:	ee e2       	ldi	r30, 0x2E	; 46
    16e0:	f0 e0       	ldi	r31, 0x00	; 0
    16e2:	80 81       	ld	r24, Z
    16e4:	88 23       	and	r24, r24
    16e6:	dc f7       	brge	.-10     	; 0x16de <SPI_RecieveByte+0x1a>
		/* Read Byte */
		*Copy_Pu8RecievedByte = SPI_SPDR_REG;
    16e8:	ef e2       	ldi	r30, 0x2F	; 47
    16ea:	f0 e0       	ldi	r31, 0x00	; 0
    16ec:	80 81       	ld	r24, Z
    16ee:	ea 81       	ldd	r30, Y+2	; 0x02
    16f0:	fb 81       	ldd	r31, Y+3	; 0x03
    16f2:	80 83       	st	Z, r24
		
		Local_u8ErrorState = STD_TYPES_OK;
    16f4:	81 e0       	ldi	r24, 0x01	; 1
    16f6:	89 83       	std	Y+1, r24	; 0x01
	}
	
	return Local_u8ErrorState;
    16f8:	89 81       	ldd	r24, Y+1	; 0x01
}
    16fa:	0f 90       	pop	r0
    16fc:	0f 90       	pop	r0
    16fe:	0f 90       	pop	r0
    1700:	cf 91       	pop	r28
    1702:	df 91       	pop	r29
    1704:	08 95       	ret

00001706 <LCD_setPinDirection>:
 * Description :
 * Setup the direction of the required pin input/output.
 * If the input port number or pin number are not correct, The function will not handle the request.
 */
void LCD_setPinDirection(u8 port_num, u8 pin_num, LCD_PinDirectionType direction)
{
    1706:	df 93       	push	r29
    1708:	cf 93       	push	r28
    170a:	00 d0       	rcall	.+0      	; 0x170c <LCD_setPinDirection+0x6>
    170c:	00 d0       	rcall	.+0      	; 0x170e <LCD_setPinDirection+0x8>
    170e:	0f 92       	push	r0
    1710:	cd b7       	in	r28, 0x3d	; 61
    1712:	de b7       	in	r29, 0x3e	; 62
    1714:	89 83       	std	Y+1, r24	; 0x01
    1716:	6a 83       	std	Y+2, r22	; 0x02
    1718:	4b 83       	std	Y+3, r20	; 0x03
	if((pin_num >= NUM_OF_PINS_PER_PORT) || (port_num >= NUM_OF_PORTS))
    171a:	8a 81       	ldd	r24, Y+2	; 0x02
    171c:	88 30       	cpi	r24, 0x08	; 8
    171e:	08 f0       	brcs	.+2      	; 0x1722 <LCD_setPinDirection+0x1c>
    1720:	d5 c0       	rjmp	.+426    	; 0x18cc <LCD_setPinDirection+0x1c6>
    1722:	89 81       	ldd	r24, Y+1	; 0x01
    1724:	84 30       	cpi	r24, 0x04	; 4
    1726:	08 f0       	brcs	.+2      	; 0x172a <LCD_setPinDirection+0x24>
    1728:	d1 c0       	rjmp	.+418    	; 0x18cc <LCD_setPinDirection+0x1c6>
		/* Do Nothing */
	}
	else
	{
		/* Setup the pin direction as required */
		switch(port_num)
    172a:	89 81       	ldd	r24, Y+1	; 0x01
    172c:	28 2f       	mov	r18, r24
    172e:	30 e0       	ldi	r19, 0x00	; 0
    1730:	3d 83       	std	Y+5, r19	; 0x05
    1732:	2c 83       	std	Y+4, r18	; 0x04
    1734:	8c 81       	ldd	r24, Y+4	; 0x04
    1736:	9d 81       	ldd	r25, Y+5	; 0x05
    1738:	81 30       	cpi	r24, 0x01	; 1
    173a:	91 05       	cpc	r25, r1
    173c:	09 f4       	brne	.+2      	; 0x1740 <LCD_setPinDirection+0x3a>
    173e:	43 c0       	rjmp	.+134    	; 0x17c6 <LCD_setPinDirection+0xc0>
    1740:	2c 81       	ldd	r18, Y+4	; 0x04
    1742:	3d 81       	ldd	r19, Y+5	; 0x05
    1744:	22 30       	cpi	r18, 0x02	; 2
    1746:	31 05       	cpc	r19, r1
    1748:	2c f4       	brge	.+10     	; 0x1754 <LCD_setPinDirection+0x4e>
    174a:	8c 81       	ldd	r24, Y+4	; 0x04
    174c:	9d 81       	ldd	r25, Y+5	; 0x05
    174e:	00 97       	sbiw	r24, 0x00	; 0
    1750:	71 f0       	breq	.+28     	; 0x176e <LCD_setPinDirection+0x68>
    1752:	bc c0       	rjmp	.+376    	; 0x18cc <LCD_setPinDirection+0x1c6>
    1754:	2c 81       	ldd	r18, Y+4	; 0x04
    1756:	3d 81       	ldd	r19, Y+5	; 0x05
    1758:	22 30       	cpi	r18, 0x02	; 2
    175a:	31 05       	cpc	r19, r1
    175c:	09 f4       	brne	.+2      	; 0x1760 <LCD_setPinDirection+0x5a>
    175e:	5f c0       	rjmp	.+190    	; 0x181e <LCD_setPinDirection+0x118>
    1760:	8c 81       	ldd	r24, Y+4	; 0x04
    1762:	9d 81       	ldd	r25, Y+5	; 0x05
    1764:	83 30       	cpi	r24, 0x03	; 3
    1766:	91 05       	cpc	r25, r1
    1768:	09 f4       	brne	.+2      	; 0x176c <LCD_setPinDirection+0x66>
    176a:	85 c0       	rjmp	.+266    	; 0x1876 <LCD_setPinDirection+0x170>
    176c:	af c0       	rjmp	.+350    	; 0x18cc <LCD_setPinDirection+0x1c6>
		{
		case PORTA_ID:
			if(direction == PIN_OUTPUT)
    176e:	8b 81       	ldd	r24, Y+3	; 0x03
    1770:	81 30       	cpi	r24, 0x01	; 1
    1772:	a1 f4       	brne	.+40     	; 0x179c <LCD_setPinDirection+0x96>
			{
				SET_BIT(DDRA,pin_num);
    1774:	aa e3       	ldi	r26, 0x3A	; 58
    1776:	b0 e0       	ldi	r27, 0x00	; 0
    1778:	ea e3       	ldi	r30, 0x3A	; 58
    177a:	f0 e0       	ldi	r31, 0x00	; 0
    177c:	80 81       	ld	r24, Z
    177e:	48 2f       	mov	r20, r24
    1780:	8a 81       	ldd	r24, Y+2	; 0x02
    1782:	28 2f       	mov	r18, r24
    1784:	30 e0       	ldi	r19, 0x00	; 0
    1786:	81 e0       	ldi	r24, 0x01	; 1
    1788:	90 e0       	ldi	r25, 0x00	; 0
    178a:	02 2e       	mov	r0, r18
    178c:	02 c0       	rjmp	.+4      	; 0x1792 <LCD_setPinDirection+0x8c>
    178e:	88 0f       	add	r24, r24
    1790:	99 1f       	adc	r25, r25
    1792:	0a 94       	dec	r0
    1794:	e2 f7       	brpl	.-8      	; 0x178e <LCD_setPinDirection+0x88>
    1796:	84 2b       	or	r24, r20
    1798:	8c 93       	st	X, r24
    179a:	98 c0       	rjmp	.+304    	; 0x18cc <LCD_setPinDirection+0x1c6>
			}
			else
			{
				CLR_BIT(DDRA,pin_num);
    179c:	aa e3       	ldi	r26, 0x3A	; 58
    179e:	b0 e0       	ldi	r27, 0x00	; 0
    17a0:	ea e3       	ldi	r30, 0x3A	; 58
    17a2:	f0 e0       	ldi	r31, 0x00	; 0
    17a4:	80 81       	ld	r24, Z
    17a6:	48 2f       	mov	r20, r24
    17a8:	8a 81       	ldd	r24, Y+2	; 0x02
    17aa:	28 2f       	mov	r18, r24
    17ac:	30 e0       	ldi	r19, 0x00	; 0
    17ae:	81 e0       	ldi	r24, 0x01	; 1
    17b0:	90 e0       	ldi	r25, 0x00	; 0
    17b2:	02 2e       	mov	r0, r18
    17b4:	02 c0       	rjmp	.+4      	; 0x17ba <LCD_setPinDirection+0xb4>
    17b6:	88 0f       	add	r24, r24
    17b8:	99 1f       	adc	r25, r25
    17ba:	0a 94       	dec	r0
    17bc:	e2 f7       	brpl	.-8      	; 0x17b6 <LCD_setPinDirection+0xb0>
    17be:	80 95       	com	r24
    17c0:	84 23       	and	r24, r20
    17c2:	8c 93       	st	X, r24
    17c4:	83 c0       	rjmp	.+262    	; 0x18cc <LCD_setPinDirection+0x1c6>
			}
			break;
		case PORTB_ID:
			if(direction == PIN_OUTPUT)
    17c6:	8b 81       	ldd	r24, Y+3	; 0x03
    17c8:	81 30       	cpi	r24, 0x01	; 1
    17ca:	a1 f4       	brne	.+40     	; 0x17f4 <LCD_setPinDirection+0xee>
			{
				SET_BIT(DDRB,pin_num);
    17cc:	a7 e3       	ldi	r26, 0x37	; 55
    17ce:	b0 e0       	ldi	r27, 0x00	; 0
    17d0:	e7 e3       	ldi	r30, 0x37	; 55
    17d2:	f0 e0       	ldi	r31, 0x00	; 0
    17d4:	80 81       	ld	r24, Z
    17d6:	48 2f       	mov	r20, r24
    17d8:	8a 81       	ldd	r24, Y+2	; 0x02
    17da:	28 2f       	mov	r18, r24
    17dc:	30 e0       	ldi	r19, 0x00	; 0
    17de:	81 e0       	ldi	r24, 0x01	; 1
    17e0:	90 e0       	ldi	r25, 0x00	; 0
    17e2:	02 2e       	mov	r0, r18
    17e4:	02 c0       	rjmp	.+4      	; 0x17ea <LCD_setPinDirection+0xe4>
    17e6:	88 0f       	add	r24, r24
    17e8:	99 1f       	adc	r25, r25
    17ea:	0a 94       	dec	r0
    17ec:	e2 f7       	brpl	.-8      	; 0x17e6 <LCD_setPinDirection+0xe0>
    17ee:	84 2b       	or	r24, r20
    17f0:	8c 93       	st	X, r24
    17f2:	6c c0       	rjmp	.+216    	; 0x18cc <LCD_setPinDirection+0x1c6>
			}
			else
			{
				CLR_BIT(DDRB,pin_num);
    17f4:	a7 e3       	ldi	r26, 0x37	; 55
    17f6:	b0 e0       	ldi	r27, 0x00	; 0
    17f8:	e7 e3       	ldi	r30, 0x37	; 55
    17fa:	f0 e0       	ldi	r31, 0x00	; 0
    17fc:	80 81       	ld	r24, Z
    17fe:	48 2f       	mov	r20, r24
    1800:	8a 81       	ldd	r24, Y+2	; 0x02
    1802:	28 2f       	mov	r18, r24
    1804:	30 e0       	ldi	r19, 0x00	; 0
    1806:	81 e0       	ldi	r24, 0x01	; 1
    1808:	90 e0       	ldi	r25, 0x00	; 0
    180a:	02 2e       	mov	r0, r18
    180c:	02 c0       	rjmp	.+4      	; 0x1812 <LCD_setPinDirection+0x10c>
    180e:	88 0f       	add	r24, r24
    1810:	99 1f       	adc	r25, r25
    1812:	0a 94       	dec	r0
    1814:	e2 f7       	brpl	.-8      	; 0x180e <LCD_setPinDirection+0x108>
    1816:	80 95       	com	r24
    1818:	84 23       	and	r24, r20
    181a:	8c 93       	st	X, r24
    181c:	57 c0       	rjmp	.+174    	; 0x18cc <LCD_setPinDirection+0x1c6>
			}
			break;
		case PORTC_ID:
			if(direction == PIN_OUTPUT)
    181e:	8b 81       	ldd	r24, Y+3	; 0x03
    1820:	81 30       	cpi	r24, 0x01	; 1
    1822:	a1 f4       	brne	.+40     	; 0x184c <LCD_setPinDirection+0x146>
			{
				SET_BIT(DDRC,pin_num);
    1824:	a4 e3       	ldi	r26, 0x34	; 52
    1826:	b0 e0       	ldi	r27, 0x00	; 0
    1828:	e4 e3       	ldi	r30, 0x34	; 52
    182a:	f0 e0       	ldi	r31, 0x00	; 0
    182c:	80 81       	ld	r24, Z
    182e:	48 2f       	mov	r20, r24
    1830:	8a 81       	ldd	r24, Y+2	; 0x02
    1832:	28 2f       	mov	r18, r24
    1834:	30 e0       	ldi	r19, 0x00	; 0
    1836:	81 e0       	ldi	r24, 0x01	; 1
    1838:	90 e0       	ldi	r25, 0x00	; 0
    183a:	02 2e       	mov	r0, r18
    183c:	02 c0       	rjmp	.+4      	; 0x1842 <LCD_setPinDirection+0x13c>
    183e:	88 0f       	add	r24, r24
    1840:	99 1f       	adc	r25, r25
    1842:	0a 94       	dec	r0
    1844:	e2 f7       	brpl	.-8      	; 0x183e <LCD_setPinDirection+0x138>
    1846:	84 2b       	or	r24, r20
    1848:	8c 93       	st	X, r24
    184a:	40 c0       	rjmp	.+128    	; 0x18cc <LCD_setPinDirection+0x1c6>
			}
			else
			{
				CLR_BIT(DDRC,pin_num);
    184c:	a4 e3       	ldi	r26, 0x34	; 52
    184e:	b0 e0       	ldi	r27, 0x00	; 0
    1850:	e4 e3       	ldi	r30, 0x34	; 52
    1852:	f0 e0       	ldi	r31, 0x00	; 0
    1854:	80 81       	ld	r24, Z
    1856:	48 2f       	mov	r20, r24
    1858:	8a 81       	ldd	r24, Y+2	; 0x02
    185a:	28 2f       	mov	r18, r24
    185c:	30 e0       	ldi	r19, 0x00	; 0
    185e:	81 e0       	ldi	r24, 0x01	; 1
    1860:	90 e0       	ldi	r25, 0x00	; 0
    1862:	02 2e       	mov	r0, r18
    1864:	02 c0       	rjmp	.+4      	; 0x186a <LCD_setPinDirection+0x164>
    1866:	88 0f       	add	r24, r24
    1868:	99 1f       	adc	r25, r25
    186a:	0a 94       	dec	r0
    186c:	e2 f7       	brpl	.-8      	; 0x1866 <LCD_setPinDirection+0x160>
    186e:	80 95       	com	r24
    1870:	84 23       	and	r24, r20
    1872:	8c 93       	st	X, r24
    1874:	2b c0       	rjmp	.+86     	; 0x18cc <LCD_setPinDirection+0x1c6>
			}
			break;
		case PORTD_ID:
			if(direction == PIN_OUTPUT)
    1876:	8b 81       	ldd	r24, Y+3	; 0x03
    1878:	81 30       	cpi	r24, 0x01	; 1
    187a:	a1 f4       	brne	.+40     	; 0x18a4 <LCD_setPinDirection+0x19e>
			{
				SET_BIT(DDRD,pin_num);
    187c:	a1 e3       	ldi	r26, 0x31	; 49
    187e:	b0 e0       	ldi	r27, 0x00	; 0
    1880:	e1 e3       	ldi	r30, 0x31	; 49
    1882:	f0 e0       	ldi	r31, 0x00	; 0
    1884:	80 81       	ld	r24, Z
    1886:	48 2f       	mov	r20, r24
    1888:	8a 81       	ldd	r24, Y+2	; 0x02
    188a:	28 2f       	mov	r18, r24
    188c:	30 e0       	ldi	r19, 0x00	; 0
    188e:	81 e0       	ldi	r24, 0x01	; 1
    1890:	90 e0       	ldi	r25, 0x00	; 0
    1892:	02 2e       	mov	r0, r18
    1894:	02 c0       	rjmp	.+4      	; 0x189a <LCD_setPinDirection+0x194>
    1896:	88 0f       	add	r24, r24
    1898:	99 1f       	adc	r25, r25
    189a:	0a 94       	dec	r0
    189c:	e2 f7       	brpl	.-8      	; 0x1896 <LCD_setPinDirection+0x190>
    189e:	84 2b       	or	r24, r20
    18a0:	8c 93       	st	X, r24
    18a2:	14 c0       	rjmp	.+40     	; 0x18cc <LCD_setPinDirection+0x1c6>
			}
			else
			{
				CLR_BIT(DDRD,pin_num);
    18a4:	a1 e3       	ldi	r26, 0x31	; 49
    18a6:	b0 e0       	ldi	r27, 0x00	; 0
    18a8:	e1 e3       	ldi	r30, 0x31	; 49
    18aa:	f0 e0       	ldi	r31, 0x00	; 0
    18ac:	80 81       	ld	r24, Z
    18ae:	48 2f       	mov	r20, r24
    18b0:	8a 81       	ldd	r24, Y+2	; 0x02
    18b2:	28 2f       	mov	r18, r24
    18b4:	30 e0       	ldi	r19, 0x00	; 0
    18b6:	81 e0       	ldi	r24, 0x01	; 1
    18b8:	90 e0       	ldi	r25, 0x00	; 0
    18ba:	02 2e       	mov	r0, r18
    18bc:	02 c0       	rjmp	.+4      	; 0x18c2 <LCD_setPinDirection+0x1bc>
    18be:	88 0f       	add	r24, r24
    18c0:	99 1f       	adc	r25, r25
    18c2:	0a 94       	dec	r0
    18c4:	e2 f7       	brpl	.-8      	; 0x18be <LCD_setPinDirection+0x1b8>
    18c6:	80 95       	com	r24
    18c8:	84 23       	and	r24, r20
    18ca:	8c 93       	st	X, r24
			}
			break;
		}
	}
}
    18cc:	0f 90       	pop	r0
    18ce:	0f 90       	pop	r0
    18d0:	0f 90       	pop	r0
    18d2:	0f 90       	pop	r0
    18d4:	0f 90       	pop	r0
    18d6:	cf 91       	pop	r28
    18d8:	df 91       	pop	r29
    18da:	08 95       	ret

000018dc <LCD_setPinValue>:

void LCD_setPinValue(u8 port_num, u8 pin_num, u8 value)
{
    18dc:	df 93       	push	r29
    18de:	cf 93       	push	r28
    18e0:	00 d0       	rcall	.+0      	; 0x18e2 <LCD_setPinValue+0x6>
    18e2:	00 d0       	rcall	.+0      	; 0x18e4 <LCD_setPinValue+0x8>
    18e4:	0f 92       	push	r0
    18e6:	cd b7       	in	r28, 0x3d	; 61
    18e8:	de b7       	in	r29, 0x3e	; 62
    18ea:	89 83       	std	Y+1, r24	; 0x01
    18ec:	6a 83       	std	Y+2, r22	; 0x02
    18ee:	4b 83       	std	Y+3, r20	; 0x03

	if((pin_num >= NUM_OF_PINS_PER_PORT) || (port_num >= NUM_OF_PORTS))
    18f0:	8a 81       	ldd	r24, Y+2	; 0x02
    18f2:	88 30       	cpi	r24, 0x08	; 8
    18f4:	08 f0       	brcs	.+2      	; 0x18f8 <LCD_setPinValue+0x1c>
    18f6:	d5 c0       	rjmp	.+426    	; 0x1aa2 <LCD_setPinValue+0x1c6>
    18f8:	89 81       	ldd	r24, Y+1	; 0x01
    18fa:	84 30       	cpi	r24, 0x04	; 4
    18fc:	08 f0       	brcs	.+2      	; 0x1900 <LCD_setPinValue+0x24>
    18fe:	d1 c0       	rjmp	.+418    	; 0x1aa2 <LCD_setPinValue+0x1c6>
		/* Do Nothing */
	}
	else
	{
		/* Write the pin value as required */
		switch(port_num)
    1900:	89 81       	ldd	r24, Y+1	; 0x01
    1902:	28 2f       	mov	r18, r24
    1904:	30 e0       	ldi	r19, 0x00	; 0
    1906:	3d 83       	std	Y+5, r19	; 0x05
    1908:	2c 83       	std	Y+4, r18	; 0x04
    190a:	8c 81       	ldd	r24, Y+4	; 0x04
    190c:	9d 81       	ldd	r25, Y+5	; 0x05
    190e:	81 30       	cpi	r24, 0x01	; 1
    1910:	91 05       	cpc	r25, r1
    1912:	09 f4       	brne	.+2      	; 0x1916 <LCD_setPinValue+0x3a>
    1914:	43 c0       	rjmp	.+134    	; 0x199c <LCD_setPinValue+0xc0>
    1916:	2c 81       	ldd	r18, Y+4	; 0x04
    1918:	3d 81       	ldd	r19, Y+5	; 0x05
    191a:	22 30       	cpi	r18, 0x02	; 2
    191c:	31 05       	cpc	r19, r1
    191e:	2c f4       	brge	.+10     	; 0x192a <LCD_setPinValue+0x4e>
    1920:	8c 81       	ldd	r24, Y+4	; 0x04
    1922:	9d 81       	ldd	r25, Y+5	; 0x05
    1924:	00 97       	sbiw	r24, 0x00	; 0
    1926:	71 f0       	breq	.+28     	; 0x1944 <LCD_setPinValue+0x68>
    1928:	bc c0       	rjmp	.+376    	; 0x1aa2 <LCD_setPinValue+0x1c6>
    192a:	2c 81       	ldd	r18, Y+4	; 0x04
    192c:	3d 81       	ldd	r19, Y+5	; 0x05
    192e:	22 30       	cpi	r18, 0x02	; 2
    1930:	31 05       	cpc	r19, r1
    1932:	09 f4       	brne	.+2      	; 0x1936 <LCD_setPinValue+0x5a>
    1934:	5f c0       	rjmp	.+190    	; 0x19f4 <LCD_setPinValue+0x118>
    1936:	8c 81       	ldd	r24, Y+4	; 0x04
    1938:	9d 81       	ldd	r25, Y+5	; 0x05
    193a:	83 30       	cpi	r24, 0x03	; 3
    193c:	91 05       	cpc	r25, r1
    193e:	09 f4       	brne	.+2      	; 0x1942 <LCD_setPinValue+0x66>
    1940:	85 c0       	rjmp	.+266    	; 0x1a4c <LCD_setPinValue+0x170>
    1942:	af c0       	rjmp	.+350    	; 0x1aa2 <LCD_setPinValue+0x1c6>
		{
		case PORTA_ID:
			if(value == LOGIC_HIGH)
    1944:	8b 81       	ldd	r24, Y+3	; 0x03
    1946:	81 30       	cpi	r24, 0x01	; 1
    1948:	a1 f4       	brne	.+40     	; 0x1972 <LCD_setPinValue+0x96>
			{
				SET_BIT(PORTA,pin_num);
    194a:	ab e3       	ldi	r26, 0x3B	; 59
    194c:	b0 e0       	ldi	r27, 0x00	; 0
    194e:	eb e3       	ldi	r30, 0x3B	; 59
    1950:	f0 e0       	ldi	r31, 0x00	; 0
    1952:	80 81       	ld	r24, Z
    1954:	48 2f       	mov	r20, r24
    1956:	8a 81       	ldd	r24, Y+2	; 0x02
    1958:	28 2f       	mov	r18, r24
    195a:	30 e0       	ldi	r19, 0x00	; 0
    195c:	81 e0       	ldi	r24, 0x01	; 1
    195e:	90 e0       	ldi	r25, 0x00	; 0
    1960:	02 2e       	mov	r0, r18
    1962:	02 c0       	rjmp	.+4      	; 0x1968 <LCD_setPinValue+0x8c>
    1964:	88 0f       	add	r24, r24
    1966:	99 1f       	adc	r25, r25
    1968:	0a 94       	dec	r0
    196a:	e2 f7       	brpl	.-8      	; 0x1964 <LCD_setPinValue+0x88>
    196c:	84 2b       	or	r24, r20
    196e:	8c 93       	st	X, r24
    1970:	98 c0       	rjmp	.+304    	; 0x1aa2 <LCD_setPinValue+0x1c6>
			}
			else
			{
				CLR_BIT(PORTA,pin_num);
    1972:	ab e3       	ldi	r26, 0x3B	; 59
    1974:	b0 e0       	ldi	r27, 0x00	; 0
    1976:	eb e3       	ldi	r30, 0x3B	; 59
    1978:	f0 e0       	ldi	r31, 0x00	; 0
    197a:	80 81       	ld	r24, Z
    197c:	48 2f       	mov	r20, r24
    197e:	8a 81       	ldd	r24, Y+2	; 0x02
    1980:	28 2f       	mov	r18, r24
    1982:	30 e0       	ldi	r19, 0x00	; 0
    1984:	81 e0       	ldi	r24, 0x01	; 1
    1986:	90 e0       	ldi	r25, 0x00	; 0
    1988:	02 2e       	mov	r0, r18
    198a:	02 c0       	rjmp	.+4      	; 0x1990 <LCD_setPinValue+0xb4>
    198c:	88 0f       	add	r24, r24
    198e:	99 1f       	adc	r25, r25
    1990:	0a 94       	dec	r0
    1992:	e2 f7       	brpl	.-8      	; 0x198c <LCD_setPinValue+0xb0>
    1994:	80 95       	com	r24
    1996:	84 23       	and	r24, r20
    1998:	8c 93       	st	X, r24
    199a:	83 c0       	rjmp	.+262    	; 0x1aa2 <LCD_setPinValue+0x1c6>
			}
			break;
		case PORTB_ID:
			if(value == LOGIC_HIGH)
    199c:	8b 81       	ldd	r24, Y+3	; 0x03
    199e:	81 30       	cpi	r24, 0x01	; 1
    19a0:	a1 f4       	brne	.+40     	; 0x19ca <LCD_setPinValue+0xee>
			{
				SET_BIT(PORTB,pin_num);
    19a2:	a8 e3       	ldi	r26, 0x38	; 56
    19a4:	b0 e0       	ldi	r27, 0x00	; 0
    19a6:	e8 e3       	ldi	r30, 0x38	; 56
    19a8:	f0 e0       	ldi	r31, 0x00	; 0
    19aa:	80 81       	ld	r24, Z
    19ac:	48 2f       	mov	r20, r24
    19ae:	8a 81       	ldd	r24, Y+2	; 0x02
    19b0:	28 2f       	mov	r18, r24
    19b2:	30 e0       	ldi	r19, 0x00	; 0
    19b4:	81 e0       	ldi	r24, 0x01	; 1
    19b6:	90 e0       	ldi	r25, 0x00	; 0
    19b8:	02 2e       	mov	r0, r18
    19ba:	02 c0       	rjmp	.+4      	; 0x19c0 <LCD_setPinValue+0xe4>
    19bc:	88 0f       	add	r24, r24
    19be:	99 1f       	adc	r25, r25
    19c0:	0a 94       	dec	r0
    19c2:	e2 f7       	brpl	.-8      	; 0x19bc <LCD_setPinValue+0xe0>
    19c4:	84 2b       	or	r24, r20
    19c6:	8c 93       	st	X, r24
    19c8:	6c c0       	rjmp	.+216    	; 0x1aa2 <LCD_setPinValue+0x1c6>
			}
			else
			{
				CLR_BIT(PORTB,pin_num);
    19ca:	a8 e3       	ldi	r26, 0x38	; 56
    19cc:	b0 e0       	ldi	r27, 0x00	; 0
    19ce:	e8 e3       	ldi	r30, 0x38	; 56
    19d0:	f0 e0       	ldi	r31, 0x00	; 0
    19d2:	80 81       	ld	r24, Z
    19d4:	48 2f       	mov	r20, r24
    19d6:	8a 81       	ldd	r24, Y+2	; 0x02
    19d8:	28 2f       	mov	r18, r24
    19da:	30 e0       	ldi	r19, 0x00	; 0
    19dc:	81 e0       	ldi	r24, 0x01	; 1
    19de:	90 e0       	ldi	r25, 0x00	; 0
    19e0:	02 2e       	mov	r0, r18
    19e2:	02 c0       	rjmp	.+4      	; 0x19e8 <LCD_setPinValue+0x10c>
    19e4:	88 0f       	add	r24, r24
    19e6:	99 1f       	adc	r25, r25
    19e8:	0a 94       	dec	r0
    19ea:	e2 f7       	brpl	.-8      	; 0x19e4 <LCD_setPinValue+0x108>
    19ec:	80 95       	com	r24
    19ee:	84 23       	and	r24, r20
    19f0:	8c 93       	st	X, r24
    19f2:	57 c0       	rjmp	.+174    	; 0x1aa2 <LCD_setPinValue+0x1c6>
			}
			break;
		case PORTC_ID:
			if(value == LOGIC_HIGH)
    19f4:	8b 81       	ldd	r24, Y+3	; 0x03
    19f6:	81 30       	cpi	r24, 0x01	; 1
    19f8:	a1 f4       	brne	.+40     	; 0x1a22 <LCD_setPinValue+0x146>
			{
				SET_BIT(PORTC,pin_num);
    19fa:	a5 e3       	ldi	r26, 0x35	; 53
    19fc:	b0 e0       	ldi	r27, 0x00	; 0
    19fe:	e5 e3       	ldi	r30, 0x35	; 53
    1a00:	f0 e0       	ldi	r31, 0x00	; 0
    1a02:	80 81       	ld	r24, Z
    1a04:	48 2f       	mov	r20, r24
    1a06:	8a 81       	ldd	r24, Y+2	; 0x02
    1a08:	28 2f       	mov	r18, r24
    1a0a:	30 e0       	ldi	r19, 0x00	; 0
    1a0c:	81 e0       	ldi	r24, 0x01	; 1
    1a0e:	90 e0       	ldi	r25, 0x00	; 0
    1a10:	02 2e       	mov	r0, r18
    1a12:	02 c0       	rjmp	.+4      	; 0x1a18 <LCD_setPinValue+0x13c>
    1a14:	88 0f       	add	r24, r24
    1a16:	99 1f       	adc	r25, r25
    1a18:	0a 94       	dec	r0
    1a1a:	e2 f7       	brpl	.-8      	; 0x1a14 <LCD_setPinValue+0x138>
    1a1c:	84 2b       	or	r24, r20
    1a1e:	8c 93       	st	X, r24
    1a20:	40 c0       	rjmp	.+128    	; 0x1aa2 <LCD_setPinValue+0x1c6>
			}
			else
			{
				CLR_BIT(PORTC,pin_num);
    1a22:	a5 e3       	ldi	r26, 0x35	; 53
    1a24:	b0 e0       	ldi	r27, 0x00	; 0
    1a26:	e5 e3       	ldi	r30, 0x35	; 53
    1a28:	f0 e0       	ldi	r31, 0x00	; 0
    1a2a:	80 81       	ld	r24, Z
    1a2c:	48 2f       	mov	r20, r24
    1a2e:	8a 81       	ldd	r24, Y+2	; 0x02
    1a30:	28 2f       	mov	r18, r24
    1a32:	30 e0       	ldi	r19, 0x00	; 0
    1a34:	81 e0       	ldi	r24, 0x01	; 1
    1a36:	90 e0       	ldi	r25, 0x00	; 0
    1a38:	02 2e       	mov	r0, r18
    1a3a:	02 c0       	rjmp	.+4      	; 0x1a40 <LCD_setPinValue+0x164>
    1a3c:	88 0f       	add	r24, r24
    1a3e:	99 1f       	adc	r25, r25
    1a40:	0a 94       	dec	r0
    1a42:	e2 f7       	brpl	.-8      	; 0x1a3c <LCD_setPinValue+0x160>
    1a44:	80 95       	com	r24
    1a46:	84 23       	and	r24, r20
    1a48:	8c 93       	st	X, r24
    1a4a:	2b c0       	rjmp	.+86     	; 0x1aa2 <LCD_setPinValue+0x1c6>
			}
			break;
		case PORTD_ID:
			if(value == LOGIC_HIGH)
    1a4c:	8b 81       	ldd	r24, Y+3	; 0x03
    1a4e:	81 30       	cpi	r24, 0x01	; 1
    1a50:	a1 f4       	brne	.+40     	; 0x1a7a <LCD_setPinValue+0x19e>
			{
				SET_BIT(PORTD,pin_num);
    1a52:	a2 e3       	ldi	r26, 0x32	; 50
    1a54:	b0 e0       	ldi	r27, 0x00	; 0
    1a56:	e2 e3       	ldi	r30, 0x32	; 50
    1a58:	f0 e0       	ldi	r31, 0x00	; 0
    1a5a:	80 81       	ld	r24, Z
    1a5c:	48 2f       	mov	r20, r24
    1a5e:	8a 81       	ldd	r24, Y+2	; 0x02
    1a60:	28 2f       	mov	r18, r24
    1a62:	30 e0       	ldi	r19, 0x00	; 0
    1a64:	81 e0       	ldi	r24, 0x01	; 1
    1a66:	90 e0       	ldi	r25, 0x00	; 0
    1a68:	02 2e       	mov	r0, r18
    1a6a:	02 c0       	rjmp	.+4      	; 0x1a70 <LCD_setPinValue+0x194>
    1a6c:	88 0f       	add	r24, r24
    1a6e:	99 1f       	adc	r25, r25
    1a70:	0a 94       	dec	r0
    1a72:	e2 f7       	brpl	.-8      	; 0x1a6c <LCD_setPinValue+0x190>
    1a74:	84 2b       	or	r24, r20
    1a76:	8c 93       	st	X, r24
    1a78:	14 c0       	rjmp	.+40     	; 0x1aa2 <LCD_setPinValue+0x1c6>
			}
			else
			{
				CLR_BIT(PORTD,pin_num);
    1a7a:	a2 e3       	ldi	r26, 0x32	; 50
    1a7c:	b0 e0       	ldi	r27, 0x00	; 0
    1a7e:	e2 e3       	ldi	r30, 0x32	; 50
    1a80:	f0 e0       	ldi	r31, 0x00	; 0
    1a82:	80 81       	ld	r24, Z
    1a84:	48 2f       	mov	r20, r24
    1a86:	8a 81       	ldd	r24, Y+2	; 0x02
    1a88:	28 2f       	mov	r18, r24
    1a8a:	30 e0       	ldi	r19, 0x00	; 0
    1a8c:	81 e0       	ldi	r24, 0x01	; 1
    1a8e:	90 e0       	ldi	r25, 0x00	; 0
    1a90:	02 2e       	mov	r0, r18
    1a92:	02 c0       	rjmp	.+4      	; 0x1a98 <LCD_setPinValue+0x1bc>
    1a94:	88 0f       	add	r24, r24
    1a96:	99 1f       	adc	r25, r25
    1a98:	0a 94       	dec	r0
    1a9a:	e2 f7       	brpl	.-8      	; 0x1a94 <LCD_setPinValue+0x1b8>
    1a9c:	80 95       	com	r24
    1a9e:	84 23       	and	r24, r20
    1aa0:	8c 93       	st	X, r24
			}
			break;
		}
	}
}
    1aa2:	0f 90       	pop	r0
    1aa4:	0f 90       	pop	r0
    1aa6:	0f 90       	pop	r0
    1aa8:	0f 90       	pop	r0
    1aaa:	0f 90       	pop	r0
    1aac:	cf 91       	pop	r28
    1aae:	df 91       	pop	r29
    1ab0:	08 95       	ret

00001ab2 <LCD_getPinValue>:


u8 LCD_getPinValue(u8 port_num, u8 pin_num)
{
    1ab2:	df 93       	push	r29
    1ab4:	cf 93       	push	r28
    1ab6:	00 d0       	rcall	.+0      	; 0x1ab8 <LCD_getPinValue+0x6>
    1ab8:	00 d0       	rcall	.+0      	; 0x1aba <LCD_getPinValue+0x8>
    1aba:	0f 92       	push	r0
    1abc:	cd b7       	in	r28, 0x3d	; 61
    1abe:	de b7       	in	r29, 0x3e	; 62
    1ac0:	8a 83       	std	Y+2, r24	; 0x02
    1ac2:	6b 83       	std	Y+3, r22	; 0x03
	u8 pin_value = LOGIC_LOW;
    1ac4:	19 82       	std	Y+1, r1	; 0x01


	if((pin_num >= NUM_OF_PINS_PER_PORT) || (port_num >= NUM_OF_PORTS))
    1ac6:	8b 81       	ldd	r24, Y+3	; 0x03
    1ac8:	88 30       	cpi	r24, 0x08	; 8
    1aca:	08 f0       	brcs	.+2      	; 0x1ace <LCD_getPinValue+0x1c>
    1acc:	84 c0       	rjmp	.+264    	; 0x1bd6 <LCD_getPinValue+0x124>
    1ace:	8a 81       	ldd	r24, Y+2	; 0x02
    1ad0:	84 30       	cpi	r24, 0x04	; 4
    1ad2:	08 f0       	brcs	.+2      	; 0x1ad6 <LCD_getPinValue+0x24>
    1ad4:	80 c0       	rjmp	.+256    	; 0x1bd6 <LCD_getPinValue+0x124>
		/* Do Nothing */
	}
	else
	{
		/* Read the pin value as required */
		switch(port_num)
    1ad6:	8a 81       	ldd	r24, Y+2	; 0x02
    1ad8:	28 2f       	mov	r18, r24
    1ada:	30 e0       	ldi	r19, 0x00	; 0
    1adc:	3d 83       	std	Y+5, r19	; 0x05
    1ade:	2c 83       	std	Y+4, r18	; 0x04
    1ae0:	4c 81       	ldd	r20, Y+4	; 0x04
    1ae2:	5d 81       	ldd	r21, Y+5	; 0x05
    1ae4:	41 30       	cpi	r20, 0x01	; 1
    1ae6:	51 05       	cpc	r21, r1
    1ae8:	79 f1       	breq	.+94     	; 0x1b48 <LCD_getPinValue+0x96>
    1aea:	8c 81       	ldd	r24, Y+4	; 0x04
    1aec:	9d 81       	ldd	r25, Y+5	; 0x05
    1aee:	82 30       	cpi	r24, 0x02	; 2
    1af0:	91 05       	cpc	r25, r1
    1af2:	34 f4       	brge	.+12     	; 0x1b00 <LCD_getPinValue+0x4e>
    1af4:	2c 81       	ldd	r18, Y+4	; 0x04
    1af6:	3d 81       	ldd	r19, Y+5	; 0x05
    1af8:	21 15       	cp	r18, r1
    1afa:	31 05       	cpc	r19, r1
    1afc:	69 f0       	breq	.+26     	; 0x1b18 <LCD_getPinValue+0x66>
    1afe:	6b c0       	rjmp	.+214    	; 0x1bd6 <LCD_getPinValue+0x124>
    1b00:	4c 81       	ldd	r20, Y+4	; 0x04
    1b02:	5d 81       	ldd	r21, Y+5	; 0x05
    1b04:	42 30       	cpi	r20, 0x02	; 2
    1b06:	51 05       	cpc	r21, r1
    1b08:	b9 f1       	breq	.+110    	; 0x1b78 <LCD_getPinValue+0xc6>
    1b0a:	8c 81       	ldd	r24, Y+4	; 0x04
    1b0c:	9d 81       	ldd	r25, Y+5	; 0x05
    1b0e:	83 30       	cpi	r24, 0x03	; 3
    1b10:	91 05       	cpc	r25, r1
    1b12:	09 f4       	brne	.+2      	; 0x1b16 <LCD_getPinValue+0x64>
    1b14:	49 c0       	rjmp	.+146    	; 0x1ba8 <LCD_getPinValue+0xf6>
    1b16:	5f c0       	rjmp	.+190    	; 0x1bd6 <LCD_getPinValue+0x124>
		{
		case PORTA_ID:
			if(BIT_IS_SET(PINA,pin_num))
    1b18:	e9 e3       	ldi	r30, 0x39	; 57
    1b1a:	f0 e0       	ldi	r31, 0x00	; 0
    1b1c:	80 81       	ld	r24, Z
    1b1e:	28 2f       	mov	r18, r24
    1b20:	30 e0       	ldi	r19, 0x00	; 0
    1b22:	8b 81       	ldd	r24, Y+3	; 0x03
    1b24:	88 2f       	mov	r24, r24
    1b26:	90 e0       	ldi	r25, 0x00	; 0
    1b28:	a9 01       	movw	r20, r18
    1b2a:	02 c0       	rjmp	.+4      	; 0x1b30 <LCD_getPinValue+0x7e>
    1b2c:	55 95       	asr	r21
    1b2e:	47 95       	ror	r20
    1b30:	8a 95       	dec	r24
    1b32:	e2 f7       	brpl	.-8      	; 0x1b2c <LCD_getPinValue+0x7a>
    1b34:	ca 01       	movw	r24, r20
    1b36:	81 70       	andi	r24, 0x01	; 1
    1b38:	90 70       	andi	r25, 0x00	; 0
    1b3a:	88 23       	and	r24, r24
    1b3c:	19 f0       	breq	.+6      	; 0x1b44 <LCD_getPinValue+0x92>
			{
				pin_value = LOGIC_HIGH;
    1b3e:	81 e0       	ldi	r24, 0x01	; 1
    1b40:	89 83       	std	Y+1, r24	; 0x01
    1b42:	49 c0       	rjmp	.+146    	; 0x1bd6 <LCD_getPinValue+0x124>
			}
			else
			{
				pin_value = LOGIC_LOW;
    1b44:	19 82       	std	Y+1, r1	; 0x01
    1b46:	47 c0       	rjmp	.+142    	; 0x1bd6 <LCD_getPinValue+0x124>
			}
			break;
		case PORTB_ID:
			if(BIT_IS_SET(PINB,pin_num))
    1b48:	e6 e3       	ldi	r30, 0x36	; 54
    1b4a:	f0 e0       	ldi	r31, 0x00	; 0
    1b4c:	80 81       	ld	r24, Z
    1b4e:	28 2f       	mov	r18, r24
    1b50:	30 e0       	ldi	r19, 0x00	; 0
    1b52:	8b 81       	ldd	r24, Y+3	; 0x03
    1b54:	88 2f       	mov	r24, r24
    1b56:	90 e0       	ldi	r25, 0x00	; 0
    1b58:	a9 01       	movw	r20, r18
    1b5a:	02 c0       	rjmp	.+4      	; 0x1b60 <LCD_getPinValue+0xae>
    1b5c:	55 95       	asr	r21
    1b5e:	47 95       	ror	r20
    1b60:	8a 95       	dec	r24
    1b62:	e2 f7       	brpl	.-8      	; 0x1b5c <LCD_getPinValue+0xaa>
    1b64:	ca 01       	movw	r24, r20
    1b66:	81 70       	andi	r24, 0x01	; 1
    1b68:	90 70       	andi	r25, 0x00	; 0
    1b6a:	88 23       	and	r24, r24
    1b6c:	19 f0       	breq	.+6      	; 0x1b74 <LCD_getPinValue+0xc2>
			{
				pin_value = LOGIC_HIGH;
    1b6e:	81 e0       	ldi	r24, 0x01	; 1
    1b70:	89 83       	std	Y+1, r24	; 0x01
    1b72:	31 c0       	rjmp	.+98     	; 0x1bd6 <LCD_getPinValue+0x124>
			}
			else
			{
				pin_value = LOGIC_LOW;
    1b74:	19 82       	std	Y+1, r1	; 0x01
    1b76:	2f c0       	rjmp	.+94     	; 0x1bd6 <LCD_getPinValue+0x124>
			}
			break;
		case PORTC_ID:
			if(BIT_IS_SET(PINC,pin_num))
    1b78:	e3 e3       	ldi	r30, 0x33	; 51
    1b7a:	f0 e0       	ldi	r31, 0x00	; 0
    1b7c:	80 81       	ld	r24, Z
    1b7e:	28 2f       	mov	r18, r24
    1b80:	30 e0       	ldi	r19, 0x00	; 0
    1b82:	8b 81       	ldd	r24, Y+3	; 0x03
    1b84:	88 2f       	mov	r24, r24
    1b86:	90 e0       	ldi	r25, 0x00	; 0
    1b88:	a9 01       	movw	r20, r18
    1b8a:	02 c0       	rjmp	.+4      	; 0x1b90 <LCD_getPinValue+0xde>
    1b8c:	55 95       	asr	r21
    1b8e:	47 95       	ror	r20
    1b90:	8a 95       	dec	r24
    1b92:	e2 f7       	brpl	.-8      	; 0x1b8c <LCD_getPinValue+0xda>
    1b94:	ca 01       	movw	r24, r20
    1b96:	81 70       	andi	r24, 0x01	; 1
    1b98:	90 70       	andi	r25, 0x00	; 0
    1b9a:	88 23       	and	r24, r24
    1b9c:	19 f0       	breq	.+6      	; 0x1ba4 <LCD_getPinValue+0xf2>
			{
				pin_value = LOGIC_HIGH;
    1b9e:	81 e0       	ldi	r24, 0x01	; 1
    1ba0:	89 83       	std	Y+1, r24	; 0x01
    1ba2:	19 c0       	rjmp	.+50     	; 0x1bd6 <LCD_getPinValue+0x124>
			}
			else
			{
				pin_value = LOGIC_LOW;
    1ba4:	19 82       	std	Y+1, r1	; 0x01
    1ba6:	17 c0       	rjmp	.+46     	; 0x1bd6 <LCD_getPinValue+0x124>
			}
			break;
		case PORTD_ID:
			if(BIT_IS_SET(PIND,pin_num))
    1ba8:	e0 e3       	ldi	r30, 0x30	; 48
    1baa:	f0 e0       	ldi	r31, 0x00	; 0
    1bac:	80 81       	ld	r24, Z
    1bae:	28 2f       	mov	r18, r24
    1bb0:	30 e0       	ldi	r19, 0x00	; 0
    1bb2:	8b 81       	ldd	r24, Y+3	; 0x03
    1bb4:	88 2f       	mov	r24, r24
    1bb6:	90 e0       	ldi	r25, 0x00	; 0
    1bb8:	a9 01       	movw	r20, r18
    1bba:	02 c0       	rjmp	.+4      	; 0x1bc0 <LCD_getPinValue+0x10e>
    1bbc:	55 95       	asr	r21
    1bbe:	47 95       	ror	r20
    1bc0:	8a 95       	dec	r24
    1bc2:	e2 f7       	brpl	.-8      	; 0x1bbc <LCD_getPinValue+0x10a>
    1bc4:	ca 01       	movw	r24, r20
    1bc6:	81 70       	andi	r24, 0x01	; 1
    1bc8:	90 70       	andi	r25, 0x00	; 0
    1bca:	88 23       	and	r24, r24
    1bcc:	19 f0       	breq	.+6      	; 0x1bd4 <LCD_getPinValue+0x122>
			{
				pin_value = LOGIC_HIGH;
    1bce:	81 e0       	ldi	r24, 0x01	; 1
    1bd0:	89 83       	std	Y+1, r24	; 0x01
    1bd2:	01 c0       	rjmp	.+2      	; 0x1bd6 <LCD_getPinValue+0x124>
			}
			else
			{
				pin_value = LOGIC_LOW;
    1bd4:	19 82       	std	Y+1, r1	; 0x01
			}
			break;
		}
	}

	return pin_value;
    1bd6:	89 81       	ldd	r24, Y+1	; 0x01
}
    1bd8:	0f 90       	pop	r0
    1bda:	0f 90       	pop	r0
    1bdc:	0f 90       	pop	r0
    1bde:	0f 90       	pop	r0
    1be0:	0f 90       	pop	r0
    1be2:	cf 91       	pop	r28
    1be4:	df 91       	pop	r29
    1be6:	08 95       	ret

00001be8 <LCD_setPortDirection>:


void LCD_setPortDirection(u8 port_num, LCD_PortDirectionType direction)
{
    1be8:	df 93       	push	r29
    1bea:	cf 93       	push	r28
    1bec:	00 d0       	rcall	.+0      	; 0x1bee <LCD_setPortDirection+0x6>
    1bee:	00 d0       	rcall	.+0      	; 0x1bf0 <LCD_setPortDirection+0x8>
    1bf0:	cd b7       	in	r28, 0x3d	; 61
    1bf2:	de b7       	in	r29, 0x3e	; 62
    1bf4:	89 83       	std	Y+1, r24	; 0x01
    1bf6:	6a 83       	std	Y+2, r22	; 0x02

	if(port_num >= NUM_OF_PORTS)
    1bf8:	89 81       	ldd	r24, Y+1	; 0x01
    1bfa:	84 30       	cpi	r24, 0x04	; 4
    1bfc:	90 f5       	brcc	.+100    	; 0x1c62 <LCD_setPortDirection+0x7a>
		/* Do Nothing */
	}
	else
	{
		/* Setup the port direction as required */
		switch(port_num)
    1bfe:	89 81       	ldd	r24, Y+1	; 0x01
    1c00:	28 2f       	mov	r18, r24
    1c02:	30 e0       	ldi	r19, 0x00	; 0
    1c04:	3c 83       	std	Y+4, r19	; 0x04
    1c06:	2b 83       	std	Y+3, r18	; 0x03
    1c08:	8b 81       	ldd	r24, Y+3	; 0x03
    1c0a:	9c 81       	ldd	r25, Y+4	; 0x04
    1c0c:	81 30       	cpi	r24, 0x01	; 1
    1c0e:	91 05       	cpc	r25, r1
    1c10:	d1 f0       	breq	.+52     	; 0x1c46 <LCD_setPortDirection+0x5e>
    1c12:	2b 81       	ldd	r18, Y+3	; 0x03
    1c14:	3c 81       	ldd	r19, Y+4	; 0x04
    1c16:	22 30       	cpi	r18, 0x02	; 2
    1c18:	31 05       	cpc	r19, r1
    1c1a:	2c f4       	brge	.+10     	; 0x1c26 <LCD_setPortDirection+0x3e>
    1c1c:	8b 81       	ldd	r24, Y+3	; 0x03
    1c1e:	9c 81       	ldd	r25, Y+4	; 0x04
    1c20:	00 97       	sbiw	r24, 0x00	; 0
    1c22:	61 f0       	breq	.+24     	; 0x1c3c <LCD_setPortDirection+0x54>
    1c24:	1e c0       	rjmp	.+60     	; 0x1c62 <LCD_setPortDirection+0x7a>
    1c26:	2b 81       	ldd	r18, Y+3	; 0x03
    1c28:	3c 81       	ldd	r19, Y+4	; 0x04
    1c2a:	22 30       	cpi	r18, 0x02	; 2
    1c2c:	31 05       	cpc	r19, r1
    1c2e:	81 f0       	breq	.+32     	; 0x1c50 <LCD_setPortDirection+0x68>
    1c30:	8b 81       	ldd	r24, Y+3	; 0x03
    1c32:	9c 81       	ldd	r25, Y+4	; 0x04
    1c34:	83 30       	cpi	r24, 0x03	; 3
    1c36:	91 05       	cpc	r25, r1
    1c38:	81 f0       	breq	.+32     	; 0x1c5a <LCD_setPortDirection+0x72>
    1c3a:	13 c0       	rjmp	.+38     	; 0x1c62 <LCD_setPortDirection+0x7a>
		{
		case PORTA_ID:
			DDRA = direction;
    1c3c:	ea e3       	ldi	r30, 0x3A	; 58
    1c3e:	f0 e0       	ldi	r31, 0x00	; 0
    1c40:	8a 81       	ldd	r24, Y+2	; 0x02
    1c42:	80 83       	st	Z, r24
    1c44:	0e c0       	rjmp	.+28     	; 0x1c62 <LCD_setPortDirection+0x7a>
			break;
		case PORTB_ID:
			DDRB = direction;
    1c46:	e7 e3       	ldi	r30, 0x37	; 55
    1c48:	f0 e0       	ldi	r31, 0x00	; 0
    1c4a:	8a 81       	ldd	r24, Y+2	; 0x02
    1c4c:	80 83       	st	Z, r24
    1c4e:	09 c0       	rjmp	.+18     	; 0x1c62 <LCD_setPortDirection+0x7a>
			break;
		case PORTC_ID:
			DDRC = direction;
    1c50:	e4 e3       	ldi	r30, 0x34	; 52
    1c52:	f0 e0       	ldi	r31, 0x00	; 0
    1c54:	8a 81       	ldd	r24, Y+2	; 0x02
    1c56:	80 83       	st	Z, r24
    1c58:	04 c0       	rjmp	.+8      	; 0x1c62 <LCD_setPortDirection+0x7a>
			break;
		case PORTD_ID:
			DDRD = direction;
    1c5a:	e1 e3       	ldi	r30, 0x31	; 49
    1c5c:	f0 e0       	ldi	r31, 0x00	; 0
    1c5e:	8a 81       	ldd	r24, Y+2	; 0x02
    1c60:	80 83       	st	Z, r24
			break;
		}
	}
}
    1c62:	0f 90       	pop	r0
    1c64:	0f 90       	pop	r0
    1c66:	0f 90       	pop	r0
    1c68:	0f 90       	pop	r0
    1c6a:	cf 91       	pop	r28
    1c6c:	df 91       	pop	r29
    1c6e:	08 95       	ret

00001c70 <LCD_setPortValue>:


void LCD_setPortValue(u8 port_num, u8 value)
{
    1c70:	df 93       	push	r29
    1c72:	cf 93       	push	r28
    1c74:	00 d0       	rcall	.+0      	; 0x1c76 <LCD_setPortValue+0x6>
    1c76:	00 d0       	rcall	.+0      	; 0x1c78 <LCD_setPortValue+0x8>
    1c78:	cd b7       	in	r28, 0x3d	; 61
    1c7a:	de b7       	in	r29, 0x3e	; 62
    1c7c:	89 83       	std	Y+1, r24	; 0x01
    1c7e:	6a 83       	std	Y+2, r22	; 0x02

	if(port_num >= NUM_OF_PORTS)
    1c80:	89 81       	ldd	r24, Y+1	; 0x01
    1c82:	84 30       	cpi	r24, 0x04	; 4
    1c84:	90 f5       	brcc	.+100    	; 0x1cea <LCD_setPortValue+0x7a>
		/* Do Nothing */
	}
	else
	{
		/* Write the port value as required */
		switch(port_num)
    1c86:	89 81       	ldd	r24, Y+1	; 0x01
    1c88:	28 2f       	mov	r18, r24
    1c8a:	30 e0       	ldi	r19, 0x00	; 0
    1c8c:	3c 83       	std	Y+4, r19	; 0x04
    1c8e:	2b 83       	std	Y+3, r18	; 0x03
    1c90:	8b 81       	ldd	r24, Y+3	; 0x03
    1c92:	9c 81       	ldd	r25, Y+4	; 0x04
    1c94:	81 30       	cpi	r24, 0x01	; 1
    1c96:	91 05       	cpc	r25, r1
    1c98:	d1 f0       	breq	.+52     	; 0x1cce <LCD_setPortValue+0x5e>
    1c9a:	2b 81       	ldd	r18, Y+3	; 0x03
    1c9c:	3c 81       	ldd	r19, Y+4	; 0x04
    1c9e:	22 30       	cpi	r18, 0x02	; 2
    1ca0:	31 05       	cpc	r19, r1
    1ca2:	2c f4       	brge	.+10     	; 0x1cae <LCD_setPortValue+0x3e>
    1ca4:	8b 81       	ldd	r24, Y+3	; 0x03
    1ca6:	9c 81       	ldd	r25, Y+4	; 0x04
    1ca8:	00 97       	sbiw	r24, 0x00	; 0
    1caa:	61 f0       	breq	.+24     	; 0x1cc4 <LCD_setPortValue+0x54>
    1cac:	1e c0       	rjmp	.+60     	; 0x1cea <LCD_setPortValue+0x7a>
    1cae:	2b 81       	ldd	r18, Y+3	; 0x03
    1cb0:	3c 81       	ldd	r19, Y+4	; 0x04
    1cb2:	22 30       	cpi	r18, 0x02	; 2
    1cb4:	31 05       	cpc	r19, r1
    1cb6:	81 f0       	breq	.+32     	; 0x1cd8 <LCD_setPortValue+0x68>
    1cb8:	8b 81       	ldd	r24, Y+3	; 0x03
    1cba:	9c 81       	ldd	r25, Y+4	; 0x04
    1cbc:	83 30       	cpi	r24, 0x03	; 3
    1cbe:	91 05       	cpc	r25, r1
    1cc0:	81 f0       	breq	.+32     	; 0x1ce2 <LCD_setPortValue+0x72>
    1cc2:	13 c0       	rjmp	.+38     	; 0x1cea <LCD_setPortValue+0x7a>
		{
		case PORTA_ID:
			PORTA = value;
    1cc4:	eb e3       	ldi	r30, 0x3B	; 59
    1cc6:	f0 e0       	ldi	r31, 0x00	; 0
    1cc8:	8a 81       	ldd	r24, Y+2	; 0x02
    1cca:	80 83       	st	Z, r24
    1ccc:	0e c0       	rjmp	.+28     	; 0x1cea <LCD_setPortValue+0x7a>
			break;
		case PORTB_ID:
			PORTB = value;
    1cce:	e8 e3       	ldi	r30, 0x38	; 56
    1cd0:	f0 e0       	ldi	r31, 0x00	; 0
    1cd2:	8a 81       	ldd	r24, Y+2	; 0x02
    1cd4:	80 83       	st	Z, r24
    1cd6:	09 c0       	rjmp	.+18     	; 0x1cea <LCD_setPortValue+0x7a>
			break;
		case PORTC_ID:
			PORTC = value;
    1cd8:	e5 e3       	ldi	r30, 0x35	; 53
    1cda:	f0 e0       	ldi	r31, 0x00	; 0
    1cdc:	8a 81       	ldd	r24, Y+2	; 0x02
    1cde:	80 83       	st	Z, r24
    1ce0:	04 c0       	rjmp	.+8      	; 0x1cea <LCD_setPortValue+0x7a>
			break;
		case PORTD_ID:
			PORTD = value;
    1ce2:	e2 e3       	ldi	r30, 0x32	; 50
    1ce4:	f0 e0       	ldi	r31, 0x00	; 0
    1ce6:	8a 81       	ldd	r24, Y+2	; 0x02
    1ce8:	80 83       	st	Z, r24
			break;
		}
	}
}
    1cea:	0f 90       	pop	r0
    1cec:	0f 90       	pop	r0
    1cee:	0f 90       	pop	r0
    1cf0:	0f 90       	pop	r0
    1cf2:	cf 91       	pop	r28
    1cf4:	df 91       	pop	r29
    1cf6:	08 95       	ret

00001cf8 <LCD_getPortValue>:


u8 LCD_getPortValue(u8 port_num)
{
    1cf8:	df 93       	push	r29
    1cfa:	cf 93       	push	r28
    1cfc:	00 d0       	rcall	.+0      	; 0x1cfe <LCD_getPortValue+0x6>
    1cfe:	00 d0       	rcall	.+0      	; 0x1d00 <LCD_getPortValue+0x8>
    1d00:	cd b7       	in	r28, 0x3d	; 61
    1d02:	de b7       	in	r29, 0x3e	; 62
    1d04:	8a 83       	std	Y+2, r24	; 0x02
	u8 value = LOGIC_LOW;
    1d06:	19 82       	std	Y+1, r1	; 0x01

	if(port_num >= NUM_OF_PORTS)
    1d08:	8a 81       	ldd	r24, Y+2	; 0x02
    1d0a:	84 30       	cpi	r24, 0x04	; 4
    1d0c:	90 f5       	brcc	.+100    	; 0x1d72 <LCD_getPortValue+0x7a>
		/* Do Nothing */
	}
	else
	{
		/* Read the port value as required */
		switch(port_num)
    1d0e:	8a 81       	ldd	r24, Y+2	; 0x02
    1d10:	28 2f       	mov	r18, r24
    1d12:	30 e0       	ldi	r19, 0x00	; 0
    1d14:	3c 83       	std	Y+4, r19	; 0x04
    1d16:	2b 83       	std	Y+3, r18	; 0x03
    1d18:	8b 81       	ldd	r24, Y+3	; 0x03
    1d1a:	9c 81       	ldd	r25, Y+4	; 0x04
    1d1c:	81 30       	cpi	r24, 0x01	; 1
    1d1e:	91 05       	cpc	r25, r1
    1d20:	d1 f0       	breq	.+52     	; 0x1d56 <LCD_getPortValue+0x5e>
    1d22:	2b 81       	ldd	r18, Y+3	; 0x03
    1d24:	3c 81       	ldd	r19, Y+4	; 0x04
    1d26:	22 30       	cpi	r18, 0x02	; 2
    1d28:	31 05       	cpc	r19, r1
    1d2a:	2c f4       	brge	.+10     	; 0x1d36 <LCD_getPortValue+0x3e>
    1d2c:	8b 81       	ldd	r24, Y+3	; 0x03
    1d2e:	9c 81       	ldd	r25, Y+4	; 0x04
    1d30:	00 97       	sbiw	r24, 0x00	; 0
    1d32:	61 f0       	breq	.+24     	; 0x1d4c <LCD_getPortValue+0x54>
    1d34:	1e c0       	rjmp	.+60     	; 0x1d72 <LCD_getPortValue+0x7a>
    1d36:	2b 81       	ldd	r18, Y+3	; 0x03
    1d38:	3c 81       	ldd	r19, Y+4	; 0x04
    1d3a:	22 30       	cpi	r18, 0x02	; 2
    1d3c:	31 05       	cpc	r19, r1
    1d3e:	81 f0       	breq	.+32     	; 0x1d60 <LCD_getPortValue+0x68>
    1d40:	8b 81       	ldd	r24, Y+3	; 0x03
    1d42:	9c 81       	ldd	r25, Y+4	; 0x04
    1d44:	83 30       	cpi	r24, 0x03	; 3
    1d46:	91 05       	cpc	r25, r1
    1d48:	81 f0       	breq	.+32     	; 0x1d6a <LCD_getPortValue+0x72>
    1d4a:	13 c0       	rjmp	.+38     	; 0x1d72 <LCD_getPortValue+0x7a>
		{
		case PORTA_ID:
			value = PINA;
    1d4c:	e9 e3       	ldi	r30, 0x39	; 57
    1d4e:	f0 e0       	ldi	r31, 0x00	; 0
    1d50:	80 81       	ld	r24, Z
    1d52:	89 83       	std	Y+1, r24	; 0x01
    1d54:	0e c0       	rjmp	.+28     	; 0x1d72 <LCD_getPortValue+0x7a>
			break;
		case PORTB_ID:
			value = PINB;
    1d56:	e6 e3       	ldi	r30, 0x36	; 54
    1d58:	f0 e0       	ldi	r31, 0x00	; 0
    1d5a:	80 81       	ld	r24, Z
    1d5c:	89 83       	std	Y+1, r24	; 0x01
    1d5e:	09 c0       	rjmp	.+18     	; 0x1d72 <LCD_getPortValue+0x7a>
			break;
		case PORTC_ID:
			value = PINC;
    1d60:	e3 e3       	ldi	r30, 0x33	; 51
    1d62:	f0 e0       	ldi	r31, 0x00	; 0
    1d64:	80 81       	ld	r24, Z
    1d66:	89 83       	std	Y+1, r24	; 0x01
    1d68:	04 c0       	rjmp	.+8      	; 0x1d72 <LCD_getPortValue+0x7a>
			break;
		case PORTD_ID:
			value = PIND;
    1d6a:	e0 e3       	ldi	r30, 0x30	; 48
    1d6c:	f0 e0       	ldi	r31, 0x00	; 0
    1d6e:	80 81       	ld	r24, Z
    1d70:	89 83       	std	Y+1, r24	; 0x01
			break;
		}
	}

	return value;
    1d72:	89 81       	ldd	r24, Y+1	; 0x01
}
    1d74:	0f 90       	pop	r0
    1d76:	0f 90       	pop	r0
    1d78:	0f 90       	pop	r0
    1d7a:	0f 90       	pop	r0
    1d7c:	cf 91       	pop	r28
    1d7e:	df 91       	pop	r29
    1d80:	08 95       	ret

00001d82 <EXTI_voidEnable_GIE>:
#include "../../LIB/BIT_MATH.h";
#include "../../LIB/STD_TYPES.h";


/* Enable GIE (Enable Global Interrupt) */
void EXTI_voidEnable_GIE(void){
    1d82:	df 93       	push	r29
    1d84:	cf 93       	push	r28
    1d86:	cd b7       	in	r28, 0x3d	; 61
    1d88:	de b7       	in	r29, 0x3e	; 62
	SET_BIT(EXTI_u8_SREG, EXTI_SREG_GIE_PIN);
    1d8a:	af e5       	ldi	r26, 0x5F	; 95
    1d8c:	b0 e0       	ldi	r27, 0x00	; 0
    1d8e:	ef e5       	ldi	r30, 0x5F	; 95
    1d90:	f0 e0       	ldi	r31, 0x00	; 0
    1d92:	80 81       	ld	r24, Z
    1d94:	80 68       	ori	r24, 0x80	; 128
    1d96:	8c 93       	st	X, r24
}
    1d98:	cf 91       	pop	r28
    1d9a:	df 91       	pop	r29
    1d9c:	08 95       	ret

00001d9e <EXTI_voidDisable_GIE>:

/* Disable GIE (Disable Global Interrupt) */
void EXTI_voidDisable_GIE(void){
    1d9e:	df 93       	push	r29
    1da0:	cf 93       	push	r28
    1da2:	cd b7       	in	r28, 0x3d	; 61
    1da4:	de b7       	in	r29, 0x3e	; 62
	CLR_BIT(EXTI_u8_SREG, EXTI_SREG_GIE_PIN);
    1da6:	af e5       	ldi	r26, 0x5F	; 95
    1da8:	b0 e0       	ldi	r27, 0x00	; 0
    1daa:	ef e5       	ldi	r30, 0x5F	; 95
    1dac:	f0 e0       	ldi	r31, 0x00	; 0
    1dae:	80 81       	ld	r24, Z
    1db0:	8f 77       	andi	r24, 0x7F	; 127
    1db2:	8c 93       	st	X, r24
}
    1db4:	cf 91       	pop	r28
    1db6:	df 91       	pop	r29
    1db8:	08 95       	ret

00001dba <setCallBack>:
/* Global Poiter */

void (*EXTI[3])(void) = {NULL, NULL, NULL};


void setCallBack(void(*ptf)(void), u8 EXTI_Index){
    1dba:	df 93       	push	r29
    1dbc:	cf 93       	push	r28
    1dbe:	00 d0       	rcall	.+0      	; 0x1dc0 <setCallBack+0x6>
    1dc0:	0f 92       	push	r0
    1dc2:	cd b7       	in	r28, 0x3d	; 61
    1dc4:	de b7       	in	r29, 0x3e	; 62
    1dc6:	9a 83       	std	Y+2, r25	; 0x02
    1dc8:	89 83       	std	Y+1, r24	; 0x01
    1dca:	6b 83       	std	Y+3, r22	; 0x03
	EXTI[EXTI_Index] = ptf;
    1dcc:	8b 81       	ldd	r24, Y+3	; 0x03
    1dce:	88 2f       	mov	r24, r24
    1dd0:	90 e0       	ldi	r25, 0x00	; 0
    1dd2:	88 0f       	add	r24, r24
    1dd4:	99 1f       	adc	r25, r25
    1dd6:	fc 01       	movw	r30, r24
    1dd8:	e4 57       	subi	r30, 0x74	; 116
    1dda:	fe 4f       	sbci	r31, 0xFE	; 254
    1ddc:	89 81       	ldd	r24, Y+1	; 0x01
    1dde:	9a 81       	ldd	r25, Y+2	; 0x02
    1de0:	91 83       	std	Z+1, r25	; 0x01
    1de2:	80 83       	st	Z, r24
}
    1de4:	0f 90       	pop	r0
    1de6:	0f 90       	pop	r0
    1de8:	0f 90       	pop	r0
    1dea:	cf 91       	pop	r28
    1dec:	df 91       	pop	r29
    1dee:	08 95       	ret

00001df0 <EXTI0_LowLevel_MODE>:

/* EXTI0 Modes */
void EXTI0_LowLevel_MODE(void){
    1df0:	df 93       	push	r29
    1df2:	cf 93       	push	r28
    1df4:	cd b7       	in	r28, 0x3d	; 61
    1df6:	de b7       	in	r29, 0x3e	; 62
	CLR_BIT(EXTI_u8_MCUCR, EXTI_u8_ISC00);
    1df8:	a5 e5       	ldi	r26, 0x55	; 85
    1dfa:	b0 e0       	ldi	r27, 0x00	; 0
    1dfc:	e5 e5       	ldi	r30, 0x55	; 85
    1dfe:	f0 e0       	ldi	r31, 0x00	; 0
    1e00:	80 81       	ld	r24, Z
    1e02:	8e 7f       	andi	r24, 0xFE	; 254
    1e04:	8c 93       	st	X, r24
	CLR_BIT(EXTI_u8_MCUCR, EXTI_u8_ISC01);
    1e06:	a5 e5       	ldi	r26, 0x55	; 85
    1e08:	b0 e0       	ldi	r27, 0x00	; 0
    1e0a:	e5 e5       	ldi	r30, 0x55	; 85
    1e0c:	f0 e0       	ldi	r31, 0x00	; 0
    1e0e:	80 81       	ld	r24, Z
    1e10:	8d 7f       	andi	r24, 0xFD	; 253
    1e12:	8c 93       	st	X, r24
}
    1e14:	cf 91       	pop	r28
    1e16:	df 91       	pop	r29
    1e18:	08 95       	ret

00001e1a <EXTI0_FALLING_MODE>:

void EXTI0_FALLING_MODE(void){
    1e1a:	df 93       	push	r29
    1e1c:	cf 93       	push	r28
    1e1e:	cd b7       	in	r28, 0x3d	; 61
    1e20:	de b7       	in	r29, 0x3e	; 62
	SET_BIT(EXTI_u8_MCUCR, EXTI_u8_ISC01);
    1e22:	a5 e5       	ldi	r26, 0x55	; 85
    1e24:	b0 e0       	ldi	r27, 0x00	; 0
    1e26:	e5 e5       	ldi	r30, 0x55	; 85
    1e28:	f0 e0       	ldi	r31, 0x00	; 0
    1e2a:	80 81       	ld	r24, Z
    1e2c:	82 60       	ori	r24, 0x02	; 2
    1e2e:	8c 93       	st	X, r24
	CLR_BIT(EXTI_u8_MCUCR, EXTI_u8_ISC00);
    1e30:	a5 e5       	ldi	r26, 0x55	; 85
    1e32:	b0 e0       	ldi	r27, 0x00	; 0
    1e34:	e5 e5       	ldi	r30, 0x55	; 85
    1e36:	f0 e0       	ldi	r31, 0x00	; 0
    1e38:	80 81       	ld	r24, Z
    1e3a:	8e 7f       	andi	r24, 0xFE	; 254
    1e3c:	8c 93       	st	X, r24
}
    1e3e:	cf 91       	pop	r28
    1e40:	df 91       	pop	r29
    1e42:	08 95       	ret

00001e44 <EXTI0_AnyLogicalChange_MODE>:

void EXTI0_AnyLogicalChange_MODE(void){
    1e44:	df 93       	push	r29
    1e46:	cf 93       	push	r28
    1e48:	cd b7       	in	r28, 0x3d	; 61
    1e4a:	de b7       	in	r29, 0x3e	; 62
	CLR_BIT(EXTI_u8_MCUCR, EXTI_u8_ISC01);
    1e4c:	a5 e5       	ldi	r26, 0x55	; 85
    1e4e:	b0 e0       	ldi	r27, 0x00	; 0
    1e50:	e5 e5       	ldi	r30, 0x55	; 85
    1e52:	f0 e0       	ldi	r31, 0x00	; 0
    1e54:	80 81       	ld	r24, Z
    1e56:	8d 7f       	andi	r24, 0xFD	; 253
    1e58:	8c 93       	st	X, r24
	SET_BIT(EXTI_u8_MCUCR, EXTI_u8_ISC00);
    1e5a:	a5 e5       	ldi	r26, 0x55	; 85
    1e5c:	b0 e0       	ldi	r27, 0x00	; 0
    1e5e:	e5 e5       	ldi	r30, 0x55	; 85
    1e60:	f0 e0       	ldi	r31, 0x00	; 0
    1e62:	80 81       	ld	r24, Z
    1e64:	81 60       	ori	r24, 0x01	; 1
    1e66:	8c 93       	st	X, r24
}
    1e68:	cf 91       	pop	r28
    1e6a:	df 91       	pop	r29
    1e6c:	08 95       	ret

00001e6e <EXTI0_RISING_MODE>:

void EXTI0_RISING_MODE(void){
    1e6e:	df 93       	push	r29
    1e70:	cf 93       	push	r28
    1e72:	cd b7       	in	r28, 0x3d	; 61
    1e74:	de b7       	in	r29, 0x3e	; 62
	SET_BIT(EXTI_u8_MCUCR, EXTI_u8_ISC01);
    1e76:	a5 e5       	ldi	r26, 0x55	; 85
    1e78:	b0 e0       	ldi	r27, 0x00	; 0
    1e7a:	e5 e5       	ldi	r30, 0x55	; 85
    1e7c:	f0 e0       	ldi	r31, 0x00	; 0
    1e7e:	80 81       	ld	r24, Z
    1e80:	82 60       	ori	r24, 0x02	; 2
    1e82:	8c 93       	st	X, r24
	SET_BIT(EXTI_u8_MCUCR, EXTI_u8_ISC00);
    1e84:	a5 e5       	ldi	r26, 0x55	; 85
    1e86:	b0 e0       	ldi	r27, 0x00	; 0
    1e88:	e5 e5       	ldi	r30, 0x55	; 85
    1e8a:	f0 e0       	ldi	r31, 0x00	; 0
    1e8c:	80 81       	ld	r24, Z
    1e8e:	81 60       	ori	r24, 0x01	; 1
    1e90:	8c 93       	st	X, r24
}
    1e92:	cf 91       	pop	r28
    1e94:	df 91       	pop	r29
    1e96:	08 95       	ret

00001e98 <EXTI1_LowLevel_MODE>:

/**********************************************************/


/* EXTI1 Modes */
void EXTI1_LowLevel_MODE(void){
    1e98:	df 93       	push	r29
    1e9a:	cf 93       	push	r28
    1e9c:	cd b7       	in	r28, 0x3d	; 61
    1e9e:	de b7       	in	r29, 0x3e	; 62
	CLR_BIT(EXTI_u8_MCUCR, EXTI_u8_ISC10);
    1ea0:	a5 e5       	ldi	r26, 0x55	; 85
    1ea2:	b0 e0       	ldi	r27, 0x00	; 0
    1ea4:	e5 e5       	ldi	r30, 0x55	; 85
    1ea6:	f0 e0       	ldi	r31, 0x00	; 0
    1ea8:	80 81       	ld	r24, Z
    1eaa:	8b 7f       	andi	r24, 0xFB	; 251
    1eac:	8c 93       	st	X, r24
	CLR_BIT(EXTI_u8_MCUCR, EXTI_u8_ISC11);
    1eae:	a5 e5       	ldi	r26, 0x55	; 85
    1eb0:	b0 e0       	ldi	r27, 0x00	; 0
    1eb2:	e5 e5       	ldi	r30, 0x55	; 85
    1eb4:	f0 e0       	ldi	r31, 0x00	; 0
    1eb6:	80 81       	ld	r24, Z
    1eb8:	87 7f       	andi	r24, 0xF7	; 247
    1eba:	8c 93       	st	X, r24
}
    1ebc:	cf 91       	pop	r28
    1ebe:	df 91       	pop	r29
    1ec0:	08 95       	ret

00001ec2 <EXTI1_FALLING_MODE>:

void EXTI1_FALLING_MODE(void){
    1ec2:	df 93       	push	r29
    1ec4:	cf 93       	push	r28
    1ec6:	cd b7       	in	r28, 0x3d	; 61
    1ec8:	de b7       	in	r29, 0x3e	; 62
	SET_BIT(EXTI_u8_MCUCR, EXTI_u8_ISC11);
    1eca:	a5 e5       	ldi	r26, 0x55	; 85
    1ecc:	b0 e0       	ldi	r27, 0x00	; 0
    1ece:	e5 e5       	ldi	r30, 0x55	; 85
    1ed0:	f0 e0       	ldi	r31, 0x00	; 0
    1ed2:	80 81       	ld	r24, Z
    1ed4:	88 60       	ori	r24, 0x08	; 8
    1ed6:	8c 93       	st	X, r24
	CLR_BIT(EXTI_u8_MCUCR, EXTI_u8_ISC10);
    1ed8:	a5 e5       	ldi	r26, 0x55	; 85
    1eda:	b0 e0       	ldi	r27, 0x00	; 0
    1edc:	e5 e5       	ldi	r30, 0x55	; 85
    1ede:	f0 e0       	ldi	r31, 0x00	; 0
    1ee0:	80 81       	ld	r24, Z
    1ee2:	8b 7f       	andi	r24, 0xFB	; 251
    1ee4:	8c 93       	st	X, r24
}
    1ee6:	cf 91       	pop	r28
    1ee8:	df 91       	pop	r29
    1eea:	08 95       	ret

00001eec <EXTI1_AnyLogicalChange_MODE>:

void EXTI1_AnyLogicalChange_MODE(void){
    1eec:	df 93       	push	r29
    1eee:	cf 93       	push	r28
    1ef0:	cd b7       	in	r28, 0x3d	; 61
    1ef2:	de b7       	in	r29, 0x3e	; 62
	CLR_BIT(EXTI_u8_MCUCR, EXTI_u8_ISC11);
    1ef4:	a5 e5       	ldi	r26, 0x55	; 85
    1ef6:	b0 e0       	ldi	r27, 0x00	; 0
    1ef8:	e5 e5       	ldi	r30, 0x55	; 85
    1efa:	f0 e0       	ldi	r31, 0x00	; 0
    1efc:	80 81       	ld	r24, Z
    1efe:	87 7f       	andi	r24, 0xF7	; 247
    1f00:	8c 93       	st	X, r24
	SET_BIT(EXTI_u8_MCUCR, EXTI_u8_ISC10);
    1f02:	a5 e5       	ldi	r26, 0x55	; 85
    1f04:	b0 e0       	ldi	r27, 0x00	; 0
    1f06:	e5 e5       	ldi	r30, 0x55	; 85
    1f08:	f0 e0       	ldi	r31, 0x00	; 0
    1f0a:	80 81       	ld	r24, Z
    1f0c:	84 60       	ori	r24, 0x04	; 4
    1f0e:	8c 93       	st	X, r24
}
    1f10:	cf 91       	pop	r28
    1f12:	df 91       	pop	r29
    1f14:	08 95       	ret

00001f16 <EXTI1_RISING_MODE>:

void EXTI1_RISING_MODE(void){
    1f16:	df 93       	push	r29
    1f18:	cf 93       	push	r28
    1f1a:	cd b7       	in	r28, 0x3d	; 61
    1f1c:	de b7       	in	r29, 0x3e	; 62
	SET_BIT(EXTI_u8_MCUCR, EXTI_u8_ISC11);
    1f1e:	a5 e5       	ldi	r26, 0x55	; 85
    1f20:	b0 e0       	ldi	r27, 0x00	; 0
    1f22:	e5 e5       	ldi	r30, 0x55	; 85
    1f24:	f0 e0       	ldi	r31, 0x00	; 0
    1f26:	80 81       	ld	r24, Z
    1f28:	88 60       	ori	r24, 0x08	; 8
    1f2a:	8c 93       	st	X, r24
	SET_BIT(EXTI_u8_MCUCR, EXTI_u8_ISC10);
    1f2c:	a5 e5       	ldi	r26, 0x55	; 85
    1f2e:	b0 e0       	ldi	r27, 0x00	; 0
    1f30:	e5 e5       	ldi	r30, 0x55	; 85
    1f32:	f0 e0       	ldi	r31, 0x00	; 0
    1f34:	80 81       	ld	r24, Z
    1f36:	84 60       	ori	r24, 0x04	; 4
    1f38:	8c 93       	st	X, r24
}
    1f3a:	cf 91       	pop	r28
    1f3c:	df 91       	pop	r29
    1f3e:	08 95       	ret

00001f40 <EXTI2_RISING_MODE>:

/**********************************************************/

/* EXTI2 Modes */

void EXTI2_RISING_MODE(void){
    1f40:	df 93       	push	r29
    1f42:	cf 93       	push	r28
    1f44:	cd b7       	in	r28, 0x3d	; 61
    1f46:	de b7       	in	r29, 0x3e	; 62
	SET_BIT(EXTI_u8_MCUCSR, EXTI_u8_ISC6);
    1f48:	a4 e5       	ldi	r26, 0x54	; 84
    1f4a:	b0 e0       	ldi	r27, 0x00	; 0
    1f4c:	e4 e5       	ldi	r30, 0x54	; 84
    1f4e:	f0 e0       	ldi	r31, 0x00	; 0
    1f50:	80 81       	ld	r24, Z
    1f52:	80 64       	ori	r24, 0x40	; 64
    1f54:	8c 93       	st	X, r24
}
    1f56:	cf 91       	pop	r28
    1f58:	df 91       	pop	r29
    1f5a:	08 95       	ret

00001f5c <EXTI2_FALLING_MODE>:

void EXTI2_FALLING_MODE(void){
    1f5c:	df 93       	push	r29
    1f5e:	cf 93       	push	r28
    1f60:	cd b7       	in	r28, 0x3d	; 61
    1f62:	de b7       	in	r29, 0x3e	; 62
	CLR_BIT(EXTI_u8_MCUCSR, EXTI_u8_ISC6);
    1f64:	a4 e5       	ldi	r26, 0x54	; 84
    1f66:	b0 e0       	ldi	r27, 0x00	; 0
    1f68:	e4 e5       	ldi	r30, 0x54	; 84
    1f6a:	f0 e0       	ldi	r31, 0x00	; 0
    1f6c:	80 81       	ld	r24, Z
    1f6e:	8f 7b       	andi	r24, 0xBF	; 191
    1f70:	8c 93       	st	X, r24
}
    1f72:	cf 91       	pop	r28
    1f74:	df 91       	pop	r29
    1f76:	08 95       	ret

00001f78 <EXTI_voidEXTI0Enable>:

/**********************************************************/

void EXTI_voidEXTI0Enable(void){
    1f78:	df 93       	push	r29
    1f7a:	cf 93       	push	r28
    1f7c:	cd b7       	in	r28, 0x3d	; 61
    1f7e:	de b7       	in	r29, 0x3e	; 62

	/* Selected Mode */
	EXTI0_RISING_MODE();
    1f80:	0e 94 37 0f 	call	0x1e6e	; 0x1e6e <EXTI0_RISING_MODE>

	/* Enable EXTI0 PIE */
	SET_BIT(EXTI_u8_GICR, EXTI_u8_Enable0_Pin);
    1f84:	ab e5       	ldi	r26, 0x5B	; 91
    1f86:	b0 e0       	ldi	r27, 0x00	; 0
    1f88:	eb e5       	ldi	r30, 0x5B	; 91
    1f8a:	f0 e0       	ldi	r31, 0x00	; 0
    1f8c:	80 81       	ld	r24, Z
    1f8e:	80 64       	ori	r24, 0x40	; 64
    1f90:	8c 93       	st	X, r24
}
    1f92:	cf 91       	pop	r28
    1f94:	df 91       	pop	r29
    1f96:	08 95       	ret

00001f98 <EXTI_voidEXTI1Enable>:

void EXTI_voidEXTI1Enable(void){
    1f98:	df 93       	push	r29
    1f9a:	cf 93       	push	r28
    1f9c:	cd b7       	in	r28, 0x3d	; 61
    1f9e:	de b7       	in	r29, 0x3e	; 62

	/* Selected Mode */
	EXTI1_AnyLogicalChange_MODE();
    1fa0:	0e 94 76 0f 	call	0x1eec	; 0x1eec <EXTI1_AnyLogicalChange_MODE>

	/* Enable EXTI1 PIE */
	SET_BIT(EXTI_u8_GICR, EXTI_u8_Enable1_Pin);
    1fa4:	ab e5       	ldi	r26, 0x5B	; 91
    1fa6:	b0 e0       	ldi	r27, 0x00	; 0
    1fa8:	eb e5       	ldi	r30, 0x5B	; 91
    1faa:	f0 e0       	ldi	r31, 0x00	; 0
    1fac:	80 81       	ld	r24, Z
    1fae:	80 68       	ori	r24, 0x80	; 128
    1fb0:	8c 93       	st	X, r24
}
    1fb2:	cf 91       	pop	r28
    1fb4:	df 91       	pop	r29
    1fb6:	08 95       	ret

00001fb8 <EXTI_INTEnable>:


void EXTI_INTEnable(u8 Copy_u8INTNumber, u8 Copy_u8INTMode){
    1fb8:	df 93       	push	r29
    1fba:	cf 93       	push	r28
    1fbc:	cd b7       	in	r28, 0x3d	; 61
    1fbe:	de b7       	in	r29, 0x3e	; 62
    1fc0:	2a 97       	sbiw	r28, 0x0a	; 10
    1fc2:	0f b6       	in	r0, 0x3f	; 63
    1fc4:	f8 94       	cli
    1fc6:	de bf       	out	0x3e, r29	; 62
    1fc8:	0f be       	out	0x3f, r0	; 63
    1fca:	cd bf       	out	0x3d, r28	; 61
    1fcc:	89 83       	std	Y+1, r24	; 0x01
    1fce:	6a 83       	std	Y+2, r22	; 0x02
	switch(Copy_u8INTNumber){
    1fd0:	89 81       	ldd	r24, Y+1	; 0x01
    1fd2:	28 2f       	mov	r18, r24
    1fd4:	30 e0       	ldi	r19, 0x00	; 0
    1fd6:	3a 87       	std	Y+10, r19	; 0x0a
    1fd8:	29 87       	std	Y+9, r18	; 0x09
    1fda:	89 85       	ldd	r24, Y+9	; 0x09
    1fdc:	9a 85       	ldd	r25, Y+10	; 0x0a
    1fde:	81 30       	cpi	r24, 0x01	; 1
    1fe0:	91 05       	cpc	r25, r1
    1fe2:	e9 f1       	breq	.+122    	; 0x205e <EXTI_INTEnable+0xa6>
    1fe4:	29 85       	ldd	r18, Y+9	; 0x09
    1fe6:	3a 85       	ldd	r19, Y+10	; 0x0a
    1fe8:	22 30       	cpi	r18, 0x02	; 2
    1fea:	31 05       	cpc	r19, r1
    1fec:	09 f4       	brne	.+2      	; 0x1ff0 <EXTI_INTEnable+0x38>
    1fee:	69 c0       	rjmp	.+210    	; 0x20c2 <EXTI_INTEnable+0x10a>
    1ff0:	89 85       	ldd	r24, Y+9	; 0x09
    1ff2:	9a 85       	ldd	r25, Y+10	; 0x0a
    1ff4:	00 97       	sbiw	r24, 0x00	; 0
    1ff6:	09 f0       	breq	.+2      	; 0x1ffa <EXTI_INTEnable+0x42>
    1ff8:	7f c0       	rjmp	.+254    	; 0x20f8 <EXTI_INTEnable+0x140>
		case EXTI_INT0:
			/* Enable EXTI0 PIE */
			SET_BIT(EXTI_u8_GICR, EXTI_u8_Enable0_Pin);
    1ffa:	ab e5       	ldi	r26, 0x5B	; 91
    1ffc:	b0 e0       	ldi	r27, 0x00	; 0
    1ffe:	eb e5       	ldi	r30, 0x5B	; 91
    2000:	f0 e0       	ldi	r31, 0x00	; 0
    2002:	80 81       	ld	r24, Z
    2004:	80 64       	ori	r24, 0x40	; 64
    2006:	8c 93       	st	X, r24
			switch(Copy_u8INTMode){
    2008:	8a 81       	ldd	r24, Y+2	; 0x02
    200a:	28 2f       	mov	r18, r24
    200c:	30 e0       	ldi	r19, 0x00	; 0
    200e:	38 87       	std	Y+8, r19	; 0x08
    2010:	2f 83       	std	Y+7, r18	; 0x07
    2012:	8f 81       	ldd	r24, Y+7	; 0x07
    2014:	98 85       	ldd	r25, Y+8	; 0x08
    2016:	81 30       	cpi	r24, 0x01	; 1
    2018:	91 05       	cpc	r25, r1
    201a:	c1 f0       	breq	.+48     	; 0x204c <EXTI_INTEnable+0x94>
    201c:	2f 81       	ldd	r18, Y+7	; 0x07
    201e:	38 85       	ldd	r19, Y+8	; 0x08
    2020:	22 30       	cpi	r18, 0x02	; 2
    2022:	31 05       	cpc	r19, r1
    2024:	2c f4       	brge	.+10     	; 0x2030 <EXTI_INTEnable+0x78>
    2026:	8f 81       	ldd	r24, Y+7	; 0x07
    2028:	98 85       	ldd	r25, Y+8	; 0x08
    202a:	00 97       	sbiw	r24, 0x00	; 0
    202c:	61 f0       	breq	.+24     	; 0x2046 <EXTI_INTEnable+0x8e>
    202e:	64 c0       	rjmp	.+200    	; 0x20f8 <EXTI_INTEnable+0x140>
    2030:	2f 81       	ldd	r18, Y+7	; 0x07
    2032:	38 85       	ldd	r19, Y+8	; 0x08
    2034:	22 30       	cpi	r18, 0x02	; 2
    2036:	31 05       	cpc	r19, r1
    2038:	61 f0       	breq	.+24     	; 0x2052 <EXTI_INTEnable+0x9a>
    203a:	8f 81       	ldd	r24, Y+7	; 0x07
    203c:	98 85       	ldd	r25, Y+8	; 0x08
    203e:	83 30       	cpi	r24, 0x03	; 3
    2040:	91 05       	cpc	r25, r1
    2042:	51 f0       	breq	.+20     	; 0x2058 <EXTI_INTEnable+0xa0>
    2044:	59 c0       	rjmp	.+178    	; 0x20f8 <EXTI_INTEnable+0x140>
				case Low_Level_Mode:
					EXTI0_LowLevel_MODE();
    2046:	0e 94 f8 0e 	call	0x1df0	; 0x1df0 <EXTI0_LowLevel_MODE>
    204a:	56 c0       	rjmp	.+172    	; 0x20f8 <EXTI_INTEnable+0x140>
					break;

				case Falling_Mode:
					EXTI0_FALLING_MODE();
    204c:	0e 94 0d 0f 	call	0x1e1a	; 0x1e1a <EXTI0_FALLING_MODE>
    2050:	53 c0       	rjmp	.+166    	; 0x20f8 <EXTI_INTEnable+0x140>
					break;

				case Any_Logical_Change_Mode:
					EXTI0_AnyLogicalChange_MODE();
    2052:	0e 94 22 0f 	call	0x1e44	; 0x1e44 <EXTI0_AnyLogicalChange_MODE>
    2056:	50 c0       	rjmp	.+160    	; 0x20f8 <EXTI_INTEnable+0x140>
					break;

				case Rising_Mode:
					EXTI0_RISING_MODE();
    2058:	0e 94 37 0f 	call	0x1e6e	; 0x1e6e <EXTI0_RISING_MODE>
    205c:	4d c0       	rjmp	.+154    	; 0x20f8 <EXTI_INTEnable+0x140>
			}
			break;

		case EXTI_INT1:
			/* Enable EXTI1 PIE */
			SET_BIT(EXTI_u8_GICR, EXTI_u8_Enable1_Pin);
    205e:	ab e5       	ldi	r26, 0x5B	; 91
    2060:	b0 e0       	ldi	r27, 0x00	; 0
    2062:	eb e5       	ldi	r30, 0x5B	; 91
    2064:	f0 e0       	ldi	r31, 0x00	; 0
    2066:	80 81       	ld	r24, Z
    2068:	80 68       	ori	r24, 0x80	; 128
    206a:	8c 93       	st	X, r24
			switch(Copy_u8INTMode){
    206c:	8a 81       	ldd	r24, Y+2	; 0x02
    206e:	28 2f       	mov	r18, r24
    2070:	30 e0       	ldi	r19, 0x00	; 0
    2072:	3e 83       	std	Y+6, r19	; 0x06
    2074:	2d 83       	std	Y+5, r18	; 0x05
    2076:	8d 81       	ldd	r24, Y+5	; 0x05
    2078:	9e 81       	ldd	r25, Y+6	; 0x06
    207a:	81 30       	cpi	r24, 0x01	; 1
    207c:	91 05       	cpc	r25, r1
    207e:	c1 f0       	breq	.+48     	; 0x20b0 <EXTI_INTEnable+0xf8>
    2080:	2d 81       	ldd	r18, Y+5	; 0x05
    2082:	3e 81       	ldd	r19, Y+6	; 0x06
    2084:	22 30       	cpi	r18, 0x02	; 2
    2086:	31 05       	cpc	r19, r1
    2088:	2c f4       	brge	.+10     	; 0x2094 <EXTI_INTEnable+0xdc>
    208a:	8d 81       	ldd	r24, Y+5	; 0x05
    208c:	9e 81       	ldd	r25, Y+6	; 0x06
    208e:	00 97       	sbiw	r24, 0x00	; 0
    2090:	61 f0       	breq	.+24     	; 0x20aa <EXTI_INTEnable+0xf2>
    2092:	32 c0       	rjmp	.+100    	; 0x20f8 <EXTI_INTEnable+0x140>
    2094:	2d 81       	ldd	r18, Y+5	; 0x05
    2096:	3e 81       	ldd	r19, Y+6	; 0x06
    2098:	22 30       	cpi	r18, 0x02	; 2
    209a:	31 05       	cpc	r19, r1
    209c:	61 f0       	breq	.+24     	; 0x20b6 <EXTI_INTEnable+0xfe>
    209e:	8d 81       	ldd	r24, Y+5	; 0x05
    20a0:	9e 81       	ldd	r25, Y+6	; 0x06
    20a2:	83 30       	cpi	r24, 0x03	; 3
    20a4:	91 05       	cpc	r25, r1
    20a6:	51 f0       	breq	.+20     	; 0x20bc <EXTI_INTEnable+0x104>
    20a8:	27 c0       	rjmp	.+78     	; 0x20f8 <EXTI_INTEnable+0x140>
				case Low_Level_Mode:
					EXTI1_LowLevel_MODE();
    20aa:	0e 94 4c 0f 	call	0x1e98	; 0x1e98 <EXTI1_LowLevel_MODE>
    20ae:	24 c0       	rjmp	.+72     	; 0x20f8 <EXTI_INTEnable+0x140>
					break;

				case Falling_Mode:
					EXTI1_FALLING_MODE();
    20b0:	0e 94 61 0f 	call	0x1ec2	; 0x1ec2 <EXTI1_FALLING_MODE>
    20b4:	21 c0       	rjmp	.+66     	; 0x20f8 <EXTI_INTEnable+0x140>
					break;

				case Any_Logical_Change_Mode:
					EXTI1_AnyLogicalChange_MODE();
    20b6:	0e 94 76 0f 	call	0x1eec	; 0x1eec <EXTI1_AnyLogicalChange_MODE>
    20ba:	1e c0       	rjmp	.+60     	; 0x20f8 <EXTI_INTEnable+0x140>
					break;

				case Rising_Mode:
					EXTI1_RISING_MODE();
    20bc:	0e 94 8b 0f 	call	0x1f16	; 0x1f16 <EXTI1_RISING_MODE>
    20c0:	1b c0       	rjmp	.+54     	; 0x20f8 <EXTI_INTEnable+0x140>
					break;
			}
			break;
		case EXTI_INT2:
			SET_BIT(EXTI_u8_GICR, EXTI_u8_Enable2_Pin);
    20c2:	ab e5       	ldi	r26, 0x5B	; 91
    20c4:	b0 e0       	ldi	r27, 0x00	; 0
    20c6:	eb e5       	ldi	r30, 0x5B	; 91
    20c8:	f0 e0       	ldi	r31, 0x00	; 0
    20ca:	80 81       	ld	r24, Z
    20cc:	80 62       	ori	r24, 0x20	; 32
    20ce:	8c 93       	st	X, r24
			switch(Copy_u8INTMode){
    20d0:	8a 81       	ldd	r24, Y+2	; 0x02
    20d2:	28 2f       	mov	r18, r24
    20d4:	30 e0       	ldi	r19, 0x00	; 0
    20d6:	3c 83       	std	Y+4, r19	; 0x04
    20d8:	2b 83       	std	Y+3, r18	; 0x03
    20da:	8b 81       	ldd	r24, Y+3	; 0x03
    20dc:	9c 81       	ldd	r25, Y+4	; 0x04
    20de:	81 30       	cpi	r24, 0x01	; 1
    20e0:	91 05       	cpc	r25, r1
    20e2:	41 f0       	breq	.+16     	; 0x20f4 <EXTI_INTEnable+0x13c>
    20e4:	2b 81       	ldd	r18, Y+3	; 0x03
    20e6:	3c 81       	ldd	r19, Y+4	; 0x04
    20e8:	23 30       	cpi	r18, 0x03	; 3
    20ea:	31 05       	cpc	r19, r1
    20ec:	29 f4       	brne	.+10     	; 0x20f8 <EXTI_INTEnable+0x140>
				case Rising_Mode:
					EXTI2_RISING_MODE();
    20ee:	0e 94 a0 0f 	call	0x1f40	; 0x1f40 <EXTI2_RISING_MODE>
    20f2:	02 c0       	rjmp	.+4      	; 0x20f8 <EXTI_INTEnable+0x140>
					break;
				case Falling_Mode:
					EXTI2_FALLING_MODE();
    20f4:	0e 94 ae 0f 	call	0x1f5c	; 0x1f5c <EXTI2_FALLING_MODE>
					break;
			}
			break;
	}

}
    20f8:	2a 96       	adiw	r28, 0x0a	; 10
    20fa:	0f b6       	in	r0, 0x3f	; 63
    20fc:	f8 94       	cli
    20fe:	de bf       	out	0x3e, r29	; 62
    2100:	0f be       	out	0x3f, r0	; 63
    2102:	cd bf       	out	0x3d, r28	; 61
    2104:	cf 91       	pop	r28
    2106:	df 91       	pop	r29
    2108:	08 95       	ret

0000210a <EXTI_voidINTDisable>:

void EXTI_voidINTDisable(u8 Copy_u8_INT_Index){
    210a:	df 93       	push	r29
    210c:	cf 93       	push	r28
    210e:	00 d0       	rcall	.+0      	; 0x2110 <EXTI_voidINTDisable+0x6>
    2110:	0f 92       	push	r0
    2112:	cd b7       	in	r28, 0x3d	; 61
    2114:	de b7       	in	r29, 0x3e	; 62
    2116:	89 83       	std	Y+1, r24	; 0x01
	switch(Copy_u8_INT_Index){
    2118:	89 81       	ldd	r24, Y+1	; 0x01
    211a:	28 2f       	mov	r18, r24
    211c:	30 e0       	ldi	r19, 0x00	; 0
    211e:	3b 83       	std	Y+3, r19	; 0x03
    2120:	2a 83       	std	Y+2, r18	; 0x02
    2122:	8a 81       	ldd	r24, Y+2	; 0x02
    2124:	9b 81       	ldd	r25, Y+3	; 0x03
    2126:	81 30       	cpi	r24, 0x01	; 1
    2128:	91 05       	cpc	r25, r1
    212a:	89 f0       	breq	.+34     	; 0x214e <EXTI_voidINTDisable+0x44>
    212c:	2a 81       	ldd	r18, Y+2	; 0x02
    212e:	3b 81       	ldd	r19, Y+3	; 0x03
    2130:	22 30       	cpi	r18, 0x02	; 2
    2132:	31 05       	cpc	r19, r1
    2134:	a1 f0       	breq	.+40     	; 0x215e <EXTI_voidINTDisable+0x54>
    2136:	8a 81       	ldd	r24, Y+2	; 0x02
    2138:	9b 81       	ldd	r25, Y+3	; 0x03
    213a:	00 97       	sbiw	r24, 0x00	; 0
    213c:	b9 f4       	brne	.+46     	; 0x216c <EXTI_voidINTDisable+0x62>
		case EXTI_INT0:
			CLR_BIT(EXTI_u8_GICR, EXTI_u8_Enable0_Pin);
    213e:	ab e5       	ldi	r26, 0x5B	; 91
    2140:	b0 e0       	ldi	r27, 0x00	; 0
    2142:	eb e5       	ldi	r30, 0x5B	; 91
    2144:	f0 e0       	ldi	r31, 0x00	; 0
    2146:	80 81       	ld	r24, Z
    2148:	8f 7b       	andi	r24, 0xBF	; 191
    214a:	8c 93       	st	X, r24
    214c:	0f c0       	rjmp	.+30     	; 0x216c <EXTI_voidINTDisable+0x62>
			break;

		case EXTI_INT1:
			CLR_BIT(EXTI_u8_GICR, EXTI_u8_Enable1_Pin);
    214e:	ab e5       	ldi	r26, 0x5B	; 91
    2150:	b0 e0       	ldi	r27, 0x00	; 0
    2152:	eb e5       	ldi	r30, 0x5B	; 91
    2154:	f0 e0       	ldi	r31, 0x00	; 0
    2156:	80 81       	ld	r24, Z
    2158:	8f 77       	andi	r24, 0x7F	; 127
    215a:	8c 93       	st	X, r24
    215c:	07 c0       	rjmp	.+14     	; 0x216c <EXTI_voidINTDisable+0x62>
			break;
		
		case EXTI_INT2:
			CLR_BIT(EXTI_u8_GICR, EXTI_u8_Enable2_Pin);
    215e:	ab e5       	ldi	r26, 0x5B	; 91
    2160:	b0 e0       	ldi	r27, 0x00	; 0
    2162:	eb e5       	ldi	r30, 0x5B	; 91
    2164:	f0 e0       	ldi	r31, 0x00	; 0
    2166:	80 81       	ld	r24, Z
    2168:	8f 7d       	andi	r24, 0xDF	; 223
    216a:	8c 93       	st	X, r24
			break;
	}
}
    216c:	0f 90       	pop	r0
    216e:	0f 90       	pop	r0
    2170:	0f 90       	pop	r0
    2172:	cf 91       	pop	r28
    2174:	df 91       	pop	r29
    2176:	08 95       	ret

00002178 <__vector_1>:

// EXTI 0

void __vector_1(void) __attribute__((signal));

void __vector_1(void){
    2178:	1f 92       	push	r1
    217a:	0f 92       	push	r0
    217c:	0f b6       	in	r0, 0x3f	; 63
    217e:	0f 92       	push	r0
    2180:	11 24       	eor	r1, r1
    2182:	2f 93       	push	r18
    2184:	3f 93       	push	r19
    2186:	4f 93       	push	r20
    2188:	5f 93       	push	r21
    218a:	6f 93       	push	r22
    218c:	7f 93       	push	r23
    218e:	8f 93       	push	r24
    2190:	9f 93       	push	r25
    2192:	af 93       	push	r26
    2194:	bf 93       	push	r27
    2196:	ef 93       	push	r30
    2198:	ff 93       	push	r31
    219a:	df 93       	push	r29
    219c:	cf 93       	push	r28
    219e:	cd b7       	in	r28, 0x3d	; 61
    21a0:	de b7       	in	r29, 0x3e	; 62

	if(EXTI[EXTI_INT0] != NULL){
    21a2:	80 91 8c 01 	lds	r24, 0x018C
    21a6:	90 91 8d 01 	lds	r25, 0x018D
    21aa:	00 97       	sbiw	r24, 0x00	; 0
    21ac:	29 f0       	breq	.+10     	; 0x21b8 <__vector_1+0x40>
		EXTI[0]();
    21ae:	e0 91 8c 01 	lds	r30, 0x018C
    21b2:	f0 91 8d 01 	lds	r31, 0x018D
    21b6:	09 95       	icall
	}

}
    21b8:	cf 91       	pop	r28
    21ba:	df 91       	pop	r29
    21bc:	ff 91       	pop	r31
    21be:	ef 91       	pop	r30
    21c0:	bf 91       	pop	r27
    21c2:	af 91       	pop	r26
    21c4:	9f 91       	pop	r25
    21c6:	8f 91       	pop	r24
    21c8:	7f 91       	pop	r23
    21ca:	6f 91       	pop	r22
    21cc:	5f 91       	pop	r21
    21ce:	4f 91       	pop	r20
    21d0:	3f 91       	pop	r19
    21d2:	2f 91       	pop	r18
    21d4:	0f 90       	pop	r0
    21d6:	0f be       	out	0x3f, r0	; 63
    21d8:	0f 90       	pop	r0
    21da:	1f 90       	pop	r1
    21dc:	18 95       	reti

000021de <__vector_2>:


// EXTI 1
void __vector_2(void) __attribute__((signal));

void __vector_2(void){
    21de:	1f 92       	push	r1
    21e0:	0f 92       	push	r0
    21e2:	0f b6       	in	r0, 0x3f	; 63
    21e4:	0f 92       	push	r0
    21e6:	11 24       	eor	r1, r1
    21e8:	2f 93       	push	r18
    21ea:	3f 93       	push	r19
    21ec:	4f 93       	push	r20
    21ee:	5f 93       	push	r21
    21f0:	6f 93       	push	r22
    21f2:	7f 93       	push	r23
    21f4:	8f 93       	push	r24
    21f6:	9f 93       	push	r25
    21f8:	af 93       	push	r26
    21fa:	bf 93       	push	r27
    21fc:	ef 93       	push	r30
    21fe:	ff 93       	push	r31
    2200:	df 93       	push	r29
    2202:	cf 93       	push	r28
    2204:	cd b7       	in	r28, 0x3d	; 61
    2206:	de b7       	in	r29, 0x3e	; 62

	if(EXTI[EXTI_INT1] != NULL){
    2208:	80 91 8e 01 	lds	r24, 0x018E
    220c:	90 91 8f 01 	lds	r25, 0x018F
    2210:	00 97       	sbiw	r24, 0x00	; 0
    2212:	29 f0       	breq	.+10     	; 0x221e <__vector_2+0x40>
			EXTI[1]();
    2214:	e0 91 8e 01 	lds	r30, 0x018E
    2218:	f0 91 8f 01 	lds	r31, 0x018F
    221c:	09 95       	icall
	}

}
    221e:	cf 91       	pop	r28
    2220:	df 91       	pop	r29
    2222:	ff 91       	pop	r31
    2224:	ef 91       	pop	r30
    2226:	bf 91       	pop	r27
    2228:	af 91       	pop	r26
    222a:	9f 91       	pop	r25
    222c:	8f 91       	pop	r24
    222e:	7f 91       	pop	r23
    2230:	6f 91       	pop	r22
    2232:	5f 91       	pop	r21
    2234:	4f 91       	pop	r20
    2236:	3f 91       	pop	r19
    2238:	2f 91       	pop	r18
    223a:	0f 90       	pop	r0
    223c:	0f be       	out	0x3f, r0	; 63
    223e:	0f 90       	pop	r0
    2240:	1f 90       	pop	r1
    2242:	18 95       	reti

00002244 <__vector_3>:


// EXTI 2
void __vector_3(void) __attribute__((signal));

void __vector_3(void){
    2244:	1f 92       	push	r1
    2246:	0f 92       	push	r0
    2248:	0f b6       	in	r0, 0x3f	; 63
    224a:	0f 92       	push	r0
    224c:	11 24       	eor	r1, r1
    224e:	2f 93       	push	r18
    2250:	3f 93       	push	r19
    2252:	4f 93       	push	r20
    2254:	5f 93       	push	r21
    2256:	6f 93       	push	r22
    2258:	7f 93       	push	r23
    225a:	8f 93       	push	r24
    225c:	9f 93       	push	r25
    225e:	af 93       	push	r26
    2260:	bf 93       	push	r27
    2262:	ef 93       	push	r30
    2264:	ff 93       	push	r31
    2266:	df 93       	push	r29
    2268:	cf 93       	push	r28
    226a:	cd b7       	in	r28, 0x3d	; 61
    226c:	de b7       	in	r29, 0x3e	; 62

	if(EXTI[EXTI_INT2] != NULL){
    226e:	80 91 90 01 	lds	r24, 0x0190
    2272:	90 91 91 01 	lds	r25, 0x0191
    2276:	00 97       	sbiw	r24, 0x00	; 0
    2278:	29 f0       	breq	.+10     	; 0x2284 <__vector_3+0x40>
			EXTI[2]();
    227a:	e0 91 90 01 	lds	r30, 0x0190
    227e:	f0 91 91 01 	lds	r31, 0x0191
    2282:	09 95       	icall
	}

}
    2284:	cf 91       	pop	r28
    2286:	df 91       	pop	r29
    2288:	ff 91       	pop	r31
    228a:	ef 91       	pop	r30
    228c:	bf 91       	pop	r27
    228e:	af 91       	pop	r26
    2290:	9f 91       	pop	r25
    2292:	8f 91       	pop	r24
    2294:	7f 91       	pop	r23
    2296:	6f 91       	pop	r22
    2298:	5f 91       	pop	r21
    229a:	4f 91       	pop	r20
    229c:	3f 91       	pop	r19
    229e:	2f 91       	pop	r18
    22a0:	0f 90       	pop	r0
    22a2:	0f be       	out	0x3f, r0	; 63
    22a4:	0f 90       	pop	r0
    22a6:	1f 90       	pop	r1
    22a8:	18 95       	reti

000022aa <DIO_voidInit>:

#include "DIO_Private.h"
#include "DIO_Config.h"

void DIO_voidInit(void)
{
    22aa:	df 93       	push	r29
    22ac:	cf 93       	push	r28
    22ae:	cd b7       	in	r28, 0x3d	; 61
    22b0:	de b7       	in	r29, 0x3e	; 62
	DIO_u8_DDRA_REG = Conc(DIO_u8_PA7_INITIAL_DIRECTION, DIO_u8_PA6_INITIAL_DIRECTION, DIO_u8_PA5_INITIAL_DIRECTION, DIO_u8_PA4_INITIAL_DIRECTION, DIO_u8_PA3_INITIAL_DIRECTION, DIO_u8_PA2_INITIAL_DIRECTION, DIO_u8_PA1_INITIAL_DIRECTION, DIO_u8_PA0_INITIAL_DIRECTION);
    22b2:	ea e3       	ldi	r30, 0x3A	; 58
    22b4:	f0 e0       	ldi	r31, 0x00	; 0
    22b6:	81 e0       	ldi	r24, 0x01	; 1
    22b8:	80 83       	st	Z, r24
	DIO_u8_DDRB_REG = Conc(DIO_u8_PB7_INITIAL_DIRECTION, DIO_u8_PB6_INITIAL_DIRECTION, DIO_u8_PB5_INITIAL_DIRECTION, DIO_u8_PB4_INITIAL_DIRECTION, DIO_u8_PB3_INITIAL_DIRECTION, DIO_u8_PB2_INITIAL_DIRECTION, DIO_u8_PB1_INITIAL_DIRECTION, DIO_u8_PB0_INITIAL_DIRECTION);
    22ba:	e7 e3       	ldi	r30, 0x37	; 55
    22bc:	f0 e0       	ldi	r31, 0x00	; 0
    22be:	80 ea       	ldi	r24, 0xA0	; 160
    22c0:	80 83       	st	Z, r24
	DIO_u8_DDRC_REG = Conc(DIO_u8_PC7_INITIAL_DIRECTION, DIO_u8_PC6_INITIAL_DIRECTION, DIO_u8_PC5_INITIAL_DIRECTION, DIO_u8_PC4_INITIAL_DIRECTION, DIO_u8_PC3_INITIAL_DIRECTION, DIO_u8_PC2_INITIAL_DIRECTION, DIO_u8_PC1_INITIAL_DIRECTION, DIO_u8_PC0_INITIAL_DIRECTION);
    22c2:	e4 e3       	ldi	r30, 0x34	; 52
    22c4:	f0 e0       	ldi	r31, 0x00	; 0
    22c6:	81 e0       	ldi	r24, 0x01	; 1
    22c8:	80 83       	st	Z, r24
	DIO_u8_DDRD_REG = Conc(DIO_u8_PD7_INITIAL_DIRECTION, DIO_u8_PD6_INITIAL_DIRECTION, DIO_u8_PD5_INITIAL_DIRECTION, DIO_u8_PD4_INITIAL_DIRECTION, DIO_u8_PD3_INITIAL_DIRECTION, DIO_u8_PD2_INITIAL_DIRECTION, DIO_u8_PD1_INITIAL_DIRECTION, DIO_u8_PD0_INITIAL_DIRECTION);
    22ca:	e1 e3       	ldi	r30, 0x31	; 49
    22cc:	f0 e0       	ldi	r31, 0x00	; 0
    22ce:	10 82       	st	Z, r1


	DIO_u8_PORTA_REG = Conc(DIO_u8_PA0_INITIAL_VALUE, DIO_u8_PA1_INITIAL_VALUE, DIO_u8_PA2_INITIAL_VALUE, DIO_u8_PA3_INITIAL_VALUE, DIO_u8_PA4_INITIAL_VALUE, DIO_u8_PA5_INITIAL_VALUE, DIO_u8_PA6_INITIAL_VALUE, DIO_u8_PA7_INITIAL_VALUE);
    22d0:	eb e3       	ldi	r30, 0x3B	; 59
    22d2:	f0 e0       	ldi	r31, 0x00	; 0
    22d4:	10 82       	st	Z, r1
	DIO_u8_PORTB_REG = Conc(DIO_u8_PB0_INITIAL_VALUE, DIO_u8_PB1_INITIAL_VALUE, DIO_u8_PB2_INITIAL_VALUE, DIO_u8_PB3_INITIAL_VALUE, DIO_u8_PB4_INITIAL_VALUE, DIO_u8_PB5_INITIAL_VALUE, DIO_u8_PB6_INITIAL_VALUE, DIO_u8_PB7_INITIAL_VALUE);
    22d6:	e8 e3       	ldi	r30, 0x38	; 56
    22d8:	f0 e0       	ldi	r31, 0x00	; 0
    22da:	88 e0       	ldi	r24, 0x08	; 8
    22dc:	80 83       	st	Z, r24
	DIO_u8_PORTC_REG = Conc(DIO_u8_PC0_INITIAL_VALUE, DIO_u8_PC1_INITIAL_VALUE, DIO_u8_PC2_INITIAL_VALUE, DIO_u8_PC3_INITIAL_VALUE, DIO_u8_PC4_INITIAL_VALUE, DIO_u8_PC5_INITIAL_VALUE, DIO_u8_PC6_INITIAL_VALUE, DIO_u8_PC7_INITIAL_VALUE);
    22de:	e5 e3       	ldi	r30, 0x35	; 53
    22e0:	f0 e0       	ldi	r31, 0x00	; 0
    22e2:	10 82       	st	Z, r1
	DIO_u8_PORTD_REG = Conc(DIO_u8_PD0_INITIAL_VALUE, DIO_u8_PD1_INITIAL_VALUE, DIO_u8_PD2_INITIAL_VALUE, DIO_u8_PD3_INITIAL_VALUE, DIO_u8_PD4_INITIAL_VALUE, DIO_u8_PD5_INITIAL_VALUE, DIO_u8_PD6_INITIAL_VALUE, DIO_u8_PD7_INITIAL_VALUE);
    22e4:	e2 e3       	ldi	r30, 0x32	; 50
    22e6:	f0 e0       	ldi	r31, 0x00	; 0
    22e8:	10 82       	st	Z, r1

}
    22ea:	cf 91       	pop	r28
    22ec:	df 91       	pop	r29
    22ee:	08 95       	ret

000022f0 <DIO_u8SetPinDirection>:

u8 DIO_u8SetPinDirection(u8 Copy_u8PortId, u8 Copy_u8PinId, u8 Copy_u8PinDirection)
{
    22f0:	df 93       	push	r29
    22f2:	cf 93       	push	r28
    22f4:	cd b7       	in	r28, 0x3d	; 61
    22f6:	de b7       	in	r29, 0x3e	; 62
    22f8:	2e 97       	sbiw	r28, 0x0e	; 14
    22fa:	0f b6       	in	r0, 0x3f	; 63
    22fc:	f8 94       	cli
    22fe:	de bf       	out	0x3e, r29	; 62
    2300:	0f be       	out	0x3f, r0	; 63
    2302:	cd bf       	out	0x3d, r28	; 61
    2304:	8a 83       	std	Y+2, r24	; 0x02
    2306:	6b 83       	std	Y+3, r22	; 0x03
    2308:	4c 83       	std	Y+4, r20	; 0x04

	u8 Local_u8ErrorState = STD_TYPES_OK;
    230a:	81 e0       	ldi	r24, 0x01	; 1
    230c:	89 83       	std	Y+1, r24	; 0x01

	if (Copy_u8PortId <= DIO_u8_PORTD && Copy_u8PinId <= DIO_u8_PIN7 && (Copy_u8PinDirection == DIO_u8_OUTPUT || Copy_u8PinDirection == DIO_u8_INPUT))
    230e:	8a 81       	ldd	r24, Y+2	; 0x02
    2310:	84 30       	cpi	r24, 0x04	; 4
    2312:	08 f0       	brcs	.+2      	; 0x2316 <DIO_u8SetPinDirection+0x26>
    2314:	0c c1       	rjmp	.+536    	; 0x252e <DIO_u8SetPinDirection+0x23e>
    2316:	8b 81       	ldd	r24, Y+3	; 0x03
    2318:	88 30       	cpi	r24, 0x08	; 8
    231a:	08 f0       	brcs	.+2      	; 0x231e <DIO_u8SetPinDirection+0x2e>
    231c:	08 c1       	rjmp	.+528    	; 0x252e <DIO_u8SetPinDirection+0x23e>
    231e:	8c 81       	ldd	r24, Y+4	; 0x04
    2320:	81 30       	cpi	r24, 0x01	; 1
    2322:	21 f0       	breq	.+8      	; 0x232c <DIO_u8SetPinDirection+0x3c>
    2324:	8c 81       	ldd	r24, Y+4	; 0x04
    2326:	88 23       	and	r24, r24
    2328:	09 f0       	breq	.+2      	; 0x232c <DIO_u8SetPinDirection+0x3c>
    232a:	01 c1       	rjmp	.+514    	; 0x252e <DIO_u8SetPinDirection+0x23e>
	{

		switch (Copy_u8PortId)
    232c:	8a 81       	ldd	r24, Y+2	; 0x02
    232e:	28 2f       	mov	r18, r24
    2330:	30 e0       	ldi	r19, 0x00	; 0
    2332:	3e 87       	std	Y+14, r19	; 0x0e
    2334:	2d 87       	std	Y+13, r18	; 0x0d
    2336:	8d 85       	ldd	r24, Y+13	; 0x0d
    2338:	9e 85       	ldd	r25, Y+14	; 0x0e
    233a:	81 30       	cpi	r24, 0x01	; 1
    233c:	91 05       	cpc	r25, r1
    233e:	09 f4       	brne	.+2      	; 0x2342 <DIO_u8SetPinDirection+0x52>
    2340:	4f c0       	rjmp	.+158    	; 0x23e0 <DIO_u8SetPinDirection+0xf0>
    2342:	2d 85       	ldd	r18, Y+13	; 0x0d
    2344:	3e 85       	ldd	r19, Y+14	; 0x0e
    2346:	22 30       	cpi	r18, 0x02	; 2
    2348:	31 05       	cpc	r19, r1
    234a:	2c f4       	brge	.+10     	; 0x2356 <DIO_u8SetPinDirection+0x66>
    234c:	8d 85       	ldd	r24, Y+13	; 0x0d
    234e:	9e 85       	ldd	r25, Y+14	; 0x0e
    2350:	00 97       	sbiw	r24, 0x00	; 0
    2352:	71 f0       	breq	.+28     	; 0x2370 <DIO_u8SetPinDirection+0x80>
    2354:	ed c0       	rjmp	.+474    	; 0x2530 <DIO_u8SetPinDirection+0x240>
    2356:	2d 85       	ldd	r18, Y+13	; 0x0d
    2358:	3e 85       	ldd	r19, Y+14	; 0x0e
    235a:	22 30       	cpi	r18, 0x02	; 2
    235c:	31 05       	cpc	r19, r1
    235e:	09 f4       	brne	.+2      	; 0x2362 <DIO_u8SetPinDirection+0x72>
    2360:	77 c0       	rjmp	.+238    	; 0x2450 <DIO_u8SetPinDirection+0x160>
    2362:	8d 85       	ldd	r24, Y+13	; 0x0d
    2364:	9e 85       	ldd	r25, Y+14	; 0x0e
    2366:	83 30       	cpi	r24, 0x03	; 3
    2368:	91 05       	cpc	r25, r1
    236a:	09 f4       	brne	.+2      	; 0x236e <DIO_u8SetPinDirection+0x7e>
    236c:	a9 c0       	rjmp	.+338    	; 0x24c0 <DIO_u8SetPinDirection+0x1d0>
    236e:	e0 c0       	rjmp	.+448    	; 0x2530 <DIO_u8SetPinDirection+0x240>
		{
		case DIO_u8_PORTA:
			switch (Copy_u8PinDirection)
    2370:	8c 81       	ldd	r24, Y+4	; 0x04
    2372:	28 2f       	mov	r18, r24
    2374:	30 e0       	ldi	r19, 0x00	; 0
    2376:	3c 87       	std	Y+12, r19	; 0x0c
    2378:	2b 87       	std	Y+11, r18	; 0x0b
    237a:	8b 85       	ldd	r24, Y+11	; 0x0b
    237c:	9c 85       	ldd	r25, Y+12	; 0x0c
    237e:	00 97       	sbiw	r24, 0x00	; 0
    2380:	d1 f0       	breq	.+52     	; 0x23b6 <DIO_u8SetPinDirection+0xc6>
    2382:	2b 85       	ldd	r18, Y+11	; 0x0b
    2384:	3c 85       	ldd	r19, Y+12	; 0x0c
    2386:	21 30       	cpi	r18, 0x01	; 1
    2388:	31 05       	cpc	r19, r1
    238a:	09 f0       	breq	.+2      	; 0x238e <DIO_u8SetPinDirection+0x9e>
    238c:	d1 c0       	rjmp	.+418    	; 0x2530 <DIO_u8SetPinDirection+0x240>
			{
			case DIO_u8_OUTPUT:
				SET_BIT(DIO_u8_DDRA_REG, Copy_u8PinId);
    238e:	aa e3       	ldi	r26, 0x3A	; 58
    2390:	b0 e0       	ldi	r27, 0x00	; 0
    2392:	ea e3       	ldi	r30, 0x3A	; 58
    2394:	f0 e0       	ldi	r31, 0x00	; 0
    2396:	80 81       	ld	r24, Z
    2398:	48 2f       	mov	r20, r24
    239a:	8b 81       	ldd	r24, Y+3	; 0x03
    239c:	28 2f       	mov	r18, r24
    239e:	30 e0       	ldi	r19, 0x00	; 0
    23a0:	81 e0       	ldi	r24, 0x01	; 1
    23a2:	90 e0       	ldi	r25, 0x00	; 0
    23a4:	02 2e       	mov	r0, r18
    23a6:	02 c0       	rjmp	.+4      	; 0x23ac <DIO_u8SetPinDirection+0xbc>
    23a8:	88 0f       	add	r24, r24
    23aa:	99 1f       	adc	r25, r25
    23ac:	0a 94       	dec	r0
    23ae:	e2 f7       	brpl	.-8      	; 0x23a8 <DIO_u8SetPinDirection+0xb8>
    23b0:	84 2b       	or	r24, r20
    23b2:	8c 93       	st	X, r24
    23b4:	bd c0       	rjmp	.+378    	; 0x2530 <DIO_u8SetPinDirection+0x240>
				break;

			case DIO_u8_INPUT:
				CLR_BIT(DIO_u8_DDRA_REG, Copy_u8PinId);
    23b6:	aa e3       	ldi	r26, 0x3A	; 58
    23b8:	b0 e0       	ldi	r27, 0x00	; 0
    23ba:	ea e3       	ldi	r30, 0x3A	; 58
    23bc:	f0 e0       	ldi	r31, 0x00	; 0
    23be:	80 81       	ld	r24, Z
    23c0:	48 2f       	mov	r20, r24
    23c2:	8b 81       	ldd	r24, Y+3	; 0x03
    23c4:	28 2f       	mov	r18, r24
    23c6:	30 e0       	ldi	r19, 0x00	; 0
    23c8:	81 e0       	ldi	r24, 0x01	; 1
    23ca:	90 e0       	ldi	r25, 0x00	; 0
    23cc:	02 2e       	mov	r0, r18
    23ce:	02 c0       	rjmp	.+4      	; 0x23d4 <DIO_u8SetPinDirection+0xe4>
    23d0:	88 0f       	add	r24, r24
    23d2:	99 1f       	adc	r25, r25
    23d4:	0a 94       	dec	r0
    23d6:	e2 f7       	brpl	.-8      	; 0x23d0 <DIO_u8SetPinDirection+0xe0>
    23d8:	80 95       	com	r24
    23da:	84 23       	and	r24, r20
    23dc:	8c 93       	st	X, r24
    23de:	a8 c0       	rjmp	.+336    	; 0x2530 <DIO_u8SetPinDirection+0x240>
				break;
			}
			break;

		case DIO_u8_PORTB:
			switch (Copy_u8PinDirection)
    23e0:	8c 81       	ldd	r24, Y+4	; 0x04
    23e2:	28 2f       	mov	r18, r24
    23e4:	30 e0       	ldi	r19, 0x00	; 0
    23e6:	3a 87       	std	Y+10, r19	; 0x0a
    23e8:	29 87       	std	Y+9, r18	; 0x09
    23ea:	89 85       	ldd	r24, Y+9	; 0x09
    23ec:	9a 85       	ldd	r25, Y+10	; 0x0a
    23ee:	00 97       	sbiw	r24, 0x00	; 0
    23f0:	d1 f0       	breq	.+52     	; 0x2426 <DIO_u8SetPinDirection+0x136>
    23f2:	29 85       	ldd	r18, Y+9	; 0x09
    23f4:	3a 85       	ldd	r19, Y+10	; 0x0a
    23f6:	21 30       	cpi	r18, 0x01	; 1
    23f8:	31 05       	cpc	r19, r1
    23fa:	09 f0       	breq	.+2      	; 0x23fe <DIO_u8SetPinDirection+0x10e>
    23fc:	99 c0       	rjmp	.+306    	; 0x2530 <DIO_u8SetPinDirection+0x240>
			{
			case DIO_u8_OUTPUT:
				SET_BIT(DIO_u8_DDRB_REG, Copy_u8PinId);
    23fe:	a7 e3       	ldi	r26, 0x37	; 55
    2400:	b0 e0       	ldi	r27, 0x00	; 0
    2402:	e7 e3       	ldi	r30, 0x37	; 55
    2404:	f0 e0       	ldi	r31, 0x00	; 0
    2406:	80 81       	ld	r24, Z
    2408:	48 2f       	mov	r20, r24
    240a:	8b 81       	ldd	r24, Y+3	; 0x03
    240c:	28 2f       	mov	r18, r24
    240e:	30 e0       	ldi	r19, 0x00	; 0
    2410:	81 e0       	ldi	r24, 0x01	; 1
    2412:	90 e0       	ldi	r25, 0x00	; 0
    2414:	02 2e       	mov	r0, r18
    2416:	02 c0       	rjmp	.+4      	; 0x241c <DIO_u8SetPinDirection+0x12c>
    2418:	88 0f       	add	r24, r24
    241a:	99 1f       	adc	r25, r25
    241c:	0a 94       	dec	r0
    241e:	e2 f7       	brpl	.-8      	; 0x2418 <DIO_u8SetPinDirection+0x128>
    2420:	84 2b       	or	r24, r20
    2422:	8c 93       	st	X, r24
    2424:	85 c0       	rjmp	.+266    	; 0x2530 <DIO_u8SetPinDirection+0x240>
				break;

			case DIO_u8_INPUT:
				CLR_BIT(DIO_u8_DDRB_REG, Copy_u8PinId);
    2426:	a7 e3       	ldi	r26, 0x37	; 55
    2428:	b0 e0       	ldi	r27, 0x00	; 0
    242a:	e7 e3       	ldi	r30, 0x37	; 55
    242c:	f0 e0       	ldi	r31, 0x00	; 0
    242e:	80 81       	ld	r24, Z
    2430:	48 2f       	mov	r20, r24
    2432:	8b 81       	ldd	r24, Y+3	; 0x03
    2434:	28 2f       	mov	r18, r24
    2436:	30 e0       	ldi	r19, 0x00	; 0
    2438:	81 e0       	ldi	r24, 0x01	; 1
    243a:	90 e0       	ldi	r25, 0x00	; 0
    243c:	02 2e       	mov	r0, r18
    243e:	02 c0       	rjmp	.+4      	; 0x2444 <DIO_u8SetPinDirection+0x154>
    2440:	88 0f       	add	r24, r24
    2442:	99 1f       	adc	r25, r25
    2444:	0a 94       	dec	r0
    2446:	e2 f7       	brpl	.-8      	; 0x2440 <DIO_u8SetPinDirection+0x150>
    2448:	80 95       	com	r24
    244a:	84 23       	and	r24, r20
    244c:	8c 93       	st	X, r24
    244e:	70 c0       	rjmp	.+224    	; 0x2530 <DIO_u8SetPinDirection+0x240>
				break;
			}
			break;

		case DIO_u8_PORTC:
			switch (Copy_u8PinDirection)
    2450:	8c 81       	ldd	r24, Y+4	; 0x04
    2452:	28 2f       	mov	r18, r24
    2454:	30 e0       	ldi	r19, 0x00	; 0
    2456:	38 87       	std	Y+8, r19	; 0x08
    2458:	2f 83       	std	Y+7, r18	; 0x07
    245a:	8f 81       	ldd	r24, Y+7	; 0x07
    245c:	98 85       	ldd	r25, Y+8	; 0x08
    245e:	00 97       	sbiw	r24, 0x00	; 0
    2460:	d1 f0       	breq	.+52     	; 0x2496 <DIO_u8SetPinDirection+0x1a6>
    2462:	2f 81       	ldd	r18, Y+7	; 0x07
    2464:	38 85       	ldd	r19, Y+8	; 0x08
    2466:	21 30       	cpi	r18, 0x01	; 1
    2468:	31 05       	cpc	r19, r1
    246a:	09 f0       	breq	.+2      	; 0x246e <DIO_u8SetPinDirection+0x17e>
    246c:	61 c0       	rjmp	.+194    	; 0x2530 <DIO_u8SetPinDirection+0x240>
			{
			case DIO_u8_OUTPUT:
				SET_BIT(DIO_u8_DDRC_REG, Copy_u8PinId);
    246e:	a4 e3       	ldi	r26, 0x34	; 52
    2470:	b0 e0       	ldi	r27, 0x00	; 0
    2472:	e4 e3       	ldi	r30, 0x34	; 52
    2474:	f0 e0       	ldi	r31, 0x00	; 0
    2476:	80 81       	ld	r24, Z
    2478:	48 2f       	mov	r20, r24
    247a:	8b 81       	ldd	r24, Y+3	; 0x03
    247c:	28 2f       	mov	r18, r24
    247e:	30 e0       	ldi	r19, 0x00	; 0
    2480:	81 e0       	ldi	r24, 0x01	; 1
    2482:	90 e0       	ldi	r25, 0x00	; 0
    2484:	02 2e       	mov	r0, r18
    2486:	02 c0       	rjmp	.+4      	; 0x248c <DIO_u8SetPinDirection+0x19c>
    2488:	88 0f       	add	r24, r24
    248a:	99 1f       	adc	r25, r25
    248c:	0a 94       	dec	r0
    248e:	e2 f7       	brpl	.-8      	; 0x2488 <DIO_u8SetPinDirection+0x198>
    2490:	84 2b       	or	r24, r20
    2492:	8c 93       	st	X, r24
    2494:	4d c0       	rjmp	.+154    	; 0x2530 <DIO_u8SetPinDirection+0x240>
				break;

			case DIO_u8_INPUT:
				CLR_BIT(DIO_u8_DDRC_REG, Copy_u8PinId);
    2496:	a4 e3       	ldi	r26, 0x34	; 52
    2498:	b0 e0       	ldi	r27, 0x00	; 0
    249a:	e4 e3       	ldi	r30, 0x34	; 52
    249c:	f0 e0       	ldi	r31, 0x00	; 0
    249e:	80 81       	ld	r24, Z
    24a0:	48 2f       	mov	r20, r24
    24a2:	8b 81       	ldd	r24, Y+3	; 0x03
    24a4:	28 2f       	mov	r18, r24
    24a6:	30 e0       	ldi	r19, 0x00	; 0
    24a8:	81 e0       	ldi	r24, 0x01	; 1
    24aa:	90 e0       	ldi	r25, 0x00	; 0
    24ac:	02 2e       	mov	r0, r18
    24ae:	02 c0       	rjmp	.+4      	; 0x24b4 <DIO_u8SetPinDirection+0x1c4>
    24b0:	88 0f       	add	r24, r24
    24b2:	99 1f       	adc	r25, r25
    24b4:	0a 94       	dec	r0
    24b6:	e2 f7       	brpl	.-8      	; 0x24b0 <DIO_u8SetPinDirection+0x1c0>
    24b8:	80 95       	com	r24
    24ba:	84 23       	and	r24, r20
    24bc:	8c 93       	st	X, r24
    24be:	38 c0       	rjmp	.+112    	; 0x2530 <DIO_u8SetPinDirection+0x240>
				break;
			}
			break;

		case DIO_u8_PORTD:
			switch (Copy_u8PinDirection)
    24c0:	8c 81       	ldd	r24, Y+4	; 0x04
    24c2:	28 2f       	mov	r18, r24
    24c4:	30 e0       	ldi	r19, 0x00	; 0
    24c6:	3e 83       	std	Y+6, r19	; 0x06
    24c8:	2d 83       	std	Y+5, r18	; 0x05
    24ca:	8d 81       	ldd	r24, Y+5	; 0x05
    24cc:	9e 81       	ldd	r25, Y+6	; 0x06
    24ce:	00 97       	sbiw	r24, 0x00	; 0
    24d0:	c9 f0       	breq	.+50     	; 0x2504 <DIO_u8SetPinDirection+0x214>
    24d2:	2d 81       	ldd	r18, Y+5	; 0x05
    24d4:	3e 81       	ldd	r19, Y+6	; 0x06
    24d6:	21 30       	cpi	r18, 0x01	; 1
    24d8:	31 05       	cpc	r19, r1
    24da:	51 f5       	brne	.+84     	; 0x2530 <DIO_u8SetPinDirection+0x240>
			{
			case DIO_u8_OUTPUT:
				SET_BIT(DIO_u8_DDRD_REG, Copy_u8PinId);
    24dc:	a1 e3       	ldi	r26, 0x31	; 49
    24de:	b0 e0       	ldi	r27, 0x00	; 0
    24e0:	e1 e3       	ldi	r30, 0x31	; 49
    24e2:	f0 e0       	ldi	r31, 0x00	; 0
    24e4:	80 81       	ld	r24, Z
    24e6:	48 2f       	mov	r20, r24
    24e8:	8b 81       	ldd	r24, Y+3	; 0x03
    24ea:	28 2f       	mov	r18, r24
    24ec:	30 e0       	ldi	r19, 0x00	; 0
    24ee:	81 e0       	ldi	r24, 0x01	; 1
    24f0:	90 e0       	ldi	r25, 0x00	; 0
    24f2:	02 2e       	mov	r0, r18
    24f4:	02 c0       	rjmp	.+4      	; 0x24fa <DIO_u8SetPinDirection+0x20a>
    24f6:	88 0f       	add	r24, r24
    24f8:	99 1f       	adc	r25, r25
    24fa:	0a 94       	dec	r0
    24fc:	e2 f7       	brpl	.-8      	; 0x24f6 <DIO_u8SetPinDirection+0x206>
    24fe:	84 2b       	or	r24, r20
    2500:	8c 93       	st	X, r24
    2502:	16 c0       	rjmp	.+44     	; 0x2530 <DIO_u8SetPinDirection+0x240>
				break;

			case DIO_u8_INPUT:
				CLR_BIT(DIO_u8_DDRD_REG, Copy_u8PinId);
    2504:	a1 e3       	ldi	r26, 0x31	; 49
    2506:	b0 e0       	ldi	r27, 0x00	; 0
    2508:	e1 e3       	ldi	r30, 0x31	; 49
    250a:	f0 e0       	ldi	r31, 0x00	; 0
    250c:	80 81       	ld	r24, Z
    250e:	48 2f       	mov	r20, r24
    2510:	8b 81       	ldd	r24, Y+3	; 0x03
    2512:	28 2f       	mov	r18, r24
    2514:	30 e0       	ldi	r19, 0x00	; 0
    2516:	81 e0       	ldi	r24, 0x01	; 1
    2518:	90 e0       	ldi	r25, 0x00	; 0
    251a:	02 2e       	mov	r0, r18
    251c:	02 c0       	rjmp	.+4      	; 0x2522 <DIO_u8SetPinDirection+0x232>
    251e:	88 0f       	add	r24, r24
    2520:	99 1f       	adc	r25, r25
    2522:	0a 94       	dec	r0
    2524:	e2 f7       	brpl	.-8      	; 0x251e <DIO_u8SetPinDirection+0x22e>
    2526:	80 95       	com	r24
    2528:	84 23       	and	r24, r20
    252a:	8c 93       	st	X, r24
    252c:	01 c0       	rjmp	.+2      	; 0x2530 <DIO_u8SetPinDirection+0x240>
		}
	}

	else
	{
		Local_u8ErrorState = STD_TYPES_NOK;
    252e:	19 82       	std	Y+1, r1	; 0x01
	}

	return Local_u8ErrorState;
    2530:	89 81       	ldd	r24, Y+1	; 0x01
}
    2532:	2e 96       	adiw	r28, 0x0e	; 14
    2534:	0f b6       	in	r0, 0x3f	; 63
    2536:	f8 94       	cli
    2538:	de bf       	out	0x3e, r29	; 62
    253a:	0f be       	out	0x3f, r0	; 63
    253c:	cd bf       	out	0x3d, r28	; 61
    253e:	cf 91       	pop	r28
    2540:	df 91       	pop	r29
    2542:	08 95       	ret

00002544 <DIO_u8SetPinValue>:

u8 DIO_u8SetPinValue(u8 Copy_u8PortId, u8 Copy_u8PinId, u8 Copy_u8PinValue)
{
    2544:	df 93       	push	r29
    2546:	cf 93       	push	r28
    2548:	cd b7       	in	r28, 0x3d	; 61
    254a:	de b7       	in	r29, 0x3e	; 62
    254c:	2f 97       	sbiw	r28, 0x0f	; 15
    254e:	0f b6       	in	r0, 0x3f	; 63
    2550:	f8 94       	cli
    2552:	de bf       	out	0x3e, r29	; 62
    2554:	0f be       	out	0x3f, r0	; 63
    2556:	cd bf       	out	0x3d, r28	; 61
    2558:	8b 83       	std	Y+3, r24	; 0x03
    255a:	6c 83       	std	Y+4, r22	; 0x04
    255c:	4d 83       	std	Y+5, r20	; 0x05
	u8 Local_u8ErrorState = STD_TYPES_OK;
    255e:	81 e0       	ldi	r24, 0x01	; 1
    2560:	8a 83       	std	Y+2, r24	; 0x02

	if (Copy_u8PortId <= DIO_u8_PORTD && Copy_u8PinId <= DIO_u8_PIN7 && (Copy_u8PinValue == DIO_u8_LOW || Copy_u8PinValue == DIO_u8_HIGH))
    2562:	8b 81       	ldd	r24, Y+3	; 0x03
    2564:	84 30       	cpi	r24, 0x04	; 4
    2566:	08 f0       	brcs	.+2      	; 0x256a <DIO_u8SetPinValue+0x26>
    2568:	13 c1       	rjmp	.+550    	; 0x2790 <DIO_u8SetPinValue+0x24c>
    256a:	8c 81       	ldd	r24, Y+4	; 0x04
    256c:	88 30       	cpi	r24, 0x08	; 8
    256e:	08 f0       	brcs	.+2      	; 0x2572 <DIO_u8SetPinValue+0x2e>
    2570:	0f c1       	rjmp	.+542    	; 0x2790 <DIO_u8SetPinValue+0x24c>
    2572:	8d 81       	ldd	r24, Y+5	; 0x05
    2574:	88 23       	and	r24, r24
    2576:	21 f0       	breq	.+8      	; 0x2580 <DIO_u8SetPinValue+0x3c>
    2578:	8d 81       	ldd	r24, Y+5	; 0x05
    257a:	81 30       	cpi	r24, 0x01	; 1
    257c:	09 f0       	breq	.+2      	; 0x2580 <DIO_u8SetPinValue+0x3c>
    257e:	08 c1       	rjmp	.+528    	; 0x2790 <DIO_u8SetPinValue+0x24c>
	{
		switch (Copy_u8PortId)
    2580:	8b 81       	ldd	r24, Y+3	; 0x03
    2582:	28 2f       	mov	r18, r24
    2584:	30 e0       	ldi	r19, 0x00	; 0
    2586:	3f 87       	std	Y+15, r19	; 0x0f
    2588:	2e 87       	std	Y+14, r18	; 0x0e
    258a:	8e 85       	ldd	r24, Y+14	; 0x0e
    258c:	9f 85       	ldd	r25, Y+15	; 0x0f
    258e:	81 30       	cpi	r24, 0x01	; 1
    2590:	91 05       	cpc	r25, r1
    2592:	09 f4       	brne	.+2      	; 0x2596 <DIO_u8SetPinValue+0x52>
    2594:	50 c0       	rjmp	.+160    	; 0x2636 <DIO_u8SetPinValue+0xf2>
    2596:	2e 85       	ldd	r18, Y+14	; 0x0e
    2598:	3f 85       	ldd	r19, Y+15	; 0x0f
    259a:	22 30       	cpi	r18, 0x02	; 2
    259c:	31 05       	cpc	r19, r1
    259e:	2c f4       	brge	.+10     	; 0x25aa <DIO_u8SetPinValue+0x66>
    25a0:	8e 85       	ldd	r24, Y+14	; 0x0e
    25a2:	9f 85       	ldd	r25, Y+15	; 0x0f
    25a4:	00 97       	sbiw	r24, 0x00	; 0
    25a6:	71 f0       	breq	.+28     	; 0x25c4 <DIO_u8SetPinValue+0x80>
    25a8:	f4 c0       	rjmp	.+488    	; 0x2792 <DIO_u8SetPinValue+0x24e>
    25aa:	2e 85       	ldd	r18, Y+14	; 0x0e
    25ac:	3f 85       	ldd	r19, Y+15	; 0x0f
    25ae:	22 30       	cpi	r18, 0x02	; 2
    25b0:	31 05       	cpc	r19, r1
    25b2:	09 f4       	brne	.+2      	; 0x25b6 <DIO_u8SetPinValue+0x72>
    25b4:	79 c0       	rjmp	.+242    	; 0x26a8 <DIO_u8SetPinValue+0x164>
    25b6:	8e 85       	ldd	r24, Y+14	; 0x0e
    25b8:	9f 85       	ldd	r25, Y+15	; 0x0f
    25ba:	83 30       	cpi	r24, 0x03	; 3
    25bc:	91 05       	cpc	r25, r1
    25be:	09 f4       	brne	.+2      	; 0x25c2 <DIO_u8SetPinValue+0x7e>
    25c0:	ad c0       	rjmp	.+346    	; 0x271c <DIO_u8SetPinValue+0x1d8>
    25c2:	e7 c0       	rjmp	.+462    	; 0x2792 <DIO_u8SetPinValue+0x24e>
		{
		case DIO_u8_PORTA:
			switch (Copy_u8PinValue)
    25c4:	8d 81       	ldd	r24, Y+5	; 0x05
    25c6:	28 2f       	mov	r18, r24
    25c8:	30 e0       	ldi	r19, 0x00	; 0
    25ca:	3d 87       	std	Y+13, r19	; 0x0d
    25cc:	2c 87       	std	Y+12, r18	; 0x0c
    25ce:	8c 85       	ldd	r24, Y+12	; 0x0c
    25d0:	9d 85       	ldd	r25, Y+13	; 0x0d
    25d2:	00 97       	sbiw	r24, 0x00	; 0
    25d4:	c9 f0       	breq	.+50     	; 0x2608 <DIO_u8SetPinValue+0xc4>
    25d6:	2c 85       	ldd	r18, Y+12	; 0x0c
    25d8:	3d 85       	ldd	r19, Y+13	; 0x0d
    25da:	21 30       	cpi	r18, 0x01	; 1
    25dc:	31 05       	cpc	r19, r1
    25de:	49 f5       	brne	.+82     	; 0x2632 <DIO_u8SetPinValue+0xee>
			{

			case DIO_u8_HIGH:
				SET_BIT(DIO_u8_PORTA_REG, Copy_u8PinId);
    25e0:	ab e3       	ldi	r26, 0x3B	; 59
    25e2:	b0 e0       	ldi	r27, 0x00	; 0
    25e4:	eb e3       	ldi	r30, 0x3B	; 59
    25e6:	f0 e0       	ldi	r31, 0x00	; 0
    25e8:	80 81       	ld	r24, Z
    25ea:	48 2f       	mov	r20, r24
    25ec:	8c 81       	ldd	r24, Y+4	; 0x04
    25ee:	28 2f       	mov	r18, r24
    25f0:	30 e0       	ldi	r19, 0x00	; 0
    25f2:	81 e0       	ldi	r24, 0x01	; 1
    25f4:	90 e0       	ldi	r25, 0x00	; 0
    25f6:	02 2e       	mov	r0, r18
    25f8:	02 c0       	rjmp	.+4      	; 0x25fe <DIO_u8SetPinValue+0xba>
    25fa:	88 0f       	add	r24, r24
    25fc:	99 1f       	adc	r25, r25
    25fe:	0a 94       	dec	r0
    2600:	e2 f7       	brpl	.-8      	; 0x25fa <DIO_u8SetPinValue+0xb6>
    2602:	84 2b       	or	r24, r20
    2604:	8c 93       	st	X, r24
    2606:	c5 c0       	rjmp	.+394    	; 0x2792 <DIO_u8SetPinValue+0x24e>
				break;

			case DIO_u8_LOW:
				CLR_BIT(DIO_u8_PORTA_REG, Copy_u8PinId);
    2608:	ab e3       	ldi	r26, 0x3B	; 59
    260a:	b0 e0       	ldi	r27, 0x00	; 0
    260c:	eb e3       	ldi	r30, 0x3B	; 59
    260e:	f0 e0       	ldi	r31, 0x00	; 0
    2610:	80 81       	ld	r24, Z
    2612:	48 2f       	mov	r20, r24
    2614:	8c 81       	ldd	r24, Y+4	; 0x04
    2616:	28 2f       	mov	r18, r24
    2618:	30 e0       	ldi	r19, 0x00	; 0
    261a:	81 e0       	ldi	r24, 0x01	; 1
    261c:	90 e0       	ldi	r25, 0x00	; 0
    261e:	02 2e       	mov	r0, r18
    2620:	02 c0       	rjmp	.+4      	; 0x2626 <DIO_u8SetPinValue+0xe2>
    2622:	88 0f       	add	r24, r24
    2624:	99 1f       	adc	r25, r25
    2626:	0a 94       	dec	r0
    2628:	e2 f7       	brpl	.-8      	; 0x2622 <DIO_u8SetPinValue+0xde>
    262a:	80 95       	com	r24
    262c:	84 23       	and	r24, r20
    262e:	8c 93       	st	X, r24
    2630:	b0 c0       	rjmp	.+352    	; 0x2792 <DIO_u8SetPinValue+0x24e>
				break;
			default:
				Local_u8ErrorState = STD_TYPES_NOK;
    2632:	1a 82       	std	Y+2, r1	; 0x02
    2634:	ae c0       	rjmp	.+348    	; 0x2792 <DIO_u8SetPinValue+0x24e>
			}
			break;

		case DIO_u8_PORTB:
			switch (Copy_u8PinValue)
    2636:	8d 81       	ldd	r24, Y+5	; 0x05
    2638:	28 2f       	mov	r18, r24
    263a:	30 e0       	ldi	r19, 0x00	; 0
    263c:	3b 87       	std	Y+11, r19	; 0x0b
    263e:	2a 87       	std	Y+10, r18	; 0x0a
    2640:	8a 85       	ldd	r24, Y+10	; 0x0a
    2642:	9b 85       	ldd	r25, Y+11	; 0x0b
    2644:	00 97       	sbiw	r24, 0x00	; 0
    2646:	c9 f0       	breq	.+50     	; 0x267a <DIO_u8SetPinValue+0x136>
    2648:	2a 85       	ldd	r18, Y+10	; 0x0a
    264a:	3b 85       	ldd	r19, Y+11	; 0x0b
    264c:	21 30       	cpi	r18, 0x01	; 1
    264e:	31 05       	cpc	r19, r1
    2650:	49 f5       	brne	.+82     	; 0x26a4 <DIO_u8SetPinValue+0x160>
			{

			case DIO_u8_HIGH:
				SET_BIT(DIO_u8_PORTB_REG, Copy_u8PinId);
    2652:	a8 e3       	ldi	r26, 0x38	; 56
    2654:	b0 e0       	ldi	r27, 0x00	; 0
    2656:	e8 e3       	ldi	r30, 0x38	; 56
    2658:	f0 e0       	ldi	r31, 0x00	; 0
    265a:	80 81       	ld	r24, Z
    265c:	48 2f       	mov	r20, r24
    265e:	8c 81       	ldd	r24, Y+4	; 0x04
    2660:	28 2f       	mov	r18, r24
    2662:	30 e0       	ldi	r19, 0x00	; 0
    2664:	81 e0       	ldi	r24, 0x01	; 1
    2666:	90 e0       	ldi	r25, 0x00	; 0
    2668:	02 2e       	mov	r0, r18
    266a:	02 c0       	rjmp	.+4      	; 0x2670 <DIO_u8SetPinValue+0x12c>
    266c:	88 0f       	add	r24, r24
    266e:	99 1f       	adc	r25, r25
    2670:	0a 94       	dec	r0
    2672:	e2 f7       	brpl	.-8      	; 0x266c <DIO_u8SetPinValue+0x128>
    2674:	84 2b       	or	r24, r20
    2676:	8c 93       	st	X, r24
    2678:	8c c0       	rjmp	.+280    	; 0x2792 <DIO_u8SetPinValue+0x24e>
				break;
			case DIO_u8_LOW:
				CLR_BIT(DIO_u8_PORTB_REG, Copy_u8PinId);
    267a:	a8 e3       	ldi	r26, 0x38	; 56
    267c:	b0 e0       	ldi	r27, 0x00	; 0
    267e:	e8 e3       	ldi	r30, 0x38	; 56
    2680:	f0 e0       	ldi	r31, 0x00	; 0
    2682:	80 81       	ld	r24, Z
    2684:	48 2f       	mov	r20, r24
    2686:	8c 81       	ldd	r24, Y+4	; 0x04
    2688:	28 2f       	mov	r18, r24
    268a:	30 e0       	ldi	r19, 0x00	; 0
    268c:	81 e0       	ldi	r24, 0x01	; 1
    268e:	90 e0       	ldi	r25, 0x00	; 0
    2690:	02 2e       	mov	r0, r18
    2692:	02 c0       	rjmp	.+4      	; 0x2698 <DIO_u8SetPinValue+0x154>
    2694:	88 0f       	add	r24, r24
    2696:	99 1f       	adc	r25, r25
    2698:	0a 94       	dec	r0
    269a:	e2 f7       	brpl	.-8      	; 0x2694 <DIO_u8SetPinValue+0x150>
    269c:	80 95       	com	r24
    269e:	84 23       	and	r24, r20
    26a0:	8c 93       	st	X, r24
    26a2:	77 c0       	rjmp	.+238    	; 0x2792 <DIO_u8SetPinValue+0x24e>
				break;
			default:
				Local_u8ErrorState = STD_TYPES_NOK;
    26a4:	1a 82       	std	Y+2, r1	; 0x02
    26a6:	75 c0       	rjmp	.+234    	; 0x2792 <DIO_u8SetPinValue+0x24e>
			}
			break;

		case DIO_u8_PORTC:
			switch (Copy_u8PinValue)
    26a8:	8d 81       	ldd	r24, Y+5	; 0x05
    26aa:	28 2f       	mov	r18, r24
    26ac:	30 e0       	ldi	r19, 0x00	; 0
    26ae:	39 87       	std	Y+9, r19	; 0x09
    26b0:	28 87       	std	Y+8, r18	; 0x08
    26b2:	88 85       	ldd	r24, Y+8	; 0x08
    26b4:	99 85       	ldd	r25, Y+9	; 0x09
    26b6:	00 97       	sbiw	r24, 0x00	; 0
    26b8:	31 f0       	breq	.+12     	; 0x26c6 <DIO_u8SetPinValue+0x182>
    26ba:	28 85       	ldd	r18, Y+8	; 0x08
    26bc:	39 85       	ldd	r19, Y+9	; 0x09
    26be:	21 30       	cpi	r18, 0x01	; 1
    26c0:	31 05       	cpc	r19, r1
    26c2:	b1 f0       	breq	.+44     	; 0x26f0 <DIO_u8SetPinValue+0x1ac>
    26c4:	29 c0       	rjmp	.+82     	; 0x2718 <DIO_u8SetPinValue+0x1d4>
			{
			case DIO_u8_LOW:
				CLR_BIT(DIO_u8_PORTC_REG, Copy_u8PinId);
    26c6:	a5 e3       	ldi	r26, 0x35	; 53
    26c8:	b0 e0       	ldi	r27, 0x00	; 0
    26ca:	e5 e3       	ldi	r30, 0x35	; 53
    26cc:	f0 e0       	ldi	r31, 0x00	; 0
    26ce:	80 81       	ld	r24, Z
    26d0:	48 2f       	mov	r20, r24
    26d2:	8c 81       	ldd	r24, Y+4	; 0x04
    26d4:	28 2f       	mov	r18, r24
    26d6:	30 e0       	ldi	r19, 0x00	; 0
    26d8:	81 e0       	ldi	r24, 0x01	; 1
    26da:	90 e0       	ldi	r25, 0x00	; 0
    26dc:	02 2e       	mov	r0, r18
    26de:	02 c0       	rjmp	.+4      	; 0x26e4 <DIO_u8SetPinValue+0x1a0>
    26e0:	88 0f       	add	r24, r24
    26e2:	99 1f       	adc	r25, r25
    26e4:	0a 94       	dec	r0
    26e6:	e2 f7       	brpl	.-8      	; 0x26e0 <DIO_u8SetPinValue+0x19c>
    26e8:	80 95       	com	r24
    26ea:	84 23       	and	r24, r20
    26ec:	8c 93       	st	X, r24
    26ee:	51 c0       	rjmp	.+162    	; 0x2792 <DIO_u8SetPinValue+0x24e>
				break;

			case DIO_u8_HIGH:
				SET_BIT(DIO_u8_PORTC_REG, Copy_u8PinId);
    26f0:	a5 e3       	ldi	r26, 0x35	; 53
    26f2:	b0 e0       	ldi	r27, 0x00	; 0
    26f4:	e5 e3       	ldi	r30, 0x35	; 53
    26f6:	f0 e0       	ldi	r31, 0x00	; 0
    26f8:	80 81       	ld	r24, Z
    26fa:	48 2f       	mov	r20, r24
    26fc:	8c 81       	ldd	r24, Y+4	; 0x04
    26fe:	28 2f       	mov	r18, r24
    2700:	30 e0       	ldi	r19, 0x00	; 0
    2702:	81 e0       	ldi	r24, 0x01	; 1
    2704:	90 e0       	ldi	r25, 0x00	; 0
    2706:	02 2e       	mov	r0, r18
    2708:	02 c0       	rjmp	.+4      	; 0x270e <DIO_u8SetPinValue+0x1ca>
    270a:	88 0f       	add	r24, r24
    270c:	99 1f       	adc	r25, r25
    270e:	0a 94       	dec	r0
    2710:	e2 f7       	brpl	.-8      	; 0x270a <DIO_u8SetPinValue+0x1c6>
    2712:	84 2b       	or	r24, r20
    2714:	8c 93       	st	X, r24
    2716:	3d c0       	rjmp	.+122    	; 0x2792 <DIO_u8SetPinValue+0x24e>
				break;
			default:
				Local_u8ErrorState = STD_TYPES_NOK;
    2718:	1a 82       	std	Y+2, r1	; 0x02
    271a:	3b c0       	rjmp	.+118    	; 0x2792 <DIO_u8SetPinValue+0x24e>
			}
			break;

		case DIO_u8_PORTD:
			switch (Copy_u8PinValue)
    271c:	8d 81       	ldd	r24, Y+5	; 0x05
    271e:	28 2f       	mov	r18, r24
    2720:	30 e0       	ldi	r19, 0x00	; 0
    2722:	3f 83       	std	Y+7, r19	; 0x07
    2724:	2e 83       	std	Y+6, r18	; 0x06
    2726:	8e 81       	ldd	r24, Y+6	; 0x06
    2728:	9f 81       	ldd	r25, Y+7	; 0x07
    272a:	00 97       	sbiw	r24, 0x00	; 0
    272c:	31 f0       	breq	.+12     	; 0x273a <DIO_u8SetPinValue+0x1f6>
    272e:	2e 81       	ldd	r18, Y+6	; 0x06
    2730:	3f 81       	ldd	r19, Y+7	; 0x07
    2732:	21 30       	cpi	r18, 0x01	; 1
    2734:	31 05       	cpc	r19, r1
    2736:	b1 f0       	breq	.+44     	; 0x2764 <DIO_u8SetPinValue+0x220>
    2738:	29 c0       	rjmp	.+82     	; 0x278c <DIO_u8SetPinValue+0x248>
			{
			case DIO_u8_LOW:
				CLR_BIT(DIO_u8_PORTC_REG, Copy_u8PinId);
    273a:	a5 e3       	ldi	r26, 0x35	; 53
    273c:	b0 e0       	ldi	r27, 0x00	; 0
    273e:	e5 e3       	ldi	r30, 0x35	; 53
    2740:	f0 e0       	ldi	r31, 0x00	; 0
    2742:	80 81       	ld	r24, Z
    2744:	48 2f       	mov	r20, r24
    2746:	8c 81       	ldd	r24, Y+4	; 0x04
    2748:	28 2f       	mov	r18, r24
    274a:	30 e0       	ldi	r19, 0x00	; 0
    274c:	81 e0       	ldi	r24, 0x01	; 1
    274e:	90 e0       	ldi	r25, 0x00	; 0
    2750:	02 2e       	mov	r0, r18
    2752:	02 c0       	rjmp	.+4      	; 0x2758 <DIO_u8SetPinValue+0x214>
    2754:	88 0f       	add	r24, r24
    2756:	99 1f       	adc	r25, r25
    2758:	0a 94       	dec	r0
    275a:	e2 f7       	brpl	.-8      	; 0x2754 <DIO_u8SetPinValue+0x210>
    275c:	80 95       	com	r24
    275e:	84 23       	and	r24, r20
    2760:	8c 93       	st	X, r24
    2762:	17 c0       	rjmp	.+46     	; 0x2792 <DIO_u8SetPinValue+0x24e>
				break;

			case DIO_u8_HIGH:
				SET_BIT(DIO_u8_PORTD_REG, Copy_u8PinId);
    2764:	a2 e3       	ldi	r26, 0x32	; 50
    2766:	b0 e0       	ldi	r27, 0x00	; 0
    2768:	e2 e3       	ldi	r30, 0x32	; 50
    276a:	f0 e0       	ldi	r31, 0x00	; 0
    276c:	80 81       	ld	r24, Z
    276e:	48 2f       	mov	r20, r24
    2770:	8c 81       	ldd	r24, Y+4	; 0x04
    2772:	28 2f       	mov	r18, r24
    2774:	30 e0       	ldi	r19, 0x00	; 0
    2776:	81 e0       	ldi	r24, 0x01	; 1
    2778:	90 e0       	ldi	r25, 0x00	; 0
    277a:	02 2e       	mov	r0, r18
    277c:	02 c0       	rjmp	.+4      	; 0x2782 <DIO_u8SetPinValue+0x23e>
    277e:	88 0f       	add	r24, r24
    2780:	99 1f       	adc	r25, r25
    2782:	0a 94       	dec	r0
    2784:	e2 f7       	brpl	.-8      	; 0x277e <DIO_u8SetPinValue+0x23a>
    2786:	84 2b       	or	r24, r20
    2788:	8c 93       	st	X, r24
    278a:	03 c0       	rjmp	.+6      	; 0x2792 <DIO_u8SetPinValue+0x24e>
				break;
			default:
				Local_u8ErrorState = STD_TYPES_NOK;
    278c:	1a 82       	std	Y+2, r1	; 0x02
    278e:	01 c0       	rjmp	.+2      	; 0x2792 <DIO_u8SetPinValue+0x24e>
		}
	}

	else
	{
		u8 Local_u8ErrorState = STD_TYPES_NOK;
    2790:	19 82       	std	Y+1, r1	; 0x01
	}

	return Local_u8ErrorState;
    2792:	8a 81       	ldd	r24, Y+2	; 0x02
}
    2794:	2f 96       	adiw	r28, 0x0f	; 15
    2796:	0f b6       	in	r0, 0x3f	; 63
    2798:	f8 94       	cli
    279a:	de bf       	out	0x3e, r29	; 62
    279c:	0f be       	out	0x3f, r0	; 63
    279e:	cd bf       	out	0x3d, r28	; 61
    27a0:	cf 91       	pop	r28
    27a2:	df 91       	pop	r29
    27a4:	08 95       	ret

000027a6 <DIO_u8GetPinValue>:

u8 DIO_u8GetPinValue(u8 Copy_u8PortId, u8 Copy_u8PinId, u8 *Copy_pu8ReturnedPinValue)
{
    27a6:	df 93       	push	r29
    27a8:	cf 93       	push	r28
    27aa:	cd b7       	in	r28, 0x3d	; 61
    27ac:	de b7       	in	r29, 0x3e	; 62
    27ae:	28 97       	sbiw	r28, 0x08	; 8
    27b0:	0f b6       	in	r0, 0x3f	; 63
    27b2:	f8 94       	cli
    27b4:	de bf       	out	0x3e, r29	; 62
    27b6:	0f be       	out	0x3f, r0	; 63
    27b8:	cd bf       	out	0x3d, r28	; 61
    27ba:	8b 83       	std	Y+3, r24	; 0x03
    27bc:	6c 83       	std	Y+4, r22	; 0x04
    27be:	5e 83       	std	Y+6, r21	; 0x06
    27c0:	4d 83       	std	Y+5, r20	; 0x05
	u8 Local_u8ErrorState = STD_TYPES_OK;
    27c2:	81 e0       	ldi	r24, 0x01	; 1
    27c4:	8a 83       	std	Y+2, r24	; 0x02
	u8 Local_u8PinValue;

	if (Copy_u8PortId <= DIO_u8_PORTD && Copy_u8PinId <= DIO_u8_PIN7 && Copy_pu8ReturnedPinValue != NULL)
    27c6:	8b 81       	ldd	r24, Y+3	; 0x03
    27c8:	84 30       	cpi	r24, 0x04	; 4
    27ca:	08 f0       	brcs	.+2      	; 0x27ce <DIO_u8GetPinValue+0x28>
    27cc:	9f c0       	rjmp	.+318    	; 0x290c <DIO_u8GetPinValue+0x166>
    27ce:	8c 81       	ldd	r24, Y+4	; 0x04
    27d0:	88 30       	cpi	r24, 0x08	; 8
    27d2:	08 f0       	brcs	.+2      	; 0x27d6 <DIO_u8GetPinValue+0x30>
    27d4:	9b c0       	rjmp	.+310    	; 0x290c <DIO_u8GetPinValue+0x166>
    27d6:	8d 81       	ldd	r24, Y+5	; 0x05
    27d8:	9e 81       	ldd	r25, Y+6	; 0x06
    27da:	00 97       	sbiw	r24, 0x00	; 0
    27dc:	09 f4       	brne	.+2      	; 0x27e0 <DIO_u8GetPinValue+0x3a>
    27de:	96 c0       	rjmp	.+300    	; 0x290c <DIO_u8GetPinValue+0x166>
	{

		switch (Copy_u8PortId)
    27e0:	8b 81       	ldd	r24, Y+3	; 0x03
    27e2:	28 2f       	mov	r18, r24
    27e4:	30 e0       	ldi	r19, 0x00	; 0
    27e6:	38 87       	std	Y+8, r19	; 0x08
    27e8:	2f 83       	std	Y+7, r18	; 0x07
    27ea:	4f 81       	ldd	r20, Y+7	; 0x07
    27ec:	58 85       	ldd	r21, Y+8	; 0x08
    27ee:	41 30       	cpi	r20, 0x01	; 1
    27f0:	51 05       	cpc	r21, r1
    27f2:	a9 f1       	breq	.+106    	; 0x285e <DIO_u8GetPinValue+0xb8>
    27f4:	8f 81       	ldd	r24, Y+7	; 0x07
    27f6:	98 85       	ldd	r25, Y+8	; 0x08
    27f8:	82 30       	cpi	r24, 0x02	; 2
    27fa:	91 05       	cpc	r25, r1
    27fc:	34 f4       	brge	.+12     	; 0x280a <DIO_u8GetPinValue+0x64>
    27fe:	2f 81       	ldd	r18, Y+7	; 0x07
    2800:	38 85       	ldd	r19, Y+8	; 0x08
    2802:	21 15       	cp	r18, r1
    2804:	31 05       	cpc	r19, r1
    2806:	71 f0       	breq	.+28     	; 0x2824 <DIO_u8GetPinValue+0x7e>
    2808:	82 c0       	rjmp	.+260    	; 0x290e <DIO_u8GetPinValue+0x168>
    280a:	4f 81       	ldd	r20, Y+7	; 0x07
    280c:	58 85       	ldd	r21, Y+8	; 0x08
    280e:	42 30       	cpi	r20, 0x02	; 2
    2810:	51 05       	cpc	r21, r1
    2812:	09 f4       	brne	.+2      	; 0x2816 <DIO_u8GetPinValue+0x70>
    2814:	41 c0       	rjmp	.+130    	; 0x2898 <DIO_u8GetPinValue+0xf2>
    2816:	8f 81       	ldd	r24, Y+7	; 0x07
    2818:	98 85       	ldd	r25, Y+8	; 0x08
    281a:	83 30       	cpi	r24, 0x03	; 3
    281c:	91 05       	cpc	r25, r1
    281e:	09 f4       	brne	.+2      	; 0x2822 <DIO_u8GetPinValue+0x7c>
    2820:	58 c0       	rjmp	.+176    	; 0x28d2 <DIO_u8GetPinValue+0x12c>
    2822:	75 c0       	rjmp	.+234    	; 0x290e <DIO_u8GetPinValue+0x168>
		{
		case DIO_u8_PORTA:
			Local_u8PinValue = GET_BIT(DIO_u8_PINA_REG, Copy_u8PinId);
    2824:	e9 e3       	ldi	r30, 0x39	; 57
    2826:	f0 e0       	ldi	r31, 0x00	; 0
    2828:	80 81       	ld	r24, Z
    282a:	28 2f       	mov	r18, r24
    282c:	30 e0       	ldi	r19, 0x00	; 0
    282e:	8c 81       	ldd	r24, Y+4	; 0x04
    2830:	88 2f       	mov	r24, r24
    2832:	90 e0       	ldi	r25, 0x00	; 0
    2834:	a9 01       	movw	r20, r18
    2836:	02 c0       	rjmp	.+4      	; 0x283c <DIO_u8GetPinValue+0x96>
    2838:	55 95       	asr	r21
    283a:	47 95       	ror	r20
    283c:	8a 95       	dec	r24
    283e:	e2 f7       	brpl	.-8      	; 0x2838 <DIO_u8GetPinValue+0x92>
    2840:	ca 01       	movw	r24, r20
    2842:	81 70       	andi	r24, 0x01	; 1
    2844:	89 83       	std	Y+1, r24	; 0x01
			if (Local_u8PinValue == DIO_u8_LOW)
    2846:	89 81       	ldd	r24, Y+1	; 0x01
    2848:	88 23       	and	r24, r24
    284a:	21 f4       	brne	.+8      	; 0x2854 <DIO_u8GetPinValue+0xae>
			{
				*Copy_pu8ReturnedPinValue = DIO_u8_LOW;
    284c:	ed 81       	ldd	r30, Y+5	; 0x05
    284e:	fe 81       	ldd	r31, Y+6	; 0x06
    2850:	10 82       	st	Z, r1
    2852:	5d c0       	rjmp	.+186    	; 0x290e <DIO_u8GetPinValue+0x168>
			}

			else
			{
				*Copy_pu8ReturnedPinValue = DIO_u8_HIGH;
    2854:	ed 81       	ldd	r30, Y+5	; 0x05
    2856:	fe 81       	ldd	r31, Y+6	; 0x06
    2858:	81 e0       	ldi	r24, 0x01	; 1
    285a:	80 83       	st	Z, r24
    285c:	58 c0       	rjmp	.+176    	; 0x290e <DIO_u8GetPinValue+0x168>
			}
			break;

		case DIO_u8_PORTB:
			Local_u8PinValue = GET_BIT(DIO_u8_PINB_REG, Copy_u8PinId);
    285e:	e6 e3       	ldi	r30, 0x36	; 54
    2860:	f0 e0       	ldi	r31, 0x00	; 0
    2862:	80 81       	ld	r24, Z
    2864:	28 2f       	mov	r18, r24
    2866:	30 e0       	ldi	r19, 0x00	; 0
    2868:	8c 81       	ldd	r24, Y+4	; 0x04
    286a:	88 2f       	mov	r24, r24
    286c:	90 e0       	ldi	r25, 0x00	; 0
    286e:	a9 01       	movw	r20, r18
    2870:	02 c0       	rjmp	.+4      	; 0x2876 <DIO_u8GetPinValue+0xd0>
    2872:	55 95       	asr	r21
    2874:	47 95       	ror	r20
    2876:	8a 95       	dec	r24
    2878:	e2 f7       	brpl	.-8      	; 0x2872 <DIO_u8GetPinValue+0xcc>
    287a:	ca 01       	movw	r24, r20
    287c:	81 70       	andi	r24, 0x01	; 1
    287e:	89 83       	std	Y+1, r24	; 0x01
			if (Local_u8PinValue == DIO_u8_LOW)
    2880:	89 81       	ldd	r24, Y+1	; 0x01
    2882:	88 23       	and	r24, r24
    2884:	21 f4       	brne	.+8      	; 0x288e <DIO_u8GetPinValue+0xe8>
			{
				*Copy_pu8ReturnedPinValue = DIO_u8_LOW;
    2886:	ed 81       	ldd	r30, Y+5	; 0x05
    2888:	fe 81       	ldd	r31, Y+6	; 0x06
    288a:	10 82       	st	Z, r1
    288c:	40 c0       	rjmp	.+128    	; 0x290e <DIO_u8GetPinValue+0x168>
			}

			else
			{
				*Copy_pu8ReturnedPinValue = DIO_u8_HIGH;
    288e:	ed 81       	ldd	r30, Y+5	; 0x05
    2890:	fe 81       	ldd	r31, Y+6	; 0x06
    2892:	81 e0       	ldi	r24, 0x01	; 1
    2894:	80 83       	st	Z, r24
    2896:	3b c0       	rjmp	.+118    	; 0x290e <DIO_u8GetPinValue+0x168>
			}
			break;

		case DIO_u8_PORTC:
			Local_u8PinValue = GET_BIT(DIO_u8_PINC_REG, Copy_u8PinId);
    2898:	e3 e3       	ldi	r30, 0x33	; 51
    289a:	f0 e0       	ldi	r31, 0x00	; 0
    289c:	80 81       	ld	r24, Z
    289e:	28 2f       	mov	r18, r24
    28a0:	30 e0       	ldi	r19, 0x00	; 0
    28a2:	8c 81       	ldd	r24, Y+4	; 0x04
    28a4:	88 2f       	mov	r24, r24
    28a6:	90 e0       	ldi	r25, 0x00	; 0
    28a8:	a9 01       	movw	r20, r18
    28aa:	02 c0       	rjmp	.+4      	; 0x28b0 <DIO_u8GetPinValue+0x10a>
    28ac:	55 95       	asr	r21
    28ae:	47 95       	ror	r20
    28b0:	8a 95       	dec	r24
    28b2:	e2 f7       	brpl	.-8      	; 0x28ac <DIO_u8GetPinValue+0x106>
    28b4:	ca 01       	movw	r24, r20
    28b6:	81 70       	andi	r24, 0x01	; 1
    28b8:	89 83       	std	Y+1, r24	; 0x01
			if (Local_u8PinValue == DIO_u8_LOW)
    28ba:	89 81       	ldd	r24, Y+1	; 0x01
    28bc:	88 23       	and	r24, r24
    28be:	21 f4       	brne	.+8      	; 0x28c8 <DIO_u8GetPinValue+0x122>
			{
				*Copy_pu8ReturnedPinValue = DIO_u8_LOW;
    28c0:	ed 81       	ldd	r30, Y+5	; 0x05
    28c2:	fe 81       	ldd	r31, Y+6	; 0x06
    28c4:	10 82       	st	Z, r1
    28c6:	23 c0       	rjmp	.+70     	; 0x290e <DIO_u8GetPinValue+0x168>
			}

			else
			{
				*Copy_pu8ReturnedPinValue = DIO_u8_HIGH;
    28c8:	ed 81       	ldd	r30, Y+5	; 0x05
    28ca:	fe 81       	ldd	r31, Y+6	; 0x06
    28cc:	81 e0       	ldi	r24, 0x01	; 1
    28ce:	80 83       	st	Z, r24
    28d0:	1e c0       	rjmp	.+60     	; 0x290e <DIO_u8GetPinValue+0x168>
			}
			break;

		case DIO_u8_PORTD:
			Local_u8PinValue = GET_BIT(DIO_u8_PIND_REG, Copy_u8PinId);
    28d2:	e0 e3       	ldi	r30, 0x30	; 48
    28d4:	f0 e0       	ldi	r31, 0x00	; 0
    28d6:	80 81       	ld	r24, Z
    28d8:	28 2f       	mov	r18, r24
    28da:	30 e0       	ldi	r19, 0x00	; 0
    28dc:	8c 81       	ldd	r24, Y+4	; 0x04
    28de:	88 2f       	mov	r24, r24
    28e0:	90 e0       	ldi	r25, 0x00	; 0
    28e2:	a9 01       	movw	r20, r18
    28e4:	02 c0       	rjmp	.+4      	; 0x28ea <DIO_u8GetPinValue+0x144>
    28e6:	55 95       	asr	r21
    28e8:	47 95       	ror	r20
    28ea:	8a 95       	dec	r24
    28ec:	e2 f7       	brpl	.-8      	; 0x28e6 <DIO_u8GetPinValue+0x140>
    28ee:	ca 01       	movw	r24, r20
    28f0:	81 70       	andi	r24, 0x01	; 1
    28f2:	89 83       	std	Y+1, r24	; 0x01
			if (Local_u8PinValue == DIO_u8_LOW)
    28f4:	89 81       	ldd	r24, Y+1	; 0x01
    28f6:	88 23       	and	r24, r24
    28f8:	21 f4       	brne	.+8      	; 0x2902 <DIO_u8GetPinValue+0x15c>
			{
				*Copy_pu8ReturnedPinValue = DIO_u8_LOW;
    28fa:	ed 81       	ldd	r30, Y+5	; 0x05
    28fc:	fe 81       	ldd	r31, Y+6	; 0x06
    28fe:	10 82       	st	Z, r1
    2900:	06 c0       	rjmp	.+12     	; 0x290e <DIO_u8GetPinValue+0x168>
			}

			else
			{
				*Copy_pu8ReturnedPinValue = DIO_u8_HIGH;
    2902:	ed 81       	ldd	r30, Y+5	; 0x05
    2904:	fe 81       	ldd	r31, Y+6	; 0x06
    2906:	81 e0       	ldi	r24, 0x01	; 1
    2908:	80 83       	st	Z, r24
    290a:	01 c0       	rjmp	.+2      	; 0x290e <DIO_u8GetPinValue+0x168>
		}
	}

	else
	{
		Local_u8ErrorState = STD_TYPES_NOK;
    290c:	1a 82       	std	Y+2, r1	; 0x02
	}

	return Local_u8ErrorState;
    290e:	8a 81       	ldd	r24, Y+2	; 0x02
}
    2910:	28 96       	adiw	r28, 0x08	; 8
    2912:	0f b6       	in	r0, 0x3f	; 63
    2914:	f8 94       	cli
    2916:	de bf       	out	0x3e, r29	; 62
    2918:	0f be       	out	0x3f, r0	; 63
    291a:	cd bf       	out	0x3d, r28	; 61
    291c:	cf 91       	pop	r28
    291e:	df 91       	pop	r29
    2920:	08 95       	ret

00002922 <DIO_getPinValueWithoutPointer>:


u8 DIO_getPinValueWithoutPointer(u8 port_num, u8 pin_num)
{
    2922:	df 93       	push	r29
    2924:	cf 93       	push	r28
    2926:	00 d0       	rcall	.+0      	; 0x2928 <DIO_getPinValueWithoutPointer+0x6>
    2928:	00 d0       	rcall	.+0      	; 0x292a <DIO_getPinValueWithoutPointer+0x8>
    292a:	0f 92       	push	r0
    292c:	cd b7       	in	r28, 0x3d	; 61
    292e:	de b7       	in	r29, 0x3e	; 62
    2930:	8a 83       	std	Y+2, r24	; 0x02
    2932:	6b 83       	std	Y+3, r22	; 0x03
	u8 pin_value = DIO_u8_LOW;
    2934:	19 82       	std	Y+1, r1	; 0x01


	if((pin_num >= NUM_OF_PINS_PER_PORT) || (port_num >= NUM_OF_PORTS))
    2936:	8b 81       	ldd	r24, Y+3	; 0x03
    2938:	88 30       	cpi	r24, 0x08	; 8
    293a:	08 f0       	brcs	.+2      	; 0x293e <DIO_getPinValueWithoutPointer+0x1c>
    293c:	6b c0       	rjmp	.+214    	; 0x2a14 <DIO_getPinValueWithoutPointer+0xf2>
    293e:	8a 81       	ldd	r24, Y+2	; 0x02
    2940:	84 30       	cpi	r24, 0x04	; 4
    2942:	08 f0       	brcs	.+2      	; 0x2946 <DIO_getPinValueWithoutPointer+0x24>
    2944:	67 c0       	rjmp	.+206    	; 0x2a14 <DIO_getPinValueWithoutPointer+0xf2>
		/* Do Nothing */
	}
	else
	{
		/* Read the pin value as required */
		switch (port_num)
    2946:	8a 81       	ldd	r24, Y+2	; 0x02
    2948:	28 2f       	mov	r18, r24
    294a:	30 e0       	ldi	r19, 0x00	; 0
    294c:	3d 83       	std	Y+5, r19	; 0x05
    294e:	2c 83       	std	Y+4, r18	; 0x04
    2950:	4c 81       	ldd	r20, Y+4	; 0x04
    2952:	5d 81       	ldd	r21, Y+5	; 0x05
    2954:	41 30       	cpi	r20, 0x01	; 1
    2956:	51 05       	cpc	r21, r1
    2958:	41 f1       	breq	.+80     	; 0x29aa <DIO_getPinValueWithoutPointer+0x88>
    295a:	8c 81       	ldd	r24, Y+4	; 0x04
    295c:	9d 81       	ldd	r25, Y+5	; 0x05
    295e:	82 30       	cpi	r24, 0x02	; 2
    2960:	91 05       	cpc	r25, r1
    2962:	34 f4       	brge	.+12     	; 0x2970 <DIO_getPinValueWithoutPointer+0x4e>
    2964:	2c 81       	ldd	r18, Y+4	; 0x04
    2966:	3d 81       	ldd	r19, Y+5	; 0x05
    2968:	21 15       	cp	r18, r1
    296a:	31 05       	cpc	r19, r1
    296c:	61 f0       	breq	.+24     	; 0x2986 <DIO_getPinValueWithoutPointer+0x64>
    296e:	52 c0       	rjmp	.+164    	; 0x2a14 <DIO_getPinValueWithoutPointer+0xf2>
    2970:	4c 81       	ldd	r20, Y+4	; 0x04
    2972:	5d 81       	ldd	r21, Y+5	; 0x05
    2974:	42 30       	cpi	r20, 0x02	; 2
    2976:	51 05       	cpc	r21, r1
    2978:	51 f1       	breq	.+84     	; 0x29ce <DIO_getPinValueWithoutPointer+0xac>
    297a:	8c 81       	ldd	r24, Y+4	; 0x04
    297c:	9d 81       	ldd	r25, Y+5	; 0x05
    297e:	83 30       	cpi	r24, 0x03	; 3
    2980:	91 05       	cpc	r25, r1
    2982:	b9 f1       	breq	.+110    	; 0x29f2 <DIO_getPinValueWithoutPointer+0xd0>
    2984:	47 c0       	rjmp	.+142    	; 0x2a14 <DIO_getPinValueWithoutPointer+0xf2>
				{
				case DIO_u8_PORTA:
					pin_value = GET_BIT(DIO_u8_PINA_REG, pin_num);
    2986:	e9 e3       	ldi	r30, 0x39	; 57
    2988:	f0 e0       	ldi	r31, 0x00	; 0
    298a:	80 81       	ld	r24, Z
    298c:	28 2f       	mov	r18, r24
    298e:	30 e0       	ldi	r19, 0x00	; 0
    2990:	8b 81       	ldd	r24, Y+3	; 0x03
    2992:	88 2f       	mov	r24, r24
    2994:	90 e0       	ldi	r25, 0x00	; 0
    2996:	a9 01       	movw	r20, r18
    2998:	02 c0       	rjmp	.+4      	; 0x299e <DIO_getPinValueWithoutPointer+0x7c>
    299a:	55 95       	asr	r21
    299c:	47 95       	ror	r20
    299e:	8a 95       	dec	r24
    29a0:	e2 f7       	brpl	.-8      	; 0x299a <DIO_getPinValueWithoutPointer+0x78>
    29a2:	ca 01       	movw	r24, r20
    29a4:	81 70       	andi	r24, 0x01	; 1
    29a6:	89 83       	std	Y+1, r24	; 0x01
    29a8:	35 c0       	rjmp	.+106    	; 0x2a14 <DIO_getPinValueWithoutPointer+0xf2>
					break;

				case DIO_u8_PORTB:
					pin_value = GET_BIT(DIO_u8_PINB_REG, pin_num);
    29aa:	e6 e3       	ldi	r30, 0x36	; 54
    29ac:	f0 e0       	ldi	r31, 0x00	; 0
    29ae:	80 81       	ld	r24, Z
    29b0:	28 2f       	mov	r18, r24
    29b2:	30 e0       	ldi	r19, 0x00	; 0
    29b4:	8b 81       	ldd	r24, Y+3	; 0x03
    29b6:	88 2f       	mov	r24, r24
    29b8:	90 e0       	ldi	r25, 0x00	; 0
    29ba:	a9 01       	movw	r20, r18
    29bc:	02 c0       	rjmp	.+4      	; 0x29c2 <DIO_getPinValueWithoutPointer+0xa0>
    29be:	55 95       	asr	r21
    29c0:	47 95       	ror	r20
    29c2:	8a 95       	dec	r24
    29c4:	e2 f7       	brpl	.-8      	; 0x29be <DIO_getPinValueWithoutPointer+0x9c>
    29c6:	ca 01       	movw	r24, r20
    29c8:	81 70       	andi	r24, 0x01	; 1
    29ca:	89 83       	std	Y+1, r24	; 0x01
    29cc:	23 c0       	rjmp	.+70     	; 0x2a14 <DIO_getPinValueWithoutPointer+0xf2>
					break;

				case DIO_u8_PORTC:
					pin_value = GET_BIT(DIO_u8_PINC_REG, pin_num);
    29ce:	e3 e3       	ldi	r30, 0x33	; 51
    29d0:	f0 e0       	ldi	r31, 0x00	; 0
    29d2:	80 81       	ld	r24, Z
    29d4:	28 2f       	mov	r18, r24
    29d6:	30 e0       	ldi	r19, 0x00	; 0
    29d8:	8b 81       	ldd	r24, Y+3	; 0x03
    29da:	88 2f       	mov	r24, r24
    29dc:	90 e0       	ldi	r25, 0x00	; 0
    29de:	a9 01       	movw	r20, r18
    29e0:	02 c0       	rjmp	.+4      	; 0x29e6 <DIO_getPinValueWithoutPointer+0xc4>
    29e2:	55 95       	asr	r21
    29e4:	47 95       	ror	r20
    29e6:	8a 95       	dec	r24
    29e8:	e2 f7       	brpl	.-8      	; 0x29e2 <DIO_getPinValueWithoutPointer+0xc0>
    29ea:	ca 01       	movw	r24, r20
    29ec:	81 70       	andi	r24, 0x01	; 1
    29ee:	89 83       	std	Y+1, r24	; 0x01
    29f0:	11 c0       	rjmp	.+34     	; 0x2a14 <DIO_getPinValueWithoutPointer+0xf2>
					break;

				case DIO_u8_PORTD:
					pin_value = GET_BIT(DIO_u8_PIND_REG, pin_num);
    29f2:	e0 e3       	ldi	r30, 0x30	; 48
    29f4:	f0 e0       	ldi	r31, 0x00	; 0
    29f6:	80 81       	ld	r24, Z
    29f8:	28 2f       	mov	r18, r24
    29fa:	30 e0       	ldi	r19, 0x00	; 0
    29fc:	8b 81       	ldd	r24, Y+3	; 0x03
    29fe:	88 2f       	mov	r24, r24
    2a00:	90 e0       	ldi	r25, 0x00	; 0
    2a02:	a9 01       	movw	r20, r18
    2a04:	02 c0       	rjmp	.+4      	; 0x2a0a <DIO_getPinValueWithoutPointer+0xe8>
    2a06:	55 95       	asr	r21
    2a08:	47 95       	ror	r20
    2a0a:	8a 95       	dec	r24
    2a0c:	e2 f7       	brpl	.-8      	; 0x2a06 <DIO_getPinValueWithoutPointer+0xe4>
    2a0e:	ca 01       	movw	r24, r20
    2a10:	81 70       	andi	r24, 0x01	; 1
    2a12:	89 83       	std	Y+1, r24	; 0x01
					break;
				}
	}

	return pin_value;
    2a14:	89 81       	ldd	r24, Y+1	; 0x01
}
    2a16:	0f 90       	pop	r0
    2a18:	0f 90       	pop	r0
    2a1a:	0f 90       	pop	r0
    2a1c:	0f 90       	pop	r0
    2a1e:	0f 90       	pop	r0
    2a20:	cf 91       	pop	r28
    2a22:	df 91       	pop	r29
    2a24:	08 95       	ret

00002a26 <DIO_u8SetPortDirection>:




u8 DIO_u8SetPortDirection(u8 Copy_u8PortId, u8 Copy_u8PortDirection)
{
    2a26:	df 93       	push	r29
    2a28:	cf 93       	push	r28
    2a2a:	cd b7       	in	r28, 0x3d	; 61
    2a2c:	de b7       	in	r29, 0x3e	; 62
    2a2e:	2d 97       	sbiw	r28, 0x0d	; 13
    2a30:	0f b6       	in	r0, 0x3f	; 63
    2a32:	f8 94       	cli
    2a34:	de bf       	out	0x3e, r29	; 62
    2a36:	0f be       	out	0x3f, r0	; 63
    2a38:	cd bf       	out	0x3d, r28	; 61
    2a3a:	89 83       	std	Y+1, r24	; 0x01
    2a3c:	6a 83       	std	Y+2, r22	; 0x02
	switch (Copy_u8PortId)
    2a3e:	89 81       	ldd	r24, Y+1	; 0x01
    2a40:	28 2f       	mov	r18, r24
    2a42:	30 e0       	ldi	r19, 0x00	; 0
    2a44:	3c 87       	std	Y+12, r19	; 0x0c
    2a46:	2b 87       	std	Y+11, r18	; 0x0b
    2a48:	8b 85       	ldd	r24, Y+11	; 0x0b
    2a4a:	9c 85       	ldd	r25, Y+12	; 0x0c
    2a4c:	81 30       	cpi	r24, 0x01	; 1
    2a4e:	91 05       	cpc	r25, r1
    2a50:	71 f1       	breq	.+92     	; 0x2aae <DIO_u8SetPortDirection+0x88>
    2a52:	2b 85       	ldd	r18, Y+11	; 0x0b
    2a54:	3c 85       	ldd	r19, Y+12	; 0x0c
    2a56:	22 30       	cpi	r18, 0x02	; 2
    2a58:	31 05       	cpc	r19, r1
    2a5a:	2c f4       	brge	.+10     	; 0x2a66 <DIO_u8SetPortDirection+0x40>
    2a5c:	8b 85       	ldd	r24, Y+11	; 0x0b
    2a5e:	9c 85       	ldd	r25, Y+12	; 0x0c
    2a60:	00 97       	sbiw	r24, 0x00	; 0
    2a62:	69 f0       	breq	.+26     	; 0x2a7e <DIO_u8SetPortDirection+0x58>
    2a64:	6b c0       	rjmp	.+214    	; 0x2b3c <DIO_u8SetPortDirection+0x116>
    2a66:	2b 85       	ldd	r18, Y+11	; 0x0b
    2a68:	3c 85       	ldd	r19, Y+12	; 0x0c
    2a6a:	22 30       	cpi	r18, 0x02	; 2
    2a6c:	31 05       	cpc	r19, r1
    2a6e:	b9 f1       	breq	.+110    	; 0x2ade <DIO_u8SetPortDirection+0xb8>
    2a70:	8b 85       	ldd	r24, Y+11	; 0x0b
    2a72:	9c 85       	ldd	r25, Y+12	; 0x0c
    2a74:	83 30       	cpi	r24, 0x03	; 3
    2a76:	91 05       	cpc	r25, r1
    2a78:	09 f4       	brne	.+2      	; 0x2a7c <DIO_u8SetPortDirection+0x56>
    2a7a:	49 c0       	rjmp	.+146    	; 0x2b0e <DIO_u8SetPortDirection+0xe8>
    2a7c:	5f c0       	rjmp	.+190    	; 0x2b3c <DIO_u8SetPortDirection+0x116>
	{
	case DIO_u8_PORTA:
		switch (Copy_u8PortDirection)
    2a7e:	8a 81       	ldd	r24, Y+2	; 0x02
    2a80:	28 2f       	mov	r18, r24
    2a82:	30 e0       	ldi	r19, 0x00	; 0
    2a84:	3a 87       	std	Y+10, r19	; 0x0a
    2a86:	29 87       	std	Y+9, r18	; 0x09
    2a88:	89 85       	ldd	r24, Y+9	; 0x09
    2a8a:	9a 85       	ldd	r25, Y+10	; 0x0a
    2a8c:	00 97       	sbiw	r24, 0x00	; 0
    2a8e:	31 f0       	breq	.+12     	; 0x2a9c <DIO_u8SetPortDirection+0x76>
    2a90:	29 85       	ldd	r18, Y+9	; 0x09
    2a92:	3a 85       	ldd	r19, Y+10	; 0x0a
    2a94:	21 30       	cpi	r18, 0x01	; 1
    2a96:	31 05       	cpc	r19, r1
    2a98:	29 f0       	breq	.+10     	; 0x2aa4 <DIO_u8SetPortDirection+0x7e>
    2a9a:	50 c0       	rjmp	.+160    	; 0x2b3c <DIO_u8SetPortDirection+0x116>
		{
		case DIO_u8_INPUT:
			DIO_u8_DDRA_REG = DIO_u8PortLow;
    2a9c:	ea e3       	ldi	r30, 0x3A	; 58
    2a9e:	f0 e0       	ldi	r31, 0x00	; 0
    2aa0:	10 82       	st	Z, r1
    2aa2:	4c c0       	rjmp	.+152    	; 0x2b3c <DIO_u8SetPortDirection+0x116>
			break;
		case DIO_u8_OUTPUT:
			DIO_u8_DDRA_REG = DIO_u8PortHigh;
    2aa4:	ea e3       	ldi	r30, 0x3A	; 58
    2aa6:	f0 e0       	ldi	r31, 0x00	; 0
    2aa8:	8f ef       	ldi	r24, 0xFF	; 255
    2aaa:	80 83       	st	Z, r24
    2aac:	47 c0       	rjmp	.+142    	; 0x2b3c <DIO_u8SetPortDirection+0x116>
			break;
		}
		break;

	case DIO_u8_PORTB:
		switch (Copy_u8PortDirection)
    2aae:	8a 81       	ldd	r24, Y+2	; 0x02
    2ab0:	28 2f       	mov	r18, r24
    2ab2:	30 e0       	ldi	r19, 0x00	; 0
    2ab4:	38 87       	std	Y+8, r19	; 0x08
    2ab6:	2f 83       	std	Y+7, r18	; 0x07
    2ab8:	8f 81       	ldd	r24, Y+7	; 0x07
    2aba:	98 85       	ldd	r25, Y+8	; 0x08
    2abc:	00 97       	sbiw	r24, 0x00	; 0
    2abe:	31 f0       	breq	.+12     	; 0x2acc <DIO_u8SetPortDirection+0xa6>
    2ac0:	2f 81       	ldd	r18, Y+7	; 0x07
    2ac2:	38 85       	ldd	r19, Y+8	; 0x08
    2ac4:	21 30       	cpi	r18, 0x01	; 1
    2ac6:	31 05       	cpc	r19, r1
    2ac8:	29 f0       	breq	.+10     	; 0x2ad4 <DIO_u8SetPortDirection+0xae>
    2aca:	38 c0       	rjmp	.+112    	; 0x2b3c <DIO_u8SetPortDirection+0x116>
		{
		case DIO_u8_INPUT:
			DIO_u8_DDRB_REG = DIO_u8PortLow;
    2acc:	e7 e3       	ldi	r30, 0x37	; 55
    2ace:	f0 e0       	ldi	r31, 0x00	; 0
    2ad0:	10 82       	st	Z, r1
    2ad2:	34 c0       	rjmp	.+104    	; 0x2b3c <DIO_u8SetPortDirection+0x116>
			break;
		case DIO_u8_OUTPUT:
			DIO_u8_DDRB_REG = DIO_u8PortHigh;
    2ad4:	e7 e3       	ldi	r30, 0x37	; 55
    2ad6:	f0 e0       	ldi	r31, 0x00	; 0
    2ad8:	8f ef       	ldi	r24, 0xFF	; 255
    2ada:	80 83       	st	Z, r24
    2adc:	2f c0       	rjmp	.+94     	; 0x2b3c <DIO_u8SetPortDirection+0x116>
			break;
		}
		break;

	case DIO_u8_PORTC:
		switch (Copy_u8PortDirection)
    2ade:	8a 81       	ldd	r24, Y+2	; 0x02
    2ae0:	28 2f       	mov	r18, r24
    2ae2:	30 e0       	ldi	r19, 0x00	; 0
    2ae4:	3e 83       	std	Y+6, r19	; 0x06
    2ae6:	2d 83       	std	Y+5, r18	; 0x05
    2ae8:	8d 81       	ldd	r24, Y+5	; 0x05
    2aea:	9e 81       	ldd	r25, Y+6	; 0x06
    2aec:	00 97       	sbiw	r24, 0x00	; 0
    2aee:	31 f0       	breq	.+12     	; 0x2afc <DIO_u8SetPortDirection+0xd6>
    2af0:	2d 81       	ldd	r18, Y+5	; 0x05
    2af2:	3e 81       	ldd	r19, Y+6	; 0x06
    2af4:	21 30       	cpi	r18, 0x01	; 1
    2af6:	31 05       	cpc	r19, r1
    2af8:	29 f0       	breq	.+10     	; 0x2b04 <DIO_u8SetPortDirection+0xde>
    2afa:	20 c0       	rjmp	.+64     	; 0x2b3c <DIO_u8SetPortDirection+0x116>
		{
		case DIO_u8_INPUT:
			DIO_u8_DDRC_REG = DIO_u8PortLow;
    2afc:	e4 e3       	ldi	r30, 0x34	; 52
    2afe:	f0 e0       	ldi	r31, 0x00	; 0
    2b00:	10 82       	st	Z, r1
    2b02:	1c c0       	rjmp	.+56     	; 0x2b3c <DIO_u8SetPortDirection+0x116>
			break;
		case DIO_u8_OUTPUT:
			DIO_u8_DDRC_REG = DIO_u8PortHigh;
    2b04:	e4 e3       	ldi	r30, 0x34	; 52
    2b06:	f0 e0       	ldi	r31, 0x00	; 0
    2b08:	8f ef       	ldi	r24, 0xFF	; 255
    2b0a:	80 83       	st	Z, r24
    2b0c:	17 c0       	rjmp	.+46     	; 0x2b3c <DIO_u8SetPortDirection+0x116>
			break;
		}
		break;

	case DIO_u8_PORTD:
		switch (Copy_u8PortDirection)
    2b0e:	8a 81       	ldd	r24, Y+2	; 0x02
    2b10:	28 2f       	mov	r18, r24
    2b12:	30 e0       	ldi	r19, 0x00	; 0
    2b14:	3c 83       	std	Y+4, r19	; 0x04
    2b16:	2b 83       	std	Y+3, r18	; 0x03
    2b18:	8b 81       	ldd	r24, Y+3	; 0x03
    2b1a:	9c 81       	ldd	r25, Y+4	; 0x04
    2b1c:	00 97       	sbiw	r24, 0x00	; 0
    2b1e:	31 f0       	breq	.+12     	; 0x2b2c <DIO_u8SetPortDirection+0x106>
    2b20:	2b 81       	ldd	r18, Y+3	; 0x03
    2b22:	3c 81       	ldd	r19, Y+4	; 0x04
    2b24:	21 30       	cpi	r18, 0x01	; 1
    2b26:	31 05       	cpc	r19, r1
    2b28:	29 f0       	breq	.+10     	; 0x2b34 <DIO_u8SetPortDirection+0x10e>
    2b2a:	08 c0       	rjmp	.+16     	; 0x2b3c <DIO_u8SetPortDirection+0x116>
		{
		case DIO_u8_INPUT:
			DIO_u8_DDRD_REG = DIO_u8PortLow;
    2b2c:	e1 e3       	ldi	r30, 0x31	; 49
    2b2e:	f0 e0       	ldi	r31, 0x00	; 0
    2b30:	10 82       	st	Z, r1
    2b32:	04 c0       	rjmp	.+8      	; 0x2b3c <DIO_u8SetPortDirection+0x116>
			break;
		case DIO_u8_OUTPUT:
			DIO_u8_DDRD_REG = DIO_u8PortHigh;
    2b34:	e1 e3       	ldi	r30, 0x31	; 49
    2b36:	f0 e0       	ldi	r31, 0x00	; 0
    2b38:	8f ef       	ldi	r24, 0xFF	; 255
    2b3a:	80 83       	st	Z, r24
			break;
		}
		break;
	}
}
    2b3c:	2d 96       	adiw	r28, 0x0d	; 13
    2b3e:	0f b6       	in	r0, 0x3f	; 63
    2b40:	f8 94       	cli
    2b42:	de bf       	out	0x3e, r29	; 62
    2b44:	0f be       	out	0x3f, r0	; 63
    2b46:	cd bf       	out	0x3d, r28	; 61
    2b48:	cf 91       	pop	r28
    2b4a:	df 91       	pop	r29
    2b4c:	08 95       	ret

00002b4e <DIO_u8SetPortValue>:


u8 DIO_u8SetPortValue(u8 Copy_u8PortId, u8 Copy_u8PortValue)
{
    2b4e:	df 93       	push	r29
    2b50:	cf 93       	push	r28
    2b52:	cd b7       	in	r28, 0x3d	; 61
    2b54:	de b7       	in	r29, 0x3e	; 62
    2b56:	2d 97       	sbiw	r28, 0x0d	; 13
    2b58:	0f b6       	in	r0, 0x3f	; 63
    2b5a:	f8 94       	cli
    2b5c:	de bf       	out	0x3e, r29	; 62
    2b5e:	0f be       	out	0x3f, r0	; 63
    2b60:	cd bf       	out	0x3d, r28	; 61
    2b62:	8a 83       	std	Y+2, r24	; 0x02
    2b64:	6b 83       	std	Y+3, r22	; 0x03
	u8 Local_u8ErrorState = STD_TYPES_OK;
    2b66:	81 e0       	ldi	r24, 0x01	; 1
    2b68:	89 83       	std	Y+1, r24	; 0x01
	if (Copy_u8PortId <= DIO_u8_PORTD)
    2b6a:	8a 81       	ldd	r24, Y+2	; 0x02
    2b6c:	84 30       	cpi	r24, 0x04	; 4
    2b6e:	08 f0       	brcs	.+2      	; 0x2b72 <DIO_u8SetPortValue+0x24>
    2b70:	80 c0       	rjmp	.+256    	; 0x2c72 <DIO_u8SetPortValue+0x124>
	{
		switch (Copy_u8PortId)
    2b72:	8a 81       	ldd	r24, Y+2	; 0x02
    2b74:	28 2f       	mov	r18, r24
    2b76:	30 e0       	ldi	r19, 0x00	; 0
    2b78:	3d 87       	std	Y+13, r19	; 0x0d
    2b7a:	2c 87       	std	Y+12, r18	; 0x0c
    2b7c:	8c 85       	ldd	r24, Y+12	; 0x0c
    2b7e:	9d 85       	ldd	r25, Y+13	; 0x0d
    2b80:	81 30       	cpi	r24, 0x01	; 1
    2b82:	91 05       	cpc	r25, r1
    2b84:	71 f1       	breq	.+92     	; 0x2be2 <DIO_u8SetPortValue+0x94>
    2b86:	2c 85       	ldd	r18, Y+12	; 0x0c
    2b88:	3d 85       	ldd	r19, Y+13	; 0x0d
    2b8a:	22 30       	cpi	r18, 0x02	; 2
    2b8c:	31 05       	cpc	r19, r1
    2b8e:	2c f4       	brge	.+10     	; 0x2b9a <DIO_u8SetPortValue+0x4c>
    2b90:	8c 85       	ldd	r24, Y+12	; 0x0c
    2b92:	9d 85       	ldd	r25, Y+13	; 0x0d
    2b94:	00 97       	sbiw	r24, 0x00	; 0
    2b96:	69 f0       	breq	.+26     	; 0x2bb2 <DIO_u8SetPortValue+0x64>
    2b98:	6d c0       	rjmp	.+218    	; 0x2c74 <DIO_u8SetPortValue+0x126>
    2b9a:	2c 85       	ldd	r18, Y+12	; 0x0c
    2b9c:	3d 85       	ldd	r19, Y+13	; 0x0d
    2b9e:	22 30       	cpi	r18, 0x02	; 2
    2ba0:	31 05       	cpc	r19, r1
    2ba2:	b9 f1       	breq	.+110    	; 0x2c12 <DIO_u8SetPortValue+0xc4>
    2ba4:	8c 85       	ldd	r24, Y+12	; 0x0c
    2ba6:	9d 85       	ldd	r25, Y+13	; 0x0d
    2ba8:	83 30       	cpi	r24, 0x03	; 3
    2baa:	91 05       	cpc	r25, r1
    2bac:	09 f4       	brne	.+2      	; 0x2bb0 <DIO_u8SetPortValue+0x62>
    2bae:	49 c0       	rjmp	.+146    	; 0x2c42 <DIO_u8SetPortValue+0xf4>
    2bb0:	61 c0       	rjmp	.+194    	; 0x2c74 <DIO_u8SetPortValue+0x126>
		{
		case DIO_u8_PORTA:
			switch (Copy_u8PortValue)
    2bb2:	8b 81       	ldd	r24, Y+3	; 0x03
    2bb4:	28 2f       	mov	r18, r24
    2bb6:	30 e0       	ldi	r19, 0x00	; 0
    2bb8:	3b 87       	std	Y+11, r19	; 0x0b
    2bba:	2a 87       	std	Y+10, r18	; 0x0a
    2bbc:	8a 85       	ldd	r24, Y+10	; 0x0a
    2bbe:	9b 85       	ldd	r25, Y+11	; 0x0b
    2bc0:	00 97       	sbiw	r24, 0x00	; 0
    2bc2:	31 f0       	breq	.+12     	; 0x2bd0 <DIO_u8SetPortValue+0x82>
    2bc4:	2a 85       	ldd	r18, Y+10	; 0x0a
    2bc6:	3b 85       	ldd	r19, Y+11	; 0x0b
    2bc8:	21 30       	cpi	r18, 0x01	; 1
    2bca:	31 05       	cpc	r19, r1
    2bcc:	29 f0       	breq	.+10     	; 0x2bd8 <DIO_u8SetPortValue+0x8a>
    2bce:	52 c0       	rjmp	.+164    	; 0x2c74 <DIO_u8SetPortValue+0x126>
			{
			case DIO_u8_LOW:
				DIO_u8_PORTA_REG = DIO_u8PortLow;
    2bd0:	eb e3       	ldi	r30, 0x3B	; 59
    2bd2:	f0 e0       	ldi	r31, 0x00	; 0
    2bd4:	10 82       	st	Z, r1
    2bd6:	4e c0       	rjmp	.+156    	; 0x2c74 <DIO_u8SetPortValue+0x126>
				break;
			case DIO_u8_HIGH:
				DIO_u8_PORTA_REG = DIO_u8PortHigh;
    2bd8:	eb e3       	ldi	r30, 0x3B	; 59
    2bda:	f0 e0       	ldi	r31, 0x00	; 0
    2bdc:	8f ef       	ldi	r24, 0xFF	; 255
    2bde:	80 83       	st	Z, r24
    2be0:	49 c0       	rjmp	.+146    	; 0x2c74 <DIO_u8SetPortValue+0x126>
				break;
			}
			break;

		case DIO_u8_PORTB:
			switch (Copy_u8PortValue)
    2be2:	8b 81       	ldd	r24, Y+3	; 0x03
    2be4:	28 2f       	mov	r18, r24
    2be6:	30 e0       	ldi	r19, 0x00	; 0
    2be8:	39 87       	std	Y+9, r19	; 0x09
    2bea:	28 87       	std	Y+8, r18	; 0x08
    2bec:	88 85       	ldd	r24, Y+8	; 0x08
    2bee:	99 85       	ldd	r25, Y+9	; 0x09
    2bf0:	00 97       	sbiw	r24, 0x00	; 0
    2bf2:	31 f0       	breq	.+12     	; 0x2c00 <DIO_u8SetPortValue+0xb2>
    2bf4:	28 85       	ldd	r18, Y+8	; 0x08
    2bf6:	39 85       	ldd	r19, Y+9	; 0x09
    2bf8:	21 30       	cpi	r18, 0x01	; 1
    2bfa:	31 05       	cpc	r19, r1
    2bfc:	29 f0       	breq	.+10     	; 0x2c08 <DIO_u8SetPortValue+0xba>
    2bfe:	3a c0       	rjmp	.+116    	; 0x2c74 <DIO_u8SetPortValue+0x126>
			{
			case DIO_u8_LOW:
				DIO_u8_PORTB_REG = DIO_u8PortLow;
    2c00:	e8 e3       	ldi	r30, 0x38	; 56
    2c02:	f0 e0       	ldi	r31, 0x00	; 0
    2c04:	10 82       	st	Z, r1
    2c06:	36 c0       	rjmp	.+108    	; 0x2c74 <DIO_u8SetPortValue+0x126>
				break;
			case DIO_u8_HIGH:
				DIO_u8_PORTB_REG = DIO_u8PortHigh;
    2c08:	e8 e3       	ldi	r30, 0x38	; 56
    2c0a:	f0 e0       	ldi	r31, 0x00	; 0
    2c0c:	8f ef       	ldi	r24, 0xFF	; 255
    2c0e:	80 83       	st	Z, r24
    2c10:	31 c0       	rjmp	.+98     	; 0x2c74 <DIO_u8SetPortValue+0x126>
				break;
			}
			break;

		case DIO_u8_PORTC:
			switch (Copy_u8PortValue)
    2c12:	8b 81       	ldd	r24, Y+3	; 0x03
    2c14:	28 2f       	mov	r18, r24
    2c16:	30 e0       	ldi	r19, 0x00	; 0
    2c18:	3f 83       	std	Y+7, r19	; 0x07
    2c1a:	2e 83       	std	Y+6, r18	; 0x06
    2c1c:	8e 81       	ldd	r24, Y+6	; 0x06
    2c1e:	9f 81       	ldd	r25, Y+7	; 0x07
    2c20:	00 97       	sbiw	r24, 0x00	; 0
    2c22:	31 f0       	breq	.+12     	; 0x2c30 <DIO_u8SetPortValue+0xe2>
    2c24:	2e 81       	ldd	r18, Y+6	; 0x06
    2c26:	3f 81       	ldd	r19, Y+7	; 0x07
    2c28:	21 30       	cpi	r18, 0x01	; 1
    2c2a:	31 05       	cpc	r19, r1
    2c2c:	29 f0       	breq	.+10     	; 0x2c38 <DIO_u8SetPortValue+0xea>
    2c2e:	22 c0       	rjmp	.+68     	; 0x2c74 <DIO_u8SetPortValue+0x126>
			{
			case DIO_u8_LOW:
				DIO_u8_PORTC_REG = DIO_u8PortLow;
    2c30:	e5 e3       	ldi	r30, 0x35	; 53
    2c32:	f0 e0       	ldi	r31, 0x00	; 0
    2c34:	10 82       	st	Z, r1
    2c36:	1e c0       	rjmp	.+60     	; 0x2c74 <DIO_u8SetPortValue+0x126>
				break;
			case DIO_u8_HIGH:
				DIO_u8_PORTC_REG = DIO_u8PortHigh;
    2c38:	e5 e3       	ldi	r30, 0x35	; 53
    2c3a:	f0 e0       	ldi	r31, 0x00	; 0
    2c3c:	8f ef       	ldi	r24, 0xFF	; 255
    2c3e:	80 83       	st	Z, r24
    2c40:	19 c0       	rjmp	.+50     	; 0x2c74 <DIO_u8SetPortValue+0x126>
				break;
			}
			break;

		case DIO_u8_PORTD:
			switch (Copy_u8PortValue)
    2c42:	8b 81       	ldd	r24, Y+3	; 0x03
    2c44:	28 2f       	mov	r18, r24
    2c46:	30 e0       	ldi	r19, 0x00	; 0
    2c48:	3d 83       	std	Y+5, r19	; 0x05
    2c4a:	2c 83       	std	Y+4, r18	; 0x04
    2c4c:	8c 81       	ldd	r24, Y+4	; 0x04
    2c4e:	9d 81       	ldd	r25, Y+5	; 0x05
    2c50:	00 97       	sbiw	r24, 0x00	; 0
    2c52:	31 f0       	breq	.+12     	; 0x2c60 <DIO_u8SetPortValue+0x112>
    2c54:	2c 81       	ldd	r18, Y+4	; 0x04
    2c56:	3d 81       	ldd	r19, Y+5	; 0x05
    2c58:	21 30       	cpi	r18, 0x01	; 1
    2c5a:	31 05       	cpc	r19, r1
    2c5c:	29 f0       	breq	.+10     	; 0x2c68 <DIO_u8SetPortValue+0x11a>
    2c5e:	0a c0       	rjmp	.+20     	; 0x2c74 <DIO_u8SetPortValue+0x126>
			{
			case DIO_u8_LOW:
				DIO_u8_PORTD_REG = DIO_u8PortLow;
    2c60:	e2 e3       	ldi	r30, 0x32	; 50
    2c62:	f0 e0       	ldi	r31, 0x00	; 0
    2c64:	10 82       	st	Z, r1
    2c66:	06 c0       	rjmp	.+12     	; 0x2c74 <DIO_u8SetPortValue+0x126>
				break;
			case DIO_u8_HIGH:
				DIO_u8_PORTD_REG = DIO_u8PortHigh;
    2c68:	e2 e3       	ldi	r30, 0x32	; 50
    2c6a:	f0 e0       	ldi	r31, 0x00	; 0
    2c6c:	8f ef       	ldi	r24, 0xFF	; 255
    2c6e:	80 83       	st	Z, r24
    2c70:	01 c0       	rjmp	.+2      	; 0x2c74 <DIO_u8SetPortValue+0x126>
		}
	}

	else
	{
		Local_u8ErrorState = STD_TYPES_NOK;
    2c72:	19 82       	std	Y+1, r1	; 0x01
	}

	return Local_u8ErrorState;
    2c74:	89 81       	ldd	r24, Y+1	; 0x01
}
    2c76:	2d 96       	adiw	r28, 0x0d	; 13
    2c78:	0f b6       	in	r0, 0x3f	; 63
    2c7a:	f8 94       	cli
    2c7c:	de bf       	out	0x3e, r29	; 62
    2c7e:	0f be       	out	0x3f, r0	; 63
    2c80:	cd bf       	out	0x3d, r28	; 61
    2c82:	cf 91       	pop	r28
    2c84:	df 91       	pop	r29
    2c86:	08 95       	ret

00002c88 <DIO_u8GetPortValue>:

u8 DIO_u8GetPortValue(u8 Copy_u8PortId, u8 *Copy_pu8ReturnedPortValue)
{
    2c88:	df 93       	push	r29
    2c8a:	cf 93       	push	r28
    2c8c:	00 d0       	rcall	.+0      	; 0x2c8e <DIO_u8GetPortValue+0x6>
    2c8e:	00 d0       	rcall	.+0      	; 0x2c90 <DIO_u8GetPortValue+0x8>
    2c90:	00 d0       	rcall	.+0      	; 0x2c92 <DIO_u8GetPortValue+0xa>
    2c92:	cd b7       	in	r28, 0x3d	; 61
    2c94:	de b7       	in	r29, 0x3e	; 62
    2c96:	8a 83       	std	Y+2, r24	; 0x02
    2c98:	7c 83       	std	Y+4, r23	; 0x04
    2c9a:	6b 83       	std	Y+3, r22	; 0x03
	u8 Local_u8ErrorState = STD_TYPES_OK;
    2c9c:	81 e0       	ldi	r24, 0x01	; 1
    2c9e:	89 83       	std	Y+1, r24	; 0x01
	if (Copy_u8PortId <= DIO_u8_PORTD && Copy_pu8ReturnedPortValue != NULL)
    2ca0:	8a 81       	ldd	r24, Y+2	; 0x02
    2ca2:	84 30       	cpi	r24, 0x04	; 4
    2ca4:	08 f0       	brcs	.+2      	; 0x2ca8 <DIO_u8GetPortValue+0x20>
    2ca6:	3f c0       	rjmp	.+126    	; 0x2d26 <DIO_u8GetPortValue+0x9e>
    2ca8:	8b 81       	ldd	r24, Y+3	; 0x03
    2caa:	9c 81       	ldd	r25, Y+4	; 0x04
    2cac:	00 97       	sbiw	r24, 0x00	; 0
    2cae:	d9 f1       	breq	.+118    	; 0x2d26 <DIO_u8GetPortValue+0x9e>
	{
		switch (Copy_u8PortId)
    2cb0:	8a 81       	ldd	r24, Y+2	; 0x02
    2cb2:	28 2f       	mov	r18, r24
    2cb4:	30 e0       	ldi	r19, 0x00	; 0
    2cb6:	3e 83       	std	Y+6, r19	; 0x06
    2cb8:	2d 83       	std	Y+5, r18	; 0x05
    2cba:	8d 81       	ldd	r24, Y+5	; 0x05
    2cbc:	9e 81       	ldd	r25, Y+6	; 0x06
    2cbe:	81 30       	cpi	r24, 0x01	; 1
    2cc0:	91 05       	cpc	r25, r1
    2cc2:	e1 f0       	breq	.+56     	; 0x2cfc <DIO_u8GetPortValue+0x74>
    2cc4:	2d 81       	ldd	r18, Y+5	; 0x05
    2cc6:	3e 81       	ldd	r19, Y+6	; 0x06
    2cc8:	22 30       	cpi	r18, 0x02	; 2
    2cca:	31 05       	cpc	r19, r1
    2ccc:	2c f4       	brge	.+10     	; 0x2cd8 <DIO_u8GetPortValue+0x50>
    2cce:	8d 81       	ldd	r24, Y+5	; 0x05
    2cd0:	9e 81       	ldd	r25, Y+6	; 0x06
    2cd2:	00 97       	sbiw	r24, 0x00	; 0
    2cd4:	61 f0       	breq	.+24     	; 0x2cee <DIO_u8GetPortValue+0x66>
    2cd6:	28 c0       	rjmp	.+80     	; 0x2d28 <DIO_u8GetPortValue+0xa0>
    2cd8:	2d 81       	ldd	r18, Y+5	; 0x05
    2cda:	3e 81       	ldd	r19, Y+6	; 0x06
    2cdc:	22 30       	cpi	r18, 0x02	; 2
    2cde:	31 05       	cpc	r19, r1
    2ce0:	a1 f0       	breq	.+40     	; 0x2d0a <DIO_u8GetPortValue+0x82>
    2ce2:	8d 81       	ldd	r24, Y+5	; 0x05
    2ce4:	9e 81       	ldd	r25, Y+6	; 0x06
    2ce6:	83 30       	cpi	r24, 0x03	; 3
    2ce8:	91 05       	cpc	r25, r1
    2cea:	b1 f0       	breq	.+44     	; 0x2d18 <DIO_u8GetPortValue+0x90>
    2cec:	1d c0       	rjmp	.+58     	; 0x2d28 <DIO_u8GetPortValue+0xa0>
		{
		case DIO_u8_PORTA:
			*Copy_pu8ReturnedPortValue = DIO_u8_PINA_REG;
    2cee:	e9 e3       	ldi	r30, 0x39	; 57
    2cf0:	f0 e0       	ldi	r31, 0x00	; 0
    2cf2:	80 81       	ld	r24, Z
    2cf4:	eb 81       	ldd	r30, Y+3	; 0x03
    2cf6:	fc 81       	ldd	r31, Y+4	; 0x04
    2cf8:	80 83       	st	Z, r24
    2cfa:	16 c0       	rjmp	.+44     	; 0x2d28 <DIO_u8GetPortValue+0xa0>
			break;
		case DIO_u8_PORTB:
			*Copy_pu8ReturnedPortValue = DIO_u8_PINB_REG;
    2cfc:	e6 e3       	ldi	r30, 0x36	; 54
    2cfe:	f0 e0       	ldi	r31, 0x00	; 0
    2d00:	80 81       	ld	r24, Z
    2d02:	eb 81       	ldd	r30, Y+3	; 0x03
    2d04:	fc 81       	ldd	r31, Y+4	; 0x04
    2d06:	80 83       	st	Z, r24
    2d08:	0f c0       	rjmp	.+30     	; 0x2d28 <DIO_u8GetPortValue+0xa0>
			break;

		case DIO_u8_PORTC:
			*Copy_pu8ReturnedPortValue = DIO_u8_PINC_REG;
    2d0a:	e3 e3       	ldi	r30, 0x33	; 51
    2d0c:	f0 e0       	ldi	r31, 0x00	; 0
    2d0e:	80 81       	ld	r24, Z
    2d10:	eb 81       	ldd	r30, Y+3	; 0x03
    2d12:	fc 81       	ldd	r31, Y+4	; 0x04
    2d14:	80 83       	st	Z, r24
    2d16:	08 c0       	rjmp	.+16     	; 0x2d28 <DIO_u8GetPortValue+0xa0>
			break;

		case DIO_u8_PORTD:
			*Copy_pu8ReturnedPortValue = DIO_u8_PIND_REG;
    2d18:	e0 e3       	ldi	r30, 0x30	; 48
    2d1a:	f0 e0       	ldi	r31, 0x00	; 0
    2d1c:	80 81       	ld	r24, Z
    2d1e:	eb 81       	ldd	r30, Y+3	; 0x03
    2d20:	fc 81       	ldd	r31, Y+4	; 0x04
    2d22:	80 83       	st	Z, r24
    2d24:	01 c0       	rjmp	.+2      	; 0x2d28 <DIO_u8GetPortValue+0xa0>
		}
	}

	else
	{
		Local_u8ErrorState = STD_TYPES_NOK;
    2d26:	19 82       	std	Y+1, r1	; 0x01
	}
	return Local_u8ErrorState;
    2d28:	89 81       	ldd	r24, Y+1	; 0x01
}
    2d2a:	26 96       	adiw	r28, 0x06	; 6
    2d2c:	0f b6       	in	r0, 0x3f	; 63
    2d2e:	f8 94       	cli
    2d30:	de bf       	out	0x3e, r29	; 62
    2d32:	0f be       	out	0x3f, r0	; 63
    2d34:	cd bf       	out	0x3d, r28	; 61
    2d36:	cf 91       	pop	r28
    2d38:	df 91       	pop	r29
    2d3a:	08 95       	ret

00002d3c <ADC_void_Init>:

/* ADC Busy Flag */
static u8 ADC_u8BusyFlag = 0;


void ADC_void_Init(void){
    2d3c:	df 93       	push	r29
    2d3e:	cf 93       	push	r28
    2d40:	cd b7       	in	r28, 0x3d	; 61
    2d42:	de b7       	in	r29, 0x3e	; 62
	// Select Voltage Referance
	#if ADC_REF_VOLTAGE_MODE == AVCC
	   CLR_BIT(ADC_u8_ADMUX_REG,ADC_ADMUX_REFS1);
    2d44:	a7 e2       	ldi	r26, 0x27	; 39
    2d46:	b0 e0       	ldi	r27, 0x00	; 0
    2d48:	e7 e2       	ldi	r30, 0x27	; 39
    2d4a:	f0 e0       	ldi	r31, 0x00	; 0
    2d4c:	80 81       	ld	r24, Z
    2d4e:	8f 77       	andi	r24, 0x7F	; 127
    2d50:	8c 93       	st	X, r24
	   SET_BIT(ADC_u8_ADMUX_REG,ADC_ADMUX_REFS0);
    2d52:	a7 e2       	ldi	r26, 0x27	; 39
    2d54:	b0 e0       	ldi	r27, 0x00	; 0
    2d56:	e7 e2       	ldi	r30, 0x27	; 39
    2d58:	f0 e0       	ldi	r31, 0x00	; 0
    2d5a:	80 81       	ld	r24, Z
    2d5c:	80 64       	ori	r24, 0x40	; 64
    2d5e:	8c 93       	st	X, r24
	   SET_BIT(ADC_u8_ADMUX_REG,ADC_ADMUX_REFS0);
	   #endif

	// Select Presentaion Mode
	#if ADC_PRESENTATION_MODE == Right_Adjust
	   CLR_BIT(ADC_u8_ADMUX_REG, ADC_ADMUX_ADLAR);
    2d60:	a7 e2       	ldi	r26, 0x27	; 39
    2d62:	b0 e0       	ldi	r27, 0x00	; 0
    2d64:	e7 e2       	ldi	r30, 0x27	; 39
    2d66:	f0 e0       	ldi	r31, 0x00	; 0
    2d68:	80 81       	ld	r24, Z
    2d6a:	8f 7d       	andi	r24, 0xDF	; 223
    2d6c:	8c 93       	st	X, r24
   #elif ADC_PRESENTATION_MODE == Left_Adjust
	   SET_BIT(ADC_u8_ADMUX_REG, ADC_ADMUX_ADLAR);
   #endif

	// Disable Auto Trigger
	CLR_BIT(ADC_u8_ADCSRA_REG, ADC_ADCSRA_ADATE);
    2d6e:	a6 e2       	ldi	r26, 0x26	; 38
    2d70:	b0 e0       	ldi	r27, 0x00	; 0
    2d72:	e6 e2       	ldi	r30, 0x26	; 38
    2d74:	f0 e0       	ldi	r31, 0x00	; 0
    2d76:	80 81       	ld	r24, Z
    2d78:	8f 7d       	andi	r24, 0xDF	; 223
    2d7a:	8c 93       	st	X, r24
	#elif DEVISION_FACTOR_MODE == ADC_DIVSION_FACTOR_BY_32
		SET_BIT(ADC_u8_ADCSRA_REG, ADC_ADPS2);
		CLR_BIT(ADC_u8_ADCSRA_REG, ADC_ADPS1);
		SET_BIT(ADC_u8_ADCSRA_REG, ADC_ADPS0);
	#elif DEVISION_FACTOR_MODE == ADC_DIVSION_FACTOR_BY_64
			SET_BIT(ADC_u8_ADCSRA_REG, ADC_ADPS2);
    2d7c:	a6 e2       	ldi	r26, 0x26	; 38
    2d7e:	b0 e0       	ldi	r27, 0x00	; 0
    2d80:	e6 e2       	ldi	r30, 0x26	; 38
    2d82:	f0 e0       	ldi	r31, 0x00	; 0
    2d84:	80 81       	ld	r24, Z
    2d86:	84 60       	ori	r24, 0x04	; 4
    2d88:	8c 93       	st	X, r24
			SET_BIT(ADC_u8_ADCSRA_REG, ADC_ADPS1);
    2d8a:	a6 e2       	ldi	r26, 0x26	; 38
    2d8c:	b0 e0       	ldi	r27, 0x00	; 0
    2d8e:	e6 e2       	ldi	r30, 0x26	; 38
    2d90:	f0 e0       	ldi	r31, 0x00	; 0
    2d92:	80 81       	ld	r24, Z
    2d94:	82 60       	ori	r24, 0x02	; 2
    2d96:	8c 93       	st	X, r24
			CLR_BIT(ADC_u8_ADCSRA_REG, ADC_ADPS0);
    2d98:	a6 e2       	ldi	r26, 0x26	; 38
    2d9a:	b0 e0       	ldi	r27, 0x00	; 0
    2d9c:	e6 e2       	ldi	r30, 0x26	; 38
    2d9e:	f0 e0       	ldi	r31, 0x00	; 0
    2da0:	80 81       	ld	r24, Z
    2da2:	8e 7f       	andi	r24, 0xFE	; 254
    2da4:	8c 93       	st	X, r24
			SET_BIT(ADC_u8_ADCSRA_REG, ADC_ADPS1);
			SET_BIT(ADC_u8_ADCSRA_REG, ADC_ADPS0);
   #endif

	// Enable ADC
	SET_BIT(ADC_u8_ADCSRA_REG, ADC_Enable_PIN);
    2da6:	a6 e2       	ldi	r26, 0x26	; 38
    2da8:	b0 e0       	ldi	r27, 0x00	; 0
    2daa:	e6 e2       	ldi	r30, 0x26	; 38
    2dac:	f0 e0       	ldi	r31, 0x00	; 0
    2dae:	80 81       	ld	r24, Z
    2db0:	80 68       	ori	r24, 0x80	; 128
    2db2:	8c 93       	st	X, r24

}
    2db4:	cf 91       	pop	r28
    2db6:	df 91       	pop	r29
    2db8:	08 95       	ret

00002dba <ADC_u8_Get_Digital_ValueSynchNonBlocking>:



u8 ADC_u8_Get_Digital_ValueSynchNonBlocking(u8 Copy_u8ChannelNumber, u16 *Copy_Pu16DigitalValue){
    2dba:	df 93       	push	r29
    2dbc:	cf 93       	push	r28
    2dbe:	cd b7       	in	r28, 0x3d	; 61
    2dc0:	de b7       	in	r29, 0x3e	; 62
    2dc2:	28 97       	sbiw	r28, 0x08	; 8
    2dc4:	0f b6       	in	r0, 0x3f	; 63
    2dc6:	f8 94       	cli
    2dc8:	de bf       	out	0x3e, r29	; 62
    2dca:	0f be       	out	0x3f, r0	; 63
    2dcc:	cd bf       	out	0x3d, r28	; 61
    2dce:	8e 83       	std	Y+6, r24	; 0x06
    2dd0:	78 87       	std	Y+8, r23	; 0x08
    2dd2:	6f 83       	std	Y+7, r22	; 0x07
	u8 Local_u8ErrorState = STD_TYPES_OK;
    2dd4:	81 e0       	ldi	r24, 0x01	; 1
    2dd6:	8d 83       	std	Y+5, r24	; 0x05
	u32 Local_u32TimeOutCounter = 0;
    2dd8:	19 82       	std	Y+1, r1	; 0x01
    2dda:	1a 82       	std	Y+2, r1	; 0x02
    2ddc:	1b 82       	std	Y+3, r1	; 0x03
    2dde:	1c 82       	std	Y+4, r1	; 0x04
	if((Copy_u8ChannelNumber < 32) && (Copy_Pu16DigitalValue != NULL)){
    2de0:	8e 81       	ldd	r24, Y+6	; 0x06
    2de2:	80 32       	cpi	r24, 0x20	; 32
    2de4:	08 f0       	brcs	.+2      	; 0x2de8 <ADC_u8_Get_Digital_ValueSynchNonBlocking+0x2e>
    2de6:	5b c0       	rjmp	.+182    	; 0x2e9e <ADC_u8_Get_Digital_ValueSynchNonBlocking+0xe4>
    2de8:	8f 81       	ldd	r24, Y+7	; 0x07
    2dea:	98 85       	ldd	r25, Y+8	; 0x08
    2dec:	00 97       	sbiw	r24, 0x00	; 0
    2dee:	09 f4       	brne	.+2      	; 0x2df2 <ADC_u8_Get_Digital_ValueSynchNonBlocking+0x38>
    2df0:	56 c0       	rjmp	.+172    	; 0x2e9e <ADC_u8_Get_Digital_ValueSynchNonBlocking+0xe4>

		/* Clear MUX4 */
		ADC_u8_ADMUX_REG &= 0b11100000;
    2df2:	a7 e2       	ldi	r26, 0x27	; 39
    2df4:	b0 e0       	ldi	r27, 0x00	; 0
    2df6:	e7 e2       	ldi	r30, 0x27	; 39
    2df8:	f0 e0       	ldi	r31, 0x00	; 0
    2dfa:	80 81       	ld	r24, Z
    2dfc:	80 7e       	andi	r24, 0xE0	; 224
    2dfe:	8c 93       	st	X, r24
		/* Select Channel */
		ADC_u8_ADMUX_REG |= Copy_u8ChannelNumber;
    2e00:	a7 e2       	ldi	r26, 0x27	; 39
    2e02:	b0 e0       	ldi	r27, 0x00	; 0
    2e04:	e7 e2       	ldi	r30, 0x27	; 39
    2e06:	f0 e0       	ldi	r31, 0x00	; 0
    2e08:	90 81       	ld	r25, Z
    2e0a:	8e 81       	ldd	r24, Y+6	; 0x06
    2e0c:	89 2b       	or	r24, r25
    2e0e:	8c 93       	st	X, r24
		/* Start Conversion */
		SET_BIT(ADC_u8_ADCSRA_REG, ADC_ADCSRA_ADSC);
    2e10:	a6 e2       	ldi	r26, 0x26	; 38
    2e12:	b0 e0       	ldi	r27, 0x00	; 0
    2e14:	e6 e2       	ldi	r30, 0x26	; 38
    2e16:	f0 e0       	ldi	r31, 0x00	; 0
    2e18:	80 81       	ld	r24, Z
    2e1a:	80 64       	ori	r24, 0x40	; 64
    2e1c:	8c 93       	st	X, r24
    2e1e:	0b c0       	rjmp	.+22     	; 0x2e36 <ADC_u8_Get_Digital_ValueSynchNonBlocking+0x7c>
		/* Wait Flag = 1 */
		while((GET_BIT(ADC_u8_ADCSRA_REG, ADC_ADCSRA_ADIF) == 0) && (Local_u32TimeOutCounter < ADC_u32_TIME_OUT_MAX_VALUE)){
			Local_u32TimeOutCounter++;
    2e20:	89 81       	ldd	r24, Y+1	; 0x01
    2e22:	9a 81       	ldd	r25, Y+2	; 0x02
    2e24:	ab 81       	ldd	r26, Y+3	; 0x03
    2e26:	bc 81       	ldd	r27, Y+4	; 0x04
    2e28:	01 96       	adiw	r24, 0x01	; 1
    2e2a:	a1 1d       	adc	r26, r1
    2e2c:	b1 1d       	adc	r27, r1
    2e2e:	89 83       	std	Y+1, r24	; 0x01
    2e30:	9a 83       	std	Y+2, r25	; 0x02
    2e32:	ab 83       	std	Y+3, r26	; 0x03
    2e34:	bc 83       	std	Y+4, r27	; 0x04
		/* Select Channel */
		ADC_u8_ADMUX_REG |= Copy_u8ChannelNumber;
		/* Start Conversion */
		SET_BIT(ADC_u8_ADCSRA_REG, ADC_ADCSRA_ADSC);
		/* Wait Flag = 1 */
		while((GET_BIT(ADC_u8_ADCSRA_REG, ADC_ADCSRA_ADIF) == 0) && (Local_u32TimeOutCounter < ADC_u32_TIME_OUT_MAX_VALUE)){
    2e36:	e6 e2       	ldi	r30, 0x26	; 38
    2e38:	f0 e0       	ldi	r31, 0x00	; 0
    2e3a:	80 81       	ld	r24, Z
    2e3c:	82 95       	swap	r24
    2e3e:	8f 70       	andi	r24, 0x0F	; 15
    2e40:	88 2f       	mov	r24, r24
    2e42:	90 e0       	ldi	r25, 0x00	; 0
    2e44:	81 70       	andi	r24, 0x01	; 1
    2e46:	90 70       	andi	r25, 0x00	; 0
    2e48:	00 97       	sbiw	r24, 0x00	; 0
    2e4a:	61 f4       	brne	.+24     	; 0x2e64 <ADC_u8_Get_Digital_ValueSynchNonBlocking+0xaa>
    2e4c:	89 81       	ldd	r24, Y+1	; 0x01
    2e4e:	9a 81       	ldd	r25, Y+2	; 0x02
    2e50:	ab 81       	ldd	r26, Y+3	; 0x03
    2e52:	bc 81       	ldd	r27, Y+4	; 0x04
    2e54:	80 35       	cpi	r24, 0x50	; 80
    2e56:	23 ec       	ldi	r18, 0xC3	; 195
    2e58:	92 07       	cpc	r25, r18
    2e5a:	20 e0       	ldi	r18, 0x00	; 0
    2e5c:	a2 07       	cpc	r26, r18
    2e5e:	20 e0       	ldi	r18, 0x00	; 0
    2e60:	b2 07       	cpc	r27, r18
    2e62:	f0 f2       	brcs	.-68     	; 0x2e20 <ADC_u8_Get_Digital_ValueSynchNonBlocking+0x66>
			Local_u32TimeOutCounter++;
		}
		if(GET_BIT(ADC_u8_ADCSRA_REG, ADC_ADCSRA_ADIF) != 0){ //(Local_u32TimeOutCounter < ADC_u32_TIME_OUT_MAX_VALUE)
    2e64:	e6 e2       	ldi	r30, 0x26	; 38
    2e66:	f0 e0       	ldi	r31, 0x00	; 0
    2e68:	80 81       	ld	r24, Z
    2e6a:	82 95       	swap	r24
    2e6c:	8f 70       	andi	r24, 0x0F	; 15
    2e6e:	88 2f       	mov	r24, r24
    2e70:	90 e0       	ldi	r25, 0x00	; 0
    2e72:	81 70       	andi	r24, 0x01	; 1
    2e74:	90 70       	andi	r25, 0x00	; 0
    2e76:	88 23       	and	r24, r24
    2e78:	81 f0       	breq	.+32     	; 0x2e9a <ADC_u8_Get_Digital_ValueSynchNonBlocking+0xe0>
			/* Clear Flag = 1 */
			SET_BIT(ADC_u8_ADCSRA_REG, ADC_ADCSRA_ADIF);
    2e7a:	a6 e2       	ldi	r26, 0x26	; 38
    2e7c:	b0 e0       	ldi	r27, 0x00	; 0
    2e7e:	e6 e2       	ldi	r30, 0x26	; 38
    2e80:	f0 e0       	ldi	r31, 0x00	; 0
    2e82:	80 81       	ld	r24, Z
    2e84:	80 61       	ori	r24, 0x10	; 16
    2e86:	8c 93       	st	X, r24
			/* Read Digital Value */
			*Copy_Pu16DigitalValue = ADC_u16_ADC_REG;
    2e88:	e4 e2       	ldi	r30, 0x24	; 36
    2e8a:	f0 e0       	ldi	r31, 0x00	; 0
    2e8c:	80 81       	ld	r24, Z
    2e8e:	91 81       	ldd	r25, Z+1	; 0x01
    2e90:	ef 81       	ldd	r30, Y+7	; 0x07
    2e92:	f8 85       	ldd	r31, Y+8	; 0x08
    2e94:	91 83       	std	Z+1, r25	; 0x01
    2e96:	80 83       	st	Z, r24
    2e98:	03 c0       	rjmp	.+6      	; 0x2ea0 <ADC_u8_Get_Digital_ValueSynchNonBlocking+0xe6>
		}
		else{
			Local_u8ErrorState = STD_TYPES_NOK;
    2e9a:	1d 82       	std	Y+5, r1	; 0x05
    2e9c:	01 c0       	rjmp	.+2      	; 0x2ea0 <ADC_u8_Get_Digital_ValueSynchNonBlocking+0xe6>
		}
	}

	else{
		Local_u8ErrorState = STD_TYPES_NOK;
    2e9e:	1d 82       	std	Y+5, r1	; 0x05
	}
	return Local_u8ErrorState;
    2ea0:	8d 81       	ldd	r24, Y+5	; 0x05
}
    2ea2:	28 96       	adiw	r28, 0x08	; 8
    2ea4:	0f b6       	in	r0, 0x3f	; 63
    2ea6:	f8 94       	cli
    2ea8:	de bf       	out	0x3e, r29	; 62
    2eaa:	0f be       	out	0x3f, r0	; 63
    2eac:	cd bf       	out	0x3d, r28	; 61
    2eae:	cf 91       	pop	r28
    2eb0:	df 91       	pop	r29
    2eb2:	08 95       	ret

00002eb4 <ADC_u8_Get_Digital_ValueAsynch>:



u8 ADC_u8_Get_Digital_ValueAsynch(u8 Copy_u8ChannelNumber, void (*Copy_PFNotification)(u16)){
    2eb4:	df 93       	push	r29
    2eb6:	cf 93       	push	r28
    2eb8:	00 d0       	rcall	.+0      	; 0x2eba <ADC_u8_Get_Digital_ValueAsynch+0x6>
    2eba:	00 d0       	rcall	.+0      	; 0x2ebc <ADC_u8_Get_Digital_ValueAsynch+0x8>
    2ebc:	cd b7       	in	r28, 0x3d	; 61
    2ebe:	de b7       	in	r29, 0x3e	; 62
    2ec0:	8a 83       	std	Y+2, r24	; 0x02
    2ec2:	7c 83       	std	Y+4, r23	; 0x04
    2ec4:	6b 83       	std	Y+3, r22	; 0x03
	u8 Local_u8ErrorState = STD_TYPES_OK;
    2ec6:	81 e0       	ldi	r24, 0x01	; 1
    2ec8:	89 83       	std	Y+1, r24	; 0x01
	if((Copy_u8ChannelNumber < 32) && (Copy_PFNotification != NULL) && (ADC_u8BusyFlag == 0)){
    2eca:	8a 81       	ldd	r24, Y+2	; 0x02
    2ecc:	80 32       	cpi	r24, 0x20	; 32
    2ece:	78 f5       	brcc	.+94     	; 0x2f2e <ADC_u8_Get_Digital_ValueAsynch+0x7a>
    2ed0:	8b 81       	ldd	r24, Y+3	; 0x03
    2ed2:	9c 81       	ldd	r25, Y+4	; 0x04
    2ed4:	00 97       	sbiw	r24, 0x00	; 0
    2ed6:	59 f1       	breq	.+86     	; 0x2f2e <ADC_u8_Get_Digital_ValueAsynch+0x7a>
    2ed8:	80 91 94 01 	lds	r24, 0x0194
    2edc:	88 23       	and	r24, r24
    2ede:	39 f5       	brne	.+78     	; 0x2f2e <ADC_u8_Get_Digital_ValueAsynch+0x7a>
		/* Set Flag To Make ADC Busy */
		ADC_u8BusyFlag = 1;
    2ee0:	81 e0       	ldi	r24, 0x01	; 1
    2ee2:	80 93 94 01 	sts	0x0194, r24
		/* Update Global Pointer To a Function */
		ADC_PfNotification = Copy_PFNotification;
    2ee6:	8b 81       	ldd	r24, Y+3	; 0x03
    2ee8:	9c 81       	ldd	r25, Y+4	; 0x04
    2eea:	90 93 93 01 	sts	0x0193, r25
    2eee:	80 93 92 01 	sts	0x0192, r24
		/* Enable ADC Interrupt */
		SET_BIT(ADC_u8_ADCSRA_REG, ADC_Interrupt_Enable_PIN);
    2ef2:	a6 e2       	ldi	r26, 0x26	; 38
    2ef4:	b0 e0       	ldi	r27, 0x00	; 0
    2ef6:	e6 e2       	ldi	r30, 0x26	; 38
    2ef8:	f0 e0       	ldi	r31, 0x00	; 0
    2efa:	80 81       	ld	r24, Z
    2efc:	88 60       	ori	r24, 0x08	; 8
    2efe:	8c 93       	st	X, r24
		/* Clear MUX4 */
		ADC_u8_ADMUX_REG &= 0b11100000;
    2f00:	a7 e2       	ldi	r26, 0x27	; 39
    2f02:	b0 e0       	ldi	r27, 0x00	; 0
    2f04:	e7 e2       	ldi	r30, 0x27	; 39
    2f06:	f0 e0       	ldi	r31, 0x00	; 0
    2f08:	80 81       	ld	r24, Z
    2f0a:	80 7e       	andi	r24, 0xE0	; 224
    2f0c:	8c 93       	st	X, r24
		/* Select Channel */
		ADC_u8_ADMUX_REG |= Copy_u8ChannelNumber;
    2f0e:	a7 e2       	ldi	r26, 0x27	; 39
    2f10:	b0 e0       	ldi	r27, 0x00	; 0
    2f12:	e7 e2       	ldi	r30, 0x27	; 39
    2f14:	f0 e0       	ldi	r31, 0x00	; 0
    2f16:	90 81       	ld	r25, Z
    2f18:	8a 81       	ldd	r24, Y+2	; 0x02
    2f1a:	89 2b       	or	r24, r25
    2f1c:	8c 93       	st	X, r24
		/* Start Conversion */
		SET_BIT(ADC_u8_ADCSRA_REG, ADC_ADCSRA_ADSC);
    2f1e:	a6 e2       	ldi	r26, 0x26	; 38
    2f20:	b0 e0       	ldi	r27, 0x00	; 0
    2f22:	e6 e2       	ldi	r30, 0x26	; 38
    2f24:	f0 e0       	ldi	r31, 0x00	; 0
    2f26:	80 81       	ld	r24, Z
    2f28:	80 64       	ori	r24, 0x40	; 64
    2f2a:	8c 93       	st	X, r24
    2f2c:	01 c0       	rjmp	.+2      	; 0x2f30 <ADC_u8_Get_Digital_ValueAsynch+0x7c>
	}
	else{
		Local_u8ErrorState = STD_TYPES_NOK;
    2f2e:	19 82       	std	Y+1, r1	; 0x01
	}
	return Local_u8ErrorState;
    2f30:	89 81       	ldd	r24, Y+1	; 0x01
}
    2f32:	0f 90       	pop	r0
    2f34:	0f 90       	pop	r0
    2f36:	0f 90       	pop	r0
    2f38:	0f 90       	pop	r0
    2f3a:	cf 91       	pop	r28
    2f3c:	df 91       	pop	r29
    2f3e:	08 95       	ret

00002f40 <ADC_u8GetADCRegValue>:

u8 ADC_u8GetADCRegValue(u16 *Copy_u16PADCValue){
    2f40:	df 93       	push	r29
    2f42:	cf 93       	push	r28
    2f44:	00 d0       	rcall	.+0      	; 0x2f46 <ADC_u8GetADCRegValue+0x6>
    2f46:	0f 92       	push	r0
    2f48:	cd b7       	in	r28, 0x3d	; 61
    2f4a:	de b7       	in	r29, 0x3e	; 62
    2f4c:	9b 83       	std	Y+3, r25	; 0x03
    2f4e:	8a 83       	std	Y+2, r24	; 0x02
	u8 Local_u8ErrorState = STD_TYPES_OK;
    2f50:	81 e0       	ldi	r24, 0x01	; 1
    2f52:	89 83       	std	Y+1, r24	; 0x01
	if(Copy_u16PADCValue != NULL){
    2f54:	8a 81       	ldd	r24, Y+2	; 0x02
    2f56:	9b 81       	ldd	r25, Y+3	; 0x03
    2f58:	00 97       	sbiw	r24, 0x00	; 0
    2f5a:	39 f0       	breq	.+14     	; 0x2f6a <ADC_u8GetADCRegValue+0x2a>
		/* Read ADC Register */
		Copy_u16PADCValue = ADC_u16_ADC_REG;
    2f5c:	e4 e2       	ldi	r30, 0x24	; 36
    2f5e:	f0 e0       	ldi	r31, 0x00	; 0
    2f60:	80 81       	ld	r24, Z
    2f62:	91 81       	ldd	r25, Z+1	; 0x01
    2f64:	9b 83       	std	Y+3, r25	; 0x03
    2f66:	8a 83       	std	Y+2, r24	; 0x02
    2f68:	01 c0       	rjmp	.+2      	; 0x2f6c <ADC_u8GetADCRegValue+0x2c>
	}
	else{
		Local_u8ErrorState = STD_TYPES_NOK;
    2f6a:	19 82       	std	Y+1, r1	; 0x01
	}
	return Local_u8ErrorState;
    2f6c:	89 81       	ldd	r24, Y+1	; 0x01
}
    2f6e:	0f 90       	pop	r0
    2f70:	0f 90       	pop	r0
    2f72:	0f 90       	pop	r0
    2f74:	cf 91       	pop	r28
    2f76:	df 91       	pop	r29
    2f78:	08 95       	ret

00002f7a <__vector_16>:


void __vector_16(void)		__attribute__((signal));

void __vector_16(void){
    2f7a:	1f 92       	push	r1
    2f7c:	0f 92       	push	r0
    2f7e:	0f b6       	in	r0, 0x3f	; 63
    2f80:	0f 92       	push	r0
    2f82:	11 24       	eor	r1, r1
    2f84:	2f 93       	push	r18
    2f86:	3f 93       	push	r19
    2f88:	4f 93       	push	r20
    2f8a:	5f 93       	push	r21
    2f8c:	6f 93       	push	r22
    2f8e:	7f 93       	push	r23
    2f90:	8f 93       	push	r24
    2f92:	9f 93       	push	r25
    2f94:	af 93       	push	r26
    2f96:	bf 93       	push	r27
    2f98:	ef 93       	push	r30
    2f9a:	ff 93       	push	r31
    2f9c:	df 93       	push	r29
    2f9e:	cf 93       	push	r28
    2fa0:	cd b7       	in	r28, 0x3d	; 61
    2fa2:	de b7       	in	r29, 0x3e	; 62
	if(ADC_PfNotification != NULL){
    2fa4:	80 91 92 01 	lds	r24, 0x0192
    2fa8:	90 91 93 01 	lds	r25, 0x0193
    2fac:	00 97       	sbiw	r24, 0x00	; 0
    2fae:	99 f0       	breq	.+38     	; 0x2fd6 <__vector_16+0x5c>
		ADC_u8BusyFlag = 0;
    2fb0:	10 92 94 01 	sts	0x0194, r1
		CLR_BIT(ADC_u8_ADCSRA_REG, ADC_Interrupt_Enable_PIN);
    2fb4:	a6 e2       	ldi	r26, 0x26	; 38
    2fb6:	b0 e0       	ldi	r27, 0x00	; 0
    2fb8:	e6 e2       	ldi	r30, 0x26	; 38
    2fba:	f0 e0       	ldi	r31, 0x00	; 0
    2fbc:	80 81       	ld	r24, Z
    2fbe:	87 7f       	andi	r24, 0xF7	; 247
    2fc0:	8c 93       	st	X, r24
		ADC_PfNotification(ADC_u16_ADC_REG);
    2fc2:	20 91 92 01 	lds	r18, 0x0192
    2fc6:	30 91 93 01 	lds	r19, 0x0193
    2fca:	e4 e2       	ldi	r30, 0x24	; 36
    2fcc:	f0 e0       	ldi	r31, 0x00	; 0
    2fce:	80 81       	ld	r24, Z
    2fd0:	91 81       	ldd	r25, Z+1	; 0x01
    2fd2:	f9 01       	movw	r30, r18
    2fd4:	09 95       	icall
	}
}
    2fd6:	cf 91       	pop	r28
    2fd8:	df 91       	pop	r29
    2fda:	ff 91       	pop	r31
    2fdc:	ef 91       	pop	r30
    2fde:	bf 91       	pop	r27
    2fe0:	af 91       	pop	r26
    2fe2:	9f 91       	pop	r25
    2fe4:	8f 91       	pop	r24
    2fe6:	7f 91       	pop	r23
    2fe8:	6f 91       	pop	r22
    2fea:	5f 91       	pop	r21
    2fec:	4f 91       	pop	r20
    2fee:	3f 91       	pop	r19
    2ff0:	2f 91       	pop	r18
    2ff2:	0f 90       	pop	r0
    2ff4:	0f be       	out	0x3f, r0	; 63
    2ff6:	0f 90       	pop	r0
    2ff8:	1f 90       	pop	r1
    2ffa:	18 95       	reti

00002ffc <Stepper_Init>:

#include<util/delay.h>
#define F_CPU 16000000UL


void Stepper_Init(){
    2ffc:	df 93       	push	r29
    2ffe:	cf 93       	push	r28
    3000:	cd b7       	in	r28, 0x3d	; 61
    3002:	de b7       	in	r29, 0x3e	; 62
	DIO_u8SetPinDirection(Stepper_1B_PORT, Stepper_1B_PIN, DIO_u8_OUTPUT);
    3004:	82 e0       	ldi	r24, 0x02	; 2
    3006:	60 e0       	ldi	r22, 0x00	; 0
    3008:	41 e0       	ldi	r20, 0x01	; 1
    300a:	0e 94 78 11 	call	0x22f0	; 0x22f0 <DIO_u8SetPinDirection>
	DIO_u8SetPinDirection(Stepper_2B_PORT, Stepper_2B_PIN, DIO_u8_OUTPUT);
    300e:	82 e0       	ldi	r24, 0x02	; 2
    3010:	61 e0       	ldi	r22, 0x01	; 1
    3012:	41 e0       	ldi	r20, 0x01	; 1
    3014:	0e 94 78 11 	call	0x22f0	; 0x22f0 <DIO_u8SetPinDirection>
	DIO_u8SetPinDirection(Stepper_3B_PORT, Stepper_3B_PIN, DIO_u8_OUTPUT);
    3018:	82 e0       	ldi	r24, 0x02	; 2
    301a:	62 e0       	ldi	r22, 0x02	; 2
    301c:	41 e0       	ldi	r20, 0x01	; 1
    301e:	0e 94 78 11 	call	0x22f0	; 0x22f0 <DIO_u8SetPinDirection>
	DIO_u8SetPinDirection(Stepper_4B_PORT, Stepper_4B_PIN, DIO_u8_OUTPUT);
    3022:	82 e0       	ldi	r24, 0x02	; 2
    3024:	63 e0       	ldi	r22, 0x03	; 3
    3026:	41 e0       	ldi	r20, 0x01	; 1
    3028:	0e 94 78 11 	call	0x22f0	; 0x22f0 <DIO_u8SetPinDirection>
}
    302c:	cf 91       	pop	r28
    302e:	df 91       	pop	r29
    3030:	08 95       	ret

00003032 <ActivatePins1>:


void ActivatePins1(u8 Copy_u8_1B_Value, u8 Copy_u8_2B_Value, u8 Copy_u8_3B_Value, u8 Copy_u8_4B_Value){
    3032:	df 93       	push	r29
    3034:	cf 93       	push	r28
    3036:	00 d0       	rcall	.+0      	; 0x3038 <ActivatePins1+0x6>
    3038:	00 d0       	rcall	.+0      	; 0x303a <ActivatePins1+0x8>
    303a:	cd b7       	in	r28, 0x3d	; 61
    303c:	de b7       	in	r29, 0x3e	; 62
    303e:	89 83       	std	Y+1, r24	; 0x01
    3040:	6a 83       	std	Y+2, r22	; 0x02
    3042:	4b 83       	std	Y+3, r20	; 0x03
    3044:	2c 83       	std	Y+4, r18	; 0x04
	DIO_u8SetPinValue(Stepper_1B_PORT, Stepper_1B_PIN, Copy_u8_1B_Value);
    3046:	82 e0       	ldi	r24, 0x02	; 2
    3048:	60 e0       	ldi	r22, 0x00	; 0
    304a:	49 81       	ldd	r20, Y+1	; 0x01
    304c:	0e 94 a2 12 	call	0x2544	; 0x2544 <DIO_u8SetPinValue>
	DIO_u8SetPinValue(Stepper_2B_PORT, Stepper_2B_PIN, Copy_u8_2B_Value);
    3050:	82 e0       	ldi	r24, 0x02	; 2
    3052:	61 e0       	ldi	r22, 0x01	; 1
    3054:	4a 81       	ldd	r20, Y+2	; 0x02
    3056:	0e 94 a2 12 	call	0x2544	; 0x2544 <DIO_u8SetPinValue>
	DIO_u8SetPinValue(Stepper_3B_PORT, Stepper_3B_PIN, Copy_u8_3B_Value);
    305a:	82 e0       	ldi	r24, 0x02	; 2
    305c:	62 e0       	ldi	r22, 0x02	; 2
    305e:	4b 81       	ldd	r20, Y+3	; 0x03
    3060:	0e 94 a2 12 	call	0x2544	; 0x2544 <DIO_u8SetPinValue>
	DIO_u8SetPinValue(Stepper_4B_PORT, Stepper_4B_PIN, Copy_u8_4B_Value);
    3064:	82 e0       	ldi	r24, 0x02	; 2
    3066:	63 e0       	ldi	r22, 0x03	; 3
    3068:	4c 81       	ldd	r20, Y+4	; 0x04
    306a:	0e 94 a2 12 	call	0x2544	; 0x2544 <DIO_u8SetPinValue>
}
    306e:	0f 90       	pop	r0
    3070:	0f 90       	pop	r0
    3072:	0f 90       	pop	r0
    3074:	0f 90       	pop	r0
    3076:	cf 91       	pop	r28
    3078:	df 91       	pop	r29
    307a:	08 95       	ret

0000307c <ActivatePins2>:

void ActivatePins2(u8 Copy_u8_1B_Value, u8 Copy_u8_2B_Value, u8 Copy_u8_3B_Value, u8 Copy_u8_4B_Value){
    307c:	df 93       	push	r29
    307e:	cf 93       	push	r28
    3080:	00 d0       	rcall	.+0      	; 0x3082 <ActivatePins2+0x6>
    3082:	00 d0       	rcall	.+0      	; 0x3084 <ActivatePins2+0x8>
    3084:	cd b7       	in	r28, 0x3d	; 61
    3086:	de b7       	in	r29, 0x3e	; 62
    3088:	89 83       	std	Y+1, r24	; 0x01
    308a:	6a 83       	std	Y+2, r22	; 0x02
    308c:	4b 83       	std	Y+3, r20	; 0x03
    308e:	2c 83       	std	Y+4, r18	; 0x04
	DIO_u8SetPinValue(Stepper_4B_PORT, Stepper_4B_PIN, Copy_u8_4B_Value);
    3090:	82 e0       	ldi	r24, 0x02	; 2
    3092:	63 e0       	ldi	r22, 0x03	; 3
    3094:	4c 81       	ldd	r20, Y+4	; 0x04
    3096:	0e 94 a2 12 	call	0x2544	; 0x2544 <DIO_u8SetPinValue>
	DIO_u8SetPinValue(Stepper_3B_PORT, Stepper_3B_PIN, Copy_u8_3B_Value);
    309a:	82 e0       	ldi	r24, 0x02	; 2
    309c:	62 e0       	ldi	r22, 0x02	; 2
    309e:	4b 81       	ldd	r20, Y+3	; 0x03
    30a0:	0e 94 a2 12 	call	0x2544	; 0x2544 <DIO_u8SetPinValue>
	DIO_u8SetPinValue(Stepper_2B_PORT, Stepper_2B_PIN, Copy_u8_2B_Value);
    30a4:	82 e0       	ldi	r24, 0x02	; 2
    30a6:	61 e0       	ldi	r22, 0x01	; 1
    30a8:	4a 81       	ldd	r20, Y+2	; 0x02
    30aa:	0e 94 a2 12 	call	0x2544	; 0x2544 <DIO_u8SetPinValue>
	DIO_u8SetPinValue(Stepper_1B_PORT, Stepper_1B_PIN, Copy_u8_1B_Value);
    30ae:	82 e0       	ldi	r24, 0x02	; 2
    30b0:	60 e0       	ldi	r22, 0x00	; 0
    30b2:	49 81       	ldd	r20, Y+1	; 0x01
    30b4:	0e 94 a2 12 	call	0x2544	; 0x2544 <DIO_u8SetPinValue>
}
    30b8:	0f 90       	pop	r0
    30ba:	0f 90       	pop	r0
    30bc:	0f 90       	pop	r0
    30be:	0f 90       	pop	r0
    30c0:	cf 91       	pop	r28
    30c2:	df 91       	pop	r29
    30c4:	08 95       	ret

000030c6 <SelectStepAngle>:


void SelectStepAngle(u16 angle, u8 Direction){
    30c6:	df 93       	push	r29
    30c8:	cf 93       	push	r28
    30ca:	cd b7       	in	r28, 0x3d	; 61
    30cc:	de b7       	in	r29, 0x3e	; 62
    30ce:	29 97       	sbiw	r28, 0x09	; 9
    30d0:	0f b6       	in	r0, 0x3f	; 63
    30d2:	f8 94       	cli
    30d4:	de bf       	out	0x3e, r29	; 62
    30d6:	0f be       	out	0x3f, r0	; 63
    30d8:	cd bf       	out	0x3d, r28	; 61
    30da:	9a 83       	std	Y+2, r25	; 0x02
    30dc:	89 83       	std	Y+1, r24	; 0x01
    30de:	6b 83       	std	Y+3, r22	; 0x03
	switch(angle){
    30e0:	29 81       	ldd	r18, Y+1	; 0x01
    30e2:	3a 81       	ldd	r19, Y+2	; 0x02
    30e4:	39 87       	std	Y+9, r19	; 0x09
    30e6:	28 87       	std	Y+8, r18	; 0x08
    30e8:	88 85       	ldd	r24, Y+8	; 0x08
    30ea:	99 85       	ldd	r25, Y+9	; 0x09
    30ec:	8a 35       	cpi	r24, 0x5A	; 90
    30ee:	91 05       	cpc	r25, r1
    30f0:	31 f0       	breq	.+12     	; 0x30fe <SelectStepAngle+0x38>
    30f2:	28 85       	ldd	r18, Y+8	; 0x08
    30f4:	39 85       	ldd	r19, Y+9	; 0x09
    30f6:	24 3b       	cpi	r18, 0xB4	; 180
    30f8:	31 05       	cpc	r19, r1
    30fa:	f1 f0       	breq	.+60     	; 0x3138 <SelectStepAngle+0x72>
    30fc:	39 c0       	rjmp	.+114    	; 0x3170 <SelectStepAngle+0xaa>
		case 90:
			switch(Direction){
    30fe:	8b 81       	ldd	r24, Y+3	; 0x03
    3100:	28 2f       	mov	r18, r24
    3102:	30 e0       	ldi	r19, 0x00	; 0
    3104:	3f 83       	std	Y+7, r19	; 0x07
    3106:	2e 83       	std	Y+6, r18	; 0x06
    3108:	8e 81       	ldd	r24, Y+6	; 0x06
    310a:	9f 81       	ldd	r25, Y+7	; 0x07
    310c:	00 97       	sbiw	r24, 0x00	; 0
    310e:	31 f0       	breq	.+12     	; 0x311c <SelectStepAngle+0x56>
    3110:	2e 81       	ldd	r18, Y+6	; 0x06
    3112:	3f 81       	ldd	r19, Y+7	; 0x07
    3114:	21 30       	cpi	r18, 0x01	; 1
    3116:	31 05       	cpc	r19, r1
    3118:	41 f0       	breq	.+16     	; 0x312a <SelectStepAngle+0x64>
    311a:	2a c0       	rjmp	.+84     	; 0x3170 <SelectStepAngle+0xaa>
				case CW:
					ActivatePins1(DIO_u8_LOW, DIO_u8_LOW, DIO_u8_HIGH, DIO_u8_HIGH);
    311c:	80 e0       	ldi	r24, 0x00	; 0
    311e:	60 e0       	ldi	r22, 0x00	; 0
    3120:	41 e0       	ldi	r20, 0x01	; 1
    3122:	21 e0       	ldi	r18, 0x01	; 1
    3124:	0e 94 19 18 	call	0x3032	; 0x3032 <ActivatePins1>
    3128:	23 c0       	rjmp	.+70     	; 0x3170 <SelectStepAngle+0xaa>
					break;

				case CCW:
					ActivatePins2(DIO_u8_HIGH, DIO_u8_HIGH, DIO_u8_LOW, DIO_u8_LOW);
    312a:	81 e0       	ldi	r24, 0x01	; 1
    312c:	61 e0       	ldi	r22, 0x01	; 1
    312e:	40 e0       	ldi	r20, 0x00	; 0
    3130:	20 e0       	ldi	r18, 0x00	; 0
    3132:	0e 94 3e 18 	call	0x307c	; 0x307c <ActivatePins2>
    3136:	1c c0       	rjmp	.+56     	; 0x3170 <SelectStepAngle+0xaa>
					break;
			}
			break;

			case 180:
				switch(Direction){
    3138:	8b 81       	ldd	r24, Y+3	; 0x03
    313a:	28 2f       	mov	r18, r24
    313c:	30 e0       	ldi	r19, 0x00	; 0
    313e:	3d 83       	std	Y+5, r19	; 0x05
    3140:	2c 83       	std	Y+4, r18	; 0x04
    3142:	8c 81       	ldd	r24, Y+4	; 0x04
    3144:	9d 81       	ldd	r25, Y+5	; 0x05
    3146:	00 97       	sbiw	r24, 0x00	; 0
    3148:	31 f0       	breq	.+12     	; 0x3156 <SelectStepAngle+0x90>
    314a:	2c 81       	ldd	r18, Y+4	; 0x04
    314c:	3d 81       	ldd	r19, Y+5	; 0x05
    314e:	21 30       	cpi	r18, 0x01	; 1
    3150:	31 05       	cpc	r19, r1
    3152:	41 f0       	breq	.+16     	; 0x3164 <SelectStepAngle+0x9e>
    3154:	0d c0       	rjmp	.+26     	; 0x3170 <SelectStepAngle+0xaa>
					case CW:
						ActivatePins2(DIO_u8_LOW, DIO_u8_HIGH, DIO_u8_HIGH, DIO_u8_LOW);
    3156:	80 e0       	ldi	r24, 0x00	; 0
    3158:	61 e0       	ldi	r22, 0x01	; 1
    315a:	41 e0       	ldi	r20, 0x01	; 1
    315c:	20 e0       	ldi	r18, 0x00	; 0
    315e:	0e 94 3e 18 	call	0x307c	; 0x307c <ActivatePins2>
    3162:	06 c0       	rjmp	.+12     	; 0x3170 <SelectStepAngle+0xaa>
						break;

					case CCW:
						ActivatePins1(DIO_u8_LOW, DIO_u8_HIGH, DIO_u8_HIGH, DIO_u8_LOW);
    3164:	80 e0       	ldi	r24, 0x00	; 0
    3166:	61 e0       	ldi	r22, 0x01	; 1
    3168:	41 e0       	ldi	r20, 0x01	; 1
    316a:	20 e0       	ldi	r18, 0x00	; 0
    316c:	0e 94 19 18 	call	0x3032	; 0x3032 <ActivatePins1>
						break;
				}
				break;
	}
}
    3170:	29 96       	adiw	r28, 0x09	; 9
    3172:	0f b6       	in	r0, 0x3f	; 63
    3174:	f8 94       	cli
    3176:	de bf       	out	0x3e, r29	; 62
    3178:	0f be       	out	0x3f, r0	; 63
    317a:	cd bf       	out	0x3d, r28	; 61
    317c:	cf 91       	pop	r28
    317e:	df 91       	pop	r29
    3180:	08 95       	ret

00003182 <Servo_Init>:
#include "../../MCAL/Timer/Timer_Interface.h"

#define TIMERS_u16_OCR1A_REG			*((volatile u16 *)0x4A)

void Servo_Init(){
    3182:	df 93       	push	r29
    3184:	cf 93       	push	r28
    3186:	cd b7       	in	r28, 0x3d	; 61
    3188:	de b7       	in	r29, 0x3e	; 62
	TIMERS_voidTimer1Init();
    318a:	0e 94 df 08 	call	0x11be	; 0x11be <TIMERS_voidTimer1Init>
}
    318e:	cf 91       	pop	r28
    3190:	df 91       	pop	r29
    3192:	08 95       	ret

00003194 <Servo_SetAngle>:

void Servo_SetAngle(u16 Servo_Angle){
    3194:	df 93       	push	r29
    3196:	cf 93       	push	r28
    3198:	00 d0       	rcall	.+0      	; 0x319a <Servo_SetAngle+0x6>
    319a:	00 d0       	rcall	.+0      	; 0x319c <Servo_SetAngle+0x8>
    319c:	cd b7       	in	r28, 0x3d	; 61
    319e:	de b7       	in	r29, 0x3e	; 62
    31a0:	9c 83       	std	Y+4, r25	; 0x04
    31a2:	8b 83       	std	Y+3, r24	; 0x03
	u16 Local_u16OCR1AValue = (Servo_Angle * 11) + 3005;
    31a4:	4b 81       	ldd	r20, Y+3	; 0x03
    31a6:	5c 81       	ldd	r21, Y+4	; 0x04
    31a8:	ca 01       	movw	r24, r20
    31aa:	88 0f       	add	r24, r24
    31ac:	99 1f       	adc	r25, r25
    31ae:	9c 01       	movw	r18, r24
    31b0:	22 0f       	add	r18, r18
    31b2:	33 1f       	adc	r19, r19
    31b4:	22 0f       	add	r18, r18
    31b6:	33 1f       	adc	r19, r19
    31b8:	82 0f       	add	r24, r18
    31ba:	93 1f       	adc	r25, r19
    31bc:	84 0f       	add	r24, r20
    31be:	95 1f       	adc	r25, r21
    31c0:	83 54       	subi	r24, 0x43	; 67
    31c2:	94 4f       	sbci	r25, 0xF4	; 244
    31c4:	9a 83       	std	Y+2, r25	; 0x02
    31c6:	89 83       	std	Y+1, r24	; 0x01
	TIMERS_voidTIMER1SetCompareMatchValueA(Local_u16OCR1AValue);
    31c8:	89 81       	ldd	r24, Y+1	; 0x01
    31ca:	9a 81       	ldd	r25, Y+2	; 0x02
    31cc:	0e 94 87 09 	call	0x130e	; 0x130e <TIMERS_voidTIMER1SetCompareMatchValueA>
}
    31d0:	0f 90       	pop	r0
    31d2:	0f 90       	pop	r0
    31d4:	0f 90       	pop	r0
    31d6:	0f 90       	pop	r0
    31d8:	cf 91       	pop	r28
    31da:	df 91       	pop	r29
    31dc:	08 95       	ret

000031de <LCD_sendCommand>:

#include "../../LIB/BIT_MATH.h"
#include "../../MCAL/DIO/Dio_Interface.h"

void LCD_sendCommand(u8 command)
{
    31de:	df 93       	push	r29
    31e0:	cf 93       	push	r28
    31e2:	cd b7       	in	r28, 0x3d	; 61
    31e4:	de b7       	in	r29, 0x3e	; 62
    31e6:	e9 97       	sbiw	r28, 0x39	; 57
    31e8:	0f b6       	in	r0, 0x3f	; 63
    31ea:	f8 94       	cli
    31ec:	de bf       	out	0x3e, r29	; 62
    31ee:	0f be       	out	0x3f, r0	; 63
    31f0:	cd bf       	out	0x3d, r28	; 61
    31f2:	89 af       	std	Y+57, r24	; 0x39

	LCD_setPinValue(LCD_RS_PORT_ID, LCD_RS_PIN_ID, LOGIC_LOW);
    31f4:	83 e0       	ldi	r24, 0x03	; 3
    31f6:	90 e0       	ldi	r25, 0x00	; 0
    31f8:	64 e0       	ldi	r22, 0x04	; 4
    31fa:	70 e0       	ldi	r23, 0x00	; 0
    31fc:	40 e0       	ldi	r20, 0x00	; 0
    31fe:	50 e0       	ldi	r21, 0x00	; 0
    3200:	0e 94 6e 0c 	call	0x18dc	; 0x18dc <LCD_setPinValue>
    3204:	80 e0       	ldi	r24, 0x00	; 0
    3206:	90 e0       	ldi	r25, 0x00	; 0
    3208:	a0 e8       	ldi	r26, 0x80	; 128
    320a:	bf e3       	ldi	r27, 0x3F	; 63
    320c:	8d ab       	std	Y+53, r24	; 0x35
    320e:	9e ab       	std	Y+54, r25	; 0x36
    3210:	af ab       	std	Y+55, r26	; 0x37
    3212:	b8 af       	std	Y+56, r27	; 0x38
 */
void
_delay_ms(double __ms)
{
	uint16_t __ticks;
	double __tmp = ((F_CPU) / 4e3) * __ms;
    3214:	6d a9       	ldd	r22, Y+53	; 0x35
    3216:	7e a9       	ldd	r23, Y+54	; 0x36
    3218:	8f a9       	ldd	r24, Y+55	; 0x37
    321a:	98 ad       	ldd	r25, Y+56	; 0x38
    321c:	20 e0       	ldi	r18, 0x00	; 0
    321e:	30 e0       	ldi	r19, 0x00	; 0
    3220:	4a e7       	ldi	r20, 0x7A	; 122
    3222:	55 e4       	ldi	r21, 0x45	; 69
    3224:	0e 94 1f 02 	call	0x43e	; 0x43e <__mulsf3>
    3228:	dc 01       	movw	r26, r24
    322a:	cb 01       	movw	r24, r22
    322c:	89 ab       	std	Y+49, r24	; 0x31
    322e:	9a ab       	std	Y+50, r25	; 0x32
    3230:	ab ab       	std	Y+51, r26	; 0x33
    3232:	bc ab       	std	Y+52, r27	; 0x34
	if (__tmp < 1.0)
    3234:	69 a9       	ldd	r22, Y+49	; 0x31
    3236:	7a a9       	ldd	r23, Y+50	; 0x32
    3238:	8b a9       	ldd	r24, Y+51	; 0x33
    323a:	9c a9       	ldd	r25, Y+52	; 0x34
    323c:	20 e0       	ldi	r18, 0x00	; 0
    323e:	30 e0       	ldi	r19, 0x00	; 0
    3240:	40 e8       	ldi	r20, 0x80	; 128
    3242:	5f e3       	ldi	r21, 0x3F	; 63
    3244:	0e 94 79 03 	call	0x6f2	; 0x6f2 <__ltsf2>
    3248:	88 23       	and	r24, r24
    324a:	2c f4       	brge	.+10     	; 0x3256 <LCD_sendCommand+0x78>
		__ticks = 1;
    324c:	81 e0       	ldi	r24, 0x01	; 1
    324e:	90 e0       	ldi	r25, 0x00	; 0
    3250:	98 ab       	std	Y+48, r25	; 0x30
    3252:	8f a7       	std	Y+47, r24	; 0x2f
    3254:	3f c0       	rjmp	.+126    	; 0x32d4 <LCD_sendCommand+0xf6>
	else if (__tmp > 65535)
    3256:	69 a9       	ldd	r22, Y+49	; 0x31
    3258:	7a a9       	ldd	r23, Y+50	; 0x32
    325a:	8b a9       	ldd	r24, Y+51	; 0x33
    325c:	9c a9       	ldd	r25, Y+52	; 0x34
    325e:	20 e0       	ldi	r18, 0x00	; 0
    3260:	3f ef       	ldi	r19, 0xFF	; 255
    3262:	4f e7       	ldi	r20, 0x7F	; 127
    3264:	57 e4       	ldi	r21, 0x47	; 71
    3266:	0e 94 19 03 	call	0x632	; 0x632 <__gtsf2>
    326a:	18 16       	cp	r1, r24
    326c:	4c f5       	brge	.+82     	; 0x32c0 <LCD_sendCommand+0xe2>
	{
		//	__ticks = requested delay in 1/10 ms
		__ticks = (uint16_t) (__ms * 10.0);
    326e:	6d a9       	ldd	r22, Y+53	; 0x35
    3270:	7e a9       	ldd	r23, Y+54	; 0x36
    3272:	8f a9       	ldd	r24, Y+55	; 0x37
    3274:	98 ad       	ldd	r25, Y+56	; 0x38
    3276:	20 e0       	ldi	r18, 0x00	; 0
    3278:	30 e0       	ldi	r19, 0x00	; 0
    327a:	40 e2       	ldi	r20, 0x20	; 32
    327c:	51 e4       	ldi	r21, 0x41	; 65
    327e:	0e 94 1f 02 	call	0x43e	; 0x43e <__mulsf3>
    3282:	dc 01       	movw	r26, r24
    3284:	cb 01       	movw	r24, r22
    3286:	bc 01       	movw	r22, r24
    3288:	cd 01       	movw	r24, r26
    328a:	0e 94 49 00 	call	0x92	; 0x92 <__fixunssfsi>
    328e:	dc 01       	movw	r26, r24
    3290:	cb 01       	movw	r24, r22
    3292:	98 ab       	std	Y+48, r25	; 0x30
    3294:	8f a7       	std	Y+47, r24	; 0x2f
    3296:	0f c0       	rjmp	.+30     	; 0x32b6 <LCD_sendCommand+0xd8>
    3298:	80 e9       	ldi	r24, 0x90	; 144
    329a:	91 e0       	ldi	r25, 0x01	; 1
    329c:	9e a7       	std	Y+46, r25	; 0x2e
    329e:	8d a7       	std	Y+45, r24	; 0x2d
    milliseconds can be achieved.
 */
void
_delay_loop_2(uint16_t __count)
{
	__asm__ volatile (
    32a0:	8d a5       	ldd	r24, Y+45	; 0x2d
    32a2:	9e a5       	ldd	r25, Y+46	; 0x2e
    32a4:	01 97       	sbiw	r24, 0x01	; 1
    32a6:	f1 f7       	brne	.-4      	; 0x32a4 <LCD_sendCommand+0xc6>
    32a8:	9e a7       	std	Y+46, r25	; 0x2e
    32aa:	8d a7       	std	Y+45, r24	; 0x2d
		while(__ticks)
		{
			// wait 1/10 ms
			_delay_loop_2(((F_CPU) / 4e3) / 10);
			__ticks --;
    32ac:	8f a5       	ldd	r24, Y+47	; 0x2f
    32ae:	98 a9       	ldd	r25, Y+48	; 0x30
    32b0:	01 97       	sbiw	r24, 0x01	; 1
    32b2:	98 ab       	std	Y+48, r25	; 0x30
    32b4:	8f a7       	std	Y+47, r24	; 0x2f
		__ticks = 1;
	else if (__tmp > 65535)
	{
		//	__ticks = requested delay in 1/10 ms
		__ticks = (uint16_t) (__ms * 10.0);
		while(__ticks)
    32b6:	8f a5       	ldd	r24, Y+47	; 0x2f
    32b8:	98 a9       	ldd	r25, Y+48	; 0x30
    32ba:	00 97       	sbiw	r24, 0x00	; 0
    32bc:	69 f7       	brne	.-38     	; 0x3298 <LCD_sendCommand+0xba>
    32be:	14 c0       	rjmp	.+40     	; 0x32e8 <LCD_sendCommand+0x10a>
			__ticks --;
		}
		return;
	}
	else
		__ticks = (uint16_t)__tmp;
    32c0:	69 a9       	ldd	r22, Y+49	; 0x31
    32c2:	7a a9       	ldd	r23, Y+50	; 0x32
    32c4:	8b a9       	ldd	r24, Y+51	; 0x33
    32c6:	9c a9       	ldd	r25, Y+52	; 0x34
    32c8:	0e 94 49 00 	call	0x92	; 0x92 <__fixunssfsi>
    32cc:	dc 01       	movw	r26, r24
    32ce:	cb 01       	movw	r24, r22
    32d0:	98 ab       	std	Y+48, r25	; 0x30
    32d2:	8f a7       	std	Y+47, r24	; 0x2f
    32d4:	8f a5       	ldd	r24, Y+47	; 0x2f
    32d6:	98 a9       	ldd	r25, Y+48	; 0x30
    32d8:	9c a7       	std	Y+44, r25	; 0x2c
    32da:	8b a7       	std	Y+43, r24	; 0x2b
    32dc:	8b a5       	ldd	r24, Y+43	; 0x2b
    32de:	9c a5       	ldd	r25, Y+44	; 0x2c
    32e0:	01 97       	sbiw	r24, 0x01	; 1
    32e2:	f1 f7       	brne	.-4      	; 0x32e0 <LCD_sendCommand+0x102>
    32e4:	9c a7       	std	Y+44, r25	; 0x2c
    32e6:	8b a7       	std	Y+43, r24	; 0x2b
	_delay_ms(1);
	LCD_setPinValue(LCD_E_PORT_ID, LCD_E_PIN_ID, LOGIC_HIGH);
    32e8:	83 e0       	ldi	r24, 0x03	; 3
    32ea:	90 e0       	ldi	r25, 0x00	; 0
    32ec:	65 e0       	ldi	r22, 0x05	; 5
    32ee:	70 e0       	ldi	r23, 0x00	; 0
    32f0:	41 e0       	ldi	r20, 0x01	; 1
    32f2:	50 e0       	ldi	r21, 0x00	; 0
    32f4:	0e 94 6e 0c 	call	0x18dc	; 0x18dc <LCD_setPinValue>
    32f8:	80 e0       	ldi	r24, 0x00	; 0
    32fa:	90 e0       	ldi	r25, 0x00	; 0
    32fc:	a0 e8       	ldi	r26, 0x80	; 128
    32fe:	bf e3       	ldi	r27, 0x3F	; 63
    3300:	8f a3       	std	Y+39, r24	; 0x27
    3302:	98 a7       	std	Y+40, r25	; 0x28
    3304:	a9 a7       	std	Y+41, r26	; 0x29
    3306:	ba a7       	std	Y+42, r27	; 0x2a
 */
void
_delay_ms(double __ms)
{
	uint16_t __ticks;
	double __tmp = ((F_CPU) / 4e3) * __ms;
    3308:	6f a1       	ldd	r22, Y+39	; 0x27
    330a:	78 a5       	ldd	r23, Y+40	; 0x28
    330c:	89 a5       	ldd	r24, Y+41	; 0x29
    330e:	9a a5       	ldd	r25, Y+42	; 0x2a
    3310:	20 e0       	ldi	r18, 0x00	; 0
    3312:	30 e0       	ldi	r19, 0x00	; 0
    3314:	4a e7       	ldi	r20, 0x7A	; 122
    3316:	55 e4       	ldi	r21, 0x45	; 69
    3318:	0e 94 1f 02 	call	0x43e	; 0x43e <__mulsf3>
    331c:	dc 01       	movw	r26, r24
    331e:	cb 01       	movw	r24, r22
    3320:	8b a3       	std	Y+35, r24	; 0x23
    3322:	9c a3       	std	Y+36, r25	; 0x24
    3324:	ad a3       	std	Y+37, r26	; 0x25
    3326:	be a3       	std	Y+38, r27	; 0x26
	if (__tmp < 1.0)
    3328:	6b a1       	ldd	r22, Y+35	; 0x23
    332a:	7c a1       	ldd	r23, Y+36	; 0x24
    332c:	8d a1       	ldd	r24, Y+37	; 0x25
    332e:	9e a1       	ldd	r25, Y+38	; 0x26
    3330:	20 e0       	ldi	r18, 0x00	; 0
    3332:	30 e0       	ldi	r19, 0x00	; 0
    3334:	40 e8       	ldi	r20, 0x80	; 128
    3336:	5f e3       	ldi	r21, 0x3F	; 63
    3338:	0e 94 79 03 	call	0x6f2	; 0x6f2 <__ltsf2>
    333c:	88 23       	and	r24, r24
    333e:	2c f4       	brge	.+10     	; 0x334a <LCD_sendCommand+0x16c>
		__ticks = 1;
    3340:	81 e0       	ldi	r24, 0x01	; 1
    3342:	90 e0       	ldi	r25, 0x00	; 0
    3344:	9a a3       	std	Y+34, r25	; 0x22
    3346:	89 a3       	std	Y+33, r24	; 0x21
    3348:	3f c0       	rjmp	.+126    	; 0x33c8 <LCD_sendCommand+0x1ea>
	else if (__tmp > 65535)
    334a:	6b a1       	ldd	r22, Y+35	; 0x23
    334c:	7c a1       	ldd	r23, Y+36	; 0x24
    334e:	8d a1       	ldd	r24, Y+37	; 0x25
    3350:	9e a1       	ldd	r25, Y+38	; 0x26
    3352:	20 e0       	ldi	r18, 0x00	; 0
    3354:	3f ef       	ldi	r19, 0xFF	; 255
    3356:	4f e7       	ldi	r20, 0x7F	; 127
    3358:	57 e4       	ldi	r21, 0x47	; 71
    335a:	0e 94 19 03 	call	0x632	; 0x632 <__gtsf2>
    335e:	18 16       	cp	r1, r24
    3360:	4c f5       	brge	.+82     	; 0x33b4 <LCD_sendCommand+0x1d6>
	{
		//	__ticks = requested delay in 1/10 ms
		__ticks = (uint16_t) (__ms * 10.0);
    3362:	6f a1       	ldd	r22, Y+39	; 0x27
    3364:	78 a5       	ldd	r23, Y+40	; 0x28
    3366:	89 a5       	ldd	r24, Y+41	; 0x29
    3368:	9a a5       	ldd	r25, Y+42	; 0x2a
    336a:	20 e0       	ldi	r18, 0x00	; 0
    336c:	30 e0       	ldi	r19, 0x00	; 0
    336e:	40 e2       	ldi	r20, 0x20	; 32
    3370:	51 e4       	ldi	r21, 0x41	; 65
    3372:	0e 94 1f 02 	call	0x43e	; 0x43e <__mulsf3>
    3376:	dc 01       	movw	r26, r24
    3378:	cb 01       	movw	r24, r22
    337a:	bc 01       	movw	r22, r24
    337c:	cd 01       	movw	r24, r26
    337e:	0e 94 49 00 	call	0x92	; 0x92 <__fixunssfsi>
    3382:	dc 01       	movw	r26, r24
    3384:	cb 01       	movw	r24, r22
    3386:	9a a3       	std	Y+34, r25	; 0x22
    3388:	89 a3       	std	Y+33, r24	; 0x21
    338a:	0f c0       	rjmp	.+30     	; 0x33aa <LCD_sendCommand+0x1cc>
    338c:	80 e9       	ldi	r24, 0x90	; 144
    338e:	91 e0       	ldi	r25, 0x01	; 1
    3390:	98 a3       	std	Y+32, r25	; 0x20
    3392:	8f 8f       	std	Y+31, r24	; 0x1f
    3394:	8f 8d       	ldd	r24, Y+31	; 0x1f
    3396:	98 a1       	ldd	r25, Y+32	; 0x20
    3398:	01 97       	sbiw	r24, 0x01	; 1
    339a:	f1 f7       	brne	.-4      	; 0x3398 <LCD_sendCommand+0x1ba>
    339c:	98 a3       	std	Y+32, r25	; 0x20
    339e:	8f 8f       	std	Y+31, r24	; 0x1f
		while(__ticks)
		{
			// wait 1/10 ms
			_delay_loop_2(((F_CPU) / 4e3) / 10);
			__ticks --;
    33a0:	89 a1       	ldd	r24, Y+33	; 0x21
    33a2:	9a a1       	ldd	r25, Y+34	; 0x22
    33a4:	01 97       	sbiw	r24, 0x01	; 1
    33a6:	9a a3       	std	Y+34, r25	; 0x22
    33a8:	89 a3       	std	Y+33, r24	; 0x21
		__ticks = 1;
	else if (__tmp > 65535)
	{
		//	__ticks = requested delay in 1/10 ms
		__ticks = (uint16_t) (__ms * 10.0);
		while(__ticks)
    33aa:	89 a1       	ldd	r24, Y+33	; 0x21
    33ac:	9a a1       	ldd	r25, Y+34	; 0x22
    33ae:	00 97       	sbiw	r24, 0x00	; 0
    33b0:	69 f7       	brne	.-38     	; 0x338c <LCD_sendCommand+0x1ae>
    33b2:	14 c0       	rjmp	.+40     	; 0x33dc <LCD_sendCommand+0x1fe>
			__ticks --;
		}
		return;
	}
	else
		__ticks = (uint16_t)__tmp;
    33b4:	6b a1       	ldd	r22, Y+35	; 0x23
    33b6:	7c a1       	ldd	r23, Y+36	; 0x24
    33b8:	8d a1       	ldd	r24, Y+37	; 0x25
    33ba:	9e a1       	ldd	r25, Y+38	; 0x26
    33bc:	0e 94 49 00 	call	0x92	; 0x92 <__fixunssfsi>
    33c0:	dc 01       	movw	r26, r24
    33c2:	cb 01       	movw	r24, r22
    33c4:	9a a3       	std	Y+34, r25	; 0x22
    33c6:	89 a3       	std	Y+33, r24	; 0x21
    33c8:	89 a1       	ldd	r24, Y+33	; 0x21
    33ca:	9a a1       	ldd	r25, Y+34	; 0x22
    33cc:	9e 8f       	std	Y+30, r25	; 0x1e
    33ce:	8d 8f       	std	Y+29, r24	; 0x1d
    33d0:	8d 8d       	ldd	r24, Y+29	; 0x1d
    33d2:	9e 8d       	ldd	r25, Y+30	; 0x1e
    33d4:	01 97       	sbiw	r24, 0x01	; 1
    33d6:	f1 f7       	brne	.-4      	; 0x33d4 <LCD_sendCommand+0x1f6>
    33d8:	9e 8f       	std	Y+30, r25	; 0x1e
    33da:	8d 8f       	std	Y+29, r24	; 0x1d
	_delay_ms(1);
	LCD_setPortValue(LCD_DATA_PORT_ID, command);
    33dc:	89 ad       	ldd	r24, Y+57	; 0x39
    33de:	28 2f       	mov	r18, r24
    33e0:	30 e0       	ldi	r19, 0x00	; 0
    33e2:	82 e0       	ldi	r24, 0x02	; 2
    33e4:	90 e0       	ldi	r25, 0x00	; 0
    33e6:	b9 01       	movw	r22, r18
    33e8:	0e 94 38 0e 	call	0x1c70	; 0x1c70 <LCD_setPortValue>
    33ec:	80 e0       	ldi	r24, 0x00	; 0
    33ee:	90 e0       	ldi	r25, 0x00	; 0
    33f0:	a0 e8       	ldi	r26, 0x80	; 128
    33f2:	bf e3       	ldi	r27, 0x3F	; 63
    33f4:	89 8f       	std	Y+25, r24	; 0x19
    33f6:	9a 8f       	std	Y+26, r25	; 0x1a
    33f8:	ab 8f       	std	Y+27, r26	; 0x1b
    33fa:	bc 8f       	std	Y+28, r27	; 0x1c
 */
void
_delay_ms(double __ms)
{
	uint16_t __ticks;
	double __tmp = ((F_CPU) / 4e3) * __ms;
    33fc:	69 8d       	ldd	r22, Y+25	; 0x19
    33fe:	7a 8d       	ldd	r23, Y+26	; 0x1a
    3400:	8b 8d       	ldd	r24, Y+27	; 0x1b
    3402:	9c 8d       	ldd	r25, Y+28	; 0x1c
    3404:	20 e0       	ldi	r18, 0x00	; 0
    3406:	30 e0       	ldi	r19, 0x00	; 0
    3408:	4a e7       	ldi	r20, 0x7A	; 122
    340a:	55 e4       	ldi	r21, 0x45	; 69
    340c:	0e 94 1f 02 	call	0x43e	; 0x43e <__mulsf3>
    3410:	dc 01       	movw	r26, r24
    3412:	cb 01       	movw	r24, r22
    3414:	8d 8b       	std	Y+21, r24	; 0x15
    3416:	9e 8b       	std	Y+22, r25	; 0x16
    3418:	af 8b       	std	Y+23, r26	; 0x17
    341a:	b8 8f       	std	Y+24, r27	; 0x18
	if (__tmp < 1.0)
    341c:	6d 89       	ldd	r22, Y+21	; 0x15
    341e:	7e 89       	ldd	r23, Y+22	; 0x16
    3420:	8f 89       	ldd	r24, Y+23	; 0x17
    3422:	98 8d       	ldd	r25, Y+24	; 0x18
    3424:	20 e0       	ldi	r18, 0x00	; 0
    3426:	30 e0       	ldi	r19, 0x00	; 0
    3428:	40 e8       	ldi	r20, 0x80	; 128
    342a:	5f e3       	ldi	r21, 0x3F	; 63
    342c:	0e 94 79 03 	call	0x6f2	; 0x6f2 <__ltsf2>
    3430:	88 23       	and	r24, r24
    3432:	2c f4       	brge	.+10     	; 0x343e <LCD_sendCommand+0x260>
		__ticks = 1;
    3434:	81 e0       	ldi	r24, 0x01	; 1
    3436:	90 e0       	ldi	r25, 0x00	; 0
    3438:	9c 8b       	std	Y+20, r25	; 0x14
    343a:	8b 8b       	std	Y+19, r24	; 0x13
    343c:	3f c0       	rjmp	.+126    	; 0x34bc <LCD_sendCommand+0x2de>
	else if (__tmp > 65535)
    343e:	6d 89       	ldd	r22, Y+21	; 0x15
    3440:	7e 89       	ldd	r23, Y+22	; 0x16
    3442:	8f 89       	ldd	r24, Y+23	; 0x17
    3444:	98 8d       	ldd	r25, Y+24	; 0x18
    3446:	20 e0       	ldi	r18, 0x00	; 0
    3448:	3f ef       	ldi	r19, 0xFF	; 255
    344a:	4f e7       	ldi	r20, 0x7F	; 127
    344c:	57 e4       	ldi	r21, 0x47	; 71
    344e:	0e 94 19 03 	call	0x632	; 0x632 <__gtsf2>
    3452:	18 16       	cp	r1, r24
    3454:	4c f5       	brge	.+82     	; 0x34a8 <LCD_sendCommand+0x2ca>
	{
		//	__ticks = requested delay in 1/10 ms
		__ticks = (uint16_t) (__ms * 10.0);
    3456:	69 8d       	ldd	r22, Y+25	; 0x19
    3458:	7a 8d       	ldd	r23, Y+26	; 0x1a
    345a:	8b 8d       	ldd	r24, Y+27	; 0x1b
    345c:	9c 8d       	ldd	r25, Y+28	; 0x1c
    345e:	20 e0       	ldi	r18, 0x00	; 0
    3460:	30 e0       	ldi	r19, 0x00	; 0
    3462:	40 e2       	ldi	r20, 0x20	; 32
    3464:	51 e4       	ldi	r21, 0x41	; 65
    3466:	0e 94 1f 02 	call	0x43e	; 0x43e <__mulsf3>
    346a:	dc 01       	movw	r26, r24
    346c:	cb 01       	movw	r24, r22
    346e:	bc 01       	movw	r22, r24
    3470:	cd 01       	movw	r24, r26
    3472:	0e 94 49 00 	call	0x92	; 0x92 <__fixunssfsi>
    3476:	dc 01       	movw	r26, r24
    3478:	cb 01       	movw	r24, r22
    347a:	9c 8b       	std	Y+20, r25	; 0x14
    347c:	8b 8b       	std	Y+19, r24	; 0x13
    347e:	0f c0       	rjmp	.+30     	; 0x349e <LCD_sendCommand+0x2c0>
    3480:	80 e9       	ldi	r24, 0x90	; 144
    3482:	91 e0       	ldi	r25, 0x01	; 1
    3484:	9a 8b       	std	Y+18, r25	; 0x12
    3486:	89 8b       	std	Y+17, r24	; 0x11
    3488:	89 89       	ldd	r24, Y+17	; 0x11
    348a:	9a 89       	ldd	r25, Y+18	; 0x12
    348c:	01 97       	sbiw	r24, 0x01	; 1
    348e:	f1 f7       	brne	.-4      	; 0x348c <LCD_sendCommand+0x2ae>
    3490:	9a 8b       	std	Y+18, r25	; 0x12
    3492:	89 8b       	std	Y+17, r24	; 0x11
		while(__ticks)
		{
			// wait 1/10 ms
			_delay_loop_2(((F_CPU) / 4e3) / 10);
			__ticks --;
    3494:	8b 89       	ldd	r24, Y+19	; 0x13
    3496:	9c 89       	ldd	r25, Y+20	; 0x14
    3498:	01 97       	sbiw	r24, 0x01	; 1
    349a:	9c 8b       	std	Y+20, r25	; 0x14
    349c:	8b 8b       	std	Y+19, r24	; 0x13
		__ticks = 1;
	else if (__tmp > 65535)
	{
		//	__ticks = requested delay in 1/10 ms
		__ticks = (uint16_t) (__ms * 10.0);
		while(__ticks)
    349e:	8b 89       	ldd	r24, Y+19	; 0x13
    34a0:	9c 89       	ldd	r25, Y+20	; 0x14
    34a2:	00 97       	sbiw	r24, 0x00	; 0
    34a4:	69 f7       	brne	.-38     	; 0x3480 <LCD_sendCommand+0x2a2>
    34a6:	14 c0       	rjmp	.+40     	; 0x34d0 <LCD_sendCommand+0x2f2>
			__ticks --;
		}
		return;
	}
	else
		__ticks = (uint16_t)__tmp;
    34a8:	6d 89       	ldd	r22, Y+21	; 0x15
    34aa:	7e 89       	ldd	r23, Y+22	; 0x16
    34ac:	8f 89       	ldd	r24, Y+23	; 0x17
    34ae:	98 8d       	ldd	r25, Y+24	; 0x18
    34b0:	0e 94 49 00 	call	0x92	; 0x92 <__fixunssfsi>
    34b4:	dc 01       	movw	r26, r24
    34b6:	cb 01       	movw	r24, r22
    34b8:	9c 8b       	std	Y+20, r25	; 0x14
    34ba:	8b 8b       	std	Y+19, r24	; 0x13
    34bc:	8b 89       	ldd	r24, Y+19	; 0x13
    34be:	9c 89       	ldd	r25, Y+20	; 0x14
    34c0:	98 8b       	std	Y+16, r25	; 0x10
    34c2:	8f 87       	std	Y+15, r24	; 0x0f
    34c4:	8f 85       	ldd	r24, Y+15	; 0x0f
    34c6:	98 89       	ldd	r25, Y+16	; 0x10
    34c8:	01 97       	sbiw	r24, 0x01	; 1
    34ca:	f1 f7       	brne	.-4      	; 0x34c8 <LCD_sendCommand+0x2ea>
    34cc:	98 8b       	std	Y+16, r25	; 0x10
    34ce:	8f 87       	std	Y+15, r24	; 0x0f
	_delay_ms(1);
	LCD_setPinValue(LCD_E_PORT_ID, LCD_E_PIN_ID, LOGIC_LOW);
    34d0:	83 e0       	ldi	r24, 0x03	; 3
    34d2:	90 e0       	ldi	r25, 0x00	; 0
    34d4:	65 e0       	ldi	r22, 0x05	; 5
    34d6:	70 e0       	ldi	r23, 0x00	; 0
    34d8:	40 e0       	ldi	r20, 0x00	; 0
    34da:	50 e0       	ldi	r21, 0x00	; 0
    34dc:	0e 94 6e 0c 	call	0x18dc	; 0x18dc <LCD_setPinValue>
    34e0:	80 e0       	ldi	r24, 0x00	; 0
    34e2:	90 e0       	ldi	r25, 0x00	; 0
    34e4:	a0 e8       	ldi	r26, 0x80	; 128
    34e6:	bf e3       	ldi	r27, 0x3F	; 63
    34e8:	8b 87       	std	Y+11, r24	; 0x0b
    34ea:	9c 87       	std	Y+12, r25	; 0x0c
    34ec:	ad 87       	std	Y+13, r26	; 0x0d
    34ee:	be 87       	std	Y+14, r27	; 0x0e
 */
void
_delay_ms(double __ms)
{
	uint16_t __ticks;
	double __tmp = ((F_CPU) / 4e3) * __ms;
    34f0:	6b 85       	ldd	r22, Y+11	; 0x0b
    34f2:	7c 85       	ldd	r23, Y+12	; 0x0c
    34f4:	8d 85       	ldd	r24, Y+13	; 0x0d
    34f6:	9e 85       	ldd	r25, Y+14	; 0x0e
    34f8:	20 e0       	ldi	r18, 0x00	; 0
    34fa:	30 e0       	ldi	r19, 0x00	; 0
    34fc:	4a e7       	ldi	r20, 0x7A	; 122
    34fe:	55 e4       	ldi	r21, 0x45	; 69
    3500:	0e 94 1f 02 	call	0x43e	; 0x43e <__mulsf3>
    3504:	dc 01       	movw	r26, r24
    3506:	cb 01       	movw	r24, r22
    3508:	8f 83       	std	Y+7, r24	; 0x07
    350a:	98 87       	std	Y+8, r25	; 0x08
    350c:	a9 87       	std	Y+9, r26	; 0x09
    350e:	ba 87       	std	Y+10, r27	; 0x0a
	if (__tmp < 1.0)
    3510:	6f 81       	ldd	r22, Y+7	; 0x07
    3512:	78 85       	ldd	r23, Y+8	; 0x08
    3514:	89 85       	ldd	r24, Y+9	; 0x09
    3516:	9a 85       	ldd	r25, Y+10	; 0x0a
    3518:	20 e0       	ldi	r18, 0x00	; 0
    351a:	30 e0       	ldi	r19, 0x00	; 0
    351c:	40 e8       	ldi	r20, 0x80	; 128
    351e:	5f e3       	ldi	r21, 0x3F	; 63
    3520:	0e 94 79 03 	call	0x6f2	; 0x6f2 <__ltsf2>
    3524:	88 23       	and	r24, r24
    3526:	2c f4       	brge	.+10     	; 0x3532 <LCD_sendCommand+0x354>
		__ticks = 1;
    3528:	81 e0       	ldi	r24, 0x01	; 1
    352a:	90 e0       	ldi	r25, 0x00	; 0
    352c:	9e 83       	std	Y+6, r25	; 0x06
    352e:	8d 83       	std	Y+5, r24	; 0x05
    3530:	3f c0       	rjmp	.+126    	; 0x35b0 <LCD_sendCommand+0x3d2>
	else if (__tmp > 65535)
    3532:	6f 81       	ldd	r22, Y+7	; 0x07
    3534:	78 85       	ldd	r23, Y+8	; 0x08
    3536:	89 85       	ldd	r24, Y+9	; 0x09
    3538:	9a 85       	ldd	r25, Y+10	; 0x0a
    353a:	20 e0       	ldi	r18, 0x00	; 0
    353c:	3f ef       	ldi	r19, 0xFF	; 255
    353e:	4f e7       	ldi	r20, 0x7F	; 127
    3540:	57 e4       	ldi	r21, 0x47	; 71
    3542:	0e 94 19 03 	call	0x632	; 0x632 <__gtsf2>
    3546:	18 16       	cp	r1, r24
    3548:	4c f5       	brge	.+82     	; 0x359c <LCD_sendCommand+0x3be>
	{
		//	__ticks = requested delay in 1/10 ms
		__ticks = (uint16_t) (__ms * 10.0);
    354a:	6b 85       	ldd	r22, Y+11	; 0x0b
    354c:	7c 85       	ldd	r23, Y+12	; 0x0c
    354e:	8d 85       	ldd	r24, Y+13	; 0x0d
    3550:	9e 85       	ldd	r25, Y+14	; 0x0e
    3552:	20 e0       	ldi	r18, 0x00	; 0
    3554:	30 e0       	ldi	r19, 0x00	; 0
    3556:	40 e2       	ldi	r20, 0x20	; 32
    3558:	51 e4       	ldi	r21, 0x41	; 65
    355a:	0e 94 1f 02 	call	0x43e	; 0x43e <__mulsf3>
    355e:	dc 01       	movw	r26, r24
    3560:	cb 01       	movw	r24, r22
    3562:	bc 01       	movw	r22, r24
    3564:	cd 01       	movw	r24, r26
    3566:	0e 94 49 00 	call	0x92	; 0x92 <__fixunssfsi>
    356a:	dc 01       	movw	r26, r24
    356c:	cb 01       	movw	r24, r22
    356e:	9e 83       	std	Y+6, r25	; 0x06
    3570:	8d 83       	std	Y+5, r24	; 0x05
    3572:	0f c0       	rjmp	.+30     	; 0x3592 <LCD_sendCommand+0x3b4>
    3574:	80 e9       	ldi	r24, 0x90	; 144
    3576:	91 e0       	ldi	r25, 0x01	; 1
    3578:	9c 83       	std	Y+4, r25	; 0x04
    357a:	8b 83       	std	Y+3, r24	; 0x03
    357c:	8b 81       	ldd	r24, Y+3	; 0x03
    357e:	9c 81       	ldd	r25, Y+4	; 0x04
    3580:	01 97       	sbiw	r24, 0x01	; 1
    3582:	f1 f7       	brne	.-4      	; 0x3580 <LCD_sendCommand+0x3a2>
    3584:	9c 83       	std	Y+4, r25	; 0x04
    3586:	8b 83       	std	Y+3, r24	; 0x03
		while(__ticks)
		{
			// wait 1/10 ms
			_delay_loop_2(((F_CPU) / 4e3) / 10);
			__ticks --;
    3588:	8d 81       	ldd	r24, Y+5	; 0x05
    358a:	9e 81       	ldd	r25, Y+6	; 0x06
    358c:	01 97       	sbiw	r24, 0x01	; 1
    358e:	9e 83       	std	Y+6, r25	; 0x06
    3590:	8d 83       	std	Y+5, r24	; 0x05
		__ticks = 1;
	else if (__tmp > 65535)
	{
		//	__ticks = requested delay in 1/10 ms
		__ticks = (uint16_t) (__ms * 10.0);
		while(__ticks)
    3592:	8d 81       	ldd	r24, Y+5	; 0x05
    3594:	9e 81       	ldd	r25, Y+6	; 0x06
    3596:	00 97       	sbiw	r24, 0x00	; 0
    3598:	69 f7       	brne	.-38     	; 0x3574 <LCD_sendCommand+0x396>
    359a:	14 c0       	rjmp	.+40     	; 0x35c4 <LCD_sendCommand+0x3e6>
			__ticks --;
		}
		return;
	}
	else
		__ticks = (uint16_t)__tmp;
    359c:	6f 81       	ldd	r22, Y+7	; 0x07
    359e:	78 85       	ldd	r23, Y+8	; 0x08
    35a0:	89 85       	ldd	r24, Y+9	; 0x09
    35a2:	9a 85       	ldd	r25, Y+10	; 0x0a
    35a4:	0e 94 49 00 	call	0x92	; 0x92 <__fixunssfsi>
    35a8:	dc 01       	movw	r26, r24
    35aa:	cb 01       	movw	r24, r22
    35ac:	9e 83       	std	Y+6, r25	; 0x06
    35ae:	8d 83       	std	Y+5, r24	; 0x05
    35b0:	8d 81       	ldd	r24, Y+5	; 0x05
    35b2:	9e 81       	ldd	r25, Y+6	; 0x06
    35b4:	9a 83       	std	Y+2, r25	; 0x02
    35b6:	89 83       	std	Y+1, r24	; 0x01
    35b8:	89 81       	ldd	r24, Y+1	; 0x01
    35ba:	9a 81       	ldd	r25, Y+2	; 0x02
    35bc:	01 97       	sbiw	r24, 0x01	; 1
    35be:	f1 f7       	brne	.-4      	; 0x35bc <LCD_sendCommand+0x3de>
    35c0:	9a 83       	std	Y+2, r25	; 0x02
    35c2:	89 83       	std	Y+1, r24	; 0x01
	_delay_ms(1);
}
    35c4:	e9 96       	adiw	r28, 0x39	; 57
    35c6:	0f b6       	in	r0, 0x3f	; 63
    35c8:	f8 94       	cli
    35ca:	de bf       	out	0x3e, r29	; 62
    35cc:	0f be       	out	0x3f, r0	; 63
    35ce:	cd bf       	out	0x3d, r28	; 61
    35d0:	cf 91       	pop	r28
    35d2:	df 91       	pop	r29
    35d4:	08 95       	ret

000035d6 <LCD_displayCharacter>:

void LCD_displayCharacter(u8 data)
{
    35d6:	df 93       	push	r29
    35d8:	cf 93       	push	r28
    35da:	cd b7       	in	r28, 0x3d	; 61
    35dc:	de b7       	in	r29, 0x3e	; 62
    35de:	e9 97       	sbiw	r28, 0x39	; 57
    35e0:	0f b6       	in	r0, 0x3f	; 63
    35e2:	f8 94       	cli
    35e4:	de bf       	out	0x3e, r29	; 62
    35e6:	0f be       	out	0x3f, r0	; 63
    35e8:	cd bf       	out	0x3d, r28	; 61
    35ea:	89 af       	std	Y+57, r24	; 0x39
	LCD_setPinValue(LCD_RS_PORT_ID, LCD_RS_PIN_ID, LOGIC_HIGH);
    35ec:	83 e0       	ldi	r24, 0x03	; 3
    35ee:	90 e0       	ldi	r25, 0x00	; 0
    35f0:	64 e0       	ldi	r22, 0x04	; 4
    35f2:	70 e0       	ldi	r23, 0x00	; 0
    35f4:	41 e0       	ldi	r20, 0x01	; 1
    35f6:	50 e0       	ldi	r21, 0x00	; 0
    35f8:	0e 94 6e 0c 	call	0x18dc	; 0x18dc <LCD_setPinValue>
    35fc:	80 e0       	ldi	r24, 0x00	; 0
    35fe:	90 e0       	ldi	r25, 0x00	; 0
    3600:	a0 e8       	ldi	r26, 0x80	; 128
    3602:	bf e3       	ldi	r27, 0x3F	; 63
    3604:	8d ab       	std	Y+53, r24	; 0x35
    3606:	9e ab       	std	Y+54, r25	; 0x36
    3608:	af ab       	std	Y+55, r26	; 0x37
    360a:	b8 af       	std	Y+56, r27	; 0x38
 */
void
_delay_ms(double __ms)
{
	uint16_t __ticks;
	double __tmp = ((F_CPU) / 4e3) * __ms;
    360c:	6d a9       	ldd	r22, Y+53	; 0x35
    360e:	7e a9       	ldd	r23, Y+54	; 0x36
    3610:	8f a9       	ldd	r24, Y+55	; 0x37
    3612:	98 ad       	ldd	r25, Y+56	; 0x38
    3614:	20 e0       	ldi	r18, 0x00	; 0
    3616:	30 e0       	ldi	r19, 0x00	; 0
    3618:	4a e7       	ldi	r20, 0x7A	; 122
    361a:	55 e4       	ldi	r21, 0x45	; 69
    361c:	0e 94 1f 02 	call	0x43e	; 0x43e <__mulsf3>
    3620:	dc 01       	movw	r26, r24
    3622:	cb 01       	movw	r24, r22
    3624:	89 ab       	std	Y+49, r24	; 0x31
    3626:	9a ab       	std	Y+50, r25	; 0x32
    3628:	ab ab       	std	Y+51, r26	; 0x33
    362a:	bc ab       	std	Y+52, r27	; 0x34
	if (__tmp < 1.0)
    362c:	69 a9       	ldd	r22, Y+49	; 0x31
    362e:	7a a9       	ldd	r23, Y+50	; 0x32
    3630:	8b a9       	ldd	r24, Y+51	; 0x33
    3632:	9c a9       	ldd	r25, Y+52	; 0x34
    3634:	20 e0       	ldi	r18, 0x00	; 0
    3636:	30 e0       	ldi	r19, 0x00	; 0
    3638:	40 e8       	ldi	r20, 0x80	; 128
    363a:	5f e3       	ldi	r21, 0x3F	; 63
    363c:	0e 94 79 03 	call	0x6f2	; 0x6f2 <__ltsf2>
    3640:	88 23       	and	r24, r24
    3642:	2c f4       	brge	.+10     	; 0x364e <LCD_displayCharacter+0x78>
		__ticks = 1;
    3644:	81 e0       	ldi	r24, 0x01	; 1
    3646:	90 e0       	ldi	r25, 0x00	; 0
    3648:	98 ab       	std	Y+48, r25	; 0x30
    364a:	8f a7       	std	Y+47, r24	; 0x2f
    364c:	3f c0       	rjmp	.+126    	; 0x36cc <LCD_displayCharacter+0xf6>
	else if (__tmp > 65535)
    364e:	69 a9       	ldd	r22, Y+49	; 0x31
    3650:	7a a9       	ldd	r23, Y+50	; 0x32
    3652:	8b a9       	ldd	r24, Y+51	; 0x33
    3654:	9c a9       	ldd	r25, Y+52	; 0x34
    3656:	20 e0       	ldi	r18, 0x00	; 0
    3658:	3f ef       	ldi	r19, 0xFF	; 255
    365a:	4f e7       	ldi	r20, 0x7F	; 127
    365c:	57 e4       	ldi	r21, 0x47	; 71
    365e:	0e 94 19 03 	call	0x632	; 0x632 <__gtsf2>
    3662:	18 16       	cp	r1, r24
    3664:	4c f5       	brge	.+82     	; 0x36b8 <LCD_displayCharacter+0xe2>
	{
		//	__ticks = requested delay in 1/10 ms
		__ticks = (uint16_t) (__ms * 10.0);
    3666:	6d a9       	ldd	r22, Y+53	; 0x35
    3668:	7e a9       	ldd	r23, Y+54	; 0x36
    366a:	8f a9       	ldd	r24, Y+55	; 0x37
    366c:	98 ad       	ldd	r25, Y+56	; 0x38
    366e:	20 e0       	ldi	r18, 0x00	; 0
    3670:	30 e0       	ldi	r19, 0x00	; 0
    3672:	40 e2       	ldi	r20, 0x20	; 32
    3674:	51 e4       	ldi	r21, 0x41	; 65
    3676:	0e 94 1f 02 	call	0x43e	; 0x43e <__mulsf3>
    367a:	dc 01       	movw	r26, r24
    367c:	cb 01       	movw	r24, r22
    367e:	bc 01       	movw	r22, r24
    3680:	cd 01       	movw	r24, r26
    3682:	0e 94 49 00 	call	0x92	; 0x92 <__fixunssfsi>
    3686:	dc 01       	movw	r26, r24
    3688:	cb 01       	movw	r24, r22
    368a:	98 ab       	std	Y+48, r25	; 0x30
    368c:	8f a7       	std	Y+47, r24	; 0x2f
    368e:	0f c0       	rjmp	.+30     	; 0x36ae <LCD_displayCharacter+0xd8>
    3690:	80 e9       	ldi	r24, 0x90	; 144
    3692:	91 e0       	ldi	r25, 0x01	; 1
    3694:	9e a7       	std	Y+46, r25	; 0x2e
    3696:	8d a7       	std	Y+45, r24	; 0x2d
    3698:	8d a5       	ldd	r24, Y+45	; 0x2d
    369a:	9e a5       	ldd	r25, Y+46	; 0x2e
    369c:	01 97       	sbiw	r24, 0x01	; 1
    369e:	f1 f7       	brne	.-4      	; 0x369c <LCD_displayCharacter+0xc6>
    36a0:	9e a7       	std	Y+46, r25	; 0x2e
    36a2:	8d a7       	std	Y+45, r24	; 0x2d
		while(__ticks)
		{
			// wait 1/10 ms
			_delay_loop_2(((F_CPU) / 4e3) / 10);
			__ticks --;
    36a4:	8f a5       	ldd	r24, Y+47	; 0x2f
    36a6:	98 a9       	ldd	r25, Y+48	; 0x30
    36a8:	01 97       	sbiw	r24, 0x01	; 1
    36aa:	98 ab       	std	Y+48, r25	; 0x30
    36ac:	8f a7       	std	Y+47, r24	; 0x2f
		__ticks = 1;
	else if (__tmp > 65535)
	{
		//	__ticks = requested delay in 1/10 ms
		__ticks = (uint16_t) (__ms * 10.0);
		while(__ticks)
    36ae:	8f a5       	ldd	r24, Y+47	; 0x2f
    36b0:	98 a9       	ldd	r25, Y+48	; 0x30
    36b2:	00 97       	sbiw	r24, 0x00	; 0
    36b4:	69 f7       	brne	.-38     	; 0x3690 <LCD_displayCharacter+0xba>
    36b6:	14 c0       	rjmp	.+40     	; 0x36e0 <LCD_displayCharacter+0x10a>
			__ticks --;
		}
		return;
	}
	else
		__ticks = (uint16_t)__tmp;
    36b8:	69 a9       	ldd	r22, Y+49	; 0x31
    36ba:	7a a9       	ldd	r23, Y+50	; 0x32
    36bc:	8b a9       	ldd	r24, Y+51	; 0x33
    36be:	9c a9       	ldd	r25, Y+52	; 0x34
    36c0:	0e 94 49 00 	call	0x92	; 0x92 <__fixunssfsi>
    36c4:	dc 01       	movw	r26, r24
    36c6:	cb 01       	movw	r24, r22
    36c8:	98 ab       	std	Y+48, r25	; 0x30
    36ca:	8f a7       	std	Y+47, r24	; 0x2f
    36cc:	8f a5       	ldd	r24, Y+47	; 0x2f
    36ce:	98 a9       	ldd	r25, Y+48	; 0x30
    36d0:	9c a7       	std	Y+44, r25	; 0x2c
    36d2:	8b a7       	std	Y+43, r24	; 0x2b
    36d4:	8b a5       	ldd	r24, Y+43	; 0x2b
    36d6:	9c a5       	ldd	r25, Y+44	; 0x2c
    36d8:	01 97       	sbiw	r24, 0x01	; 1
    36da:	f1 f7       	brne	.-4      	; 0x36d8 <LCD_displayCharacter+0x102>
    36dc:	9c a7       	std	Y+44, r25	; 0x2c
    36de:	8b a7       	std	Y+43, r24	; 0x2b
	_delay_ms(1);
	LCD_setPinValue(LCD_E_PORT_ID, LCD_E_PIN_ID, LOGIC_HIGH);
    36e0:	83 e0       	ldi	r24, 0x03	; 3
    36e2:	90 e0       	ldi	r25, 0x00	; 0
    36e4:	65 e0       	ldi	r22, 0x05	; 5
    36e6:	70 e0       	ldi	r23, 0x00	; 0
    36e8:	41 e0       	ldi	r20, 0x01	; 1
    36ea:	50 e0       	ldi	r21, 0x00	; 0
    36ec:	0e 94 6e 0c 	call	0x18dc	; 0x18dc <LCD_setPinValue>
    36f0:	80 e0       	ldi	r24, 0x00	; 0
    36f2:	90 e0       	ldi	r25, 0x00	; 0
    36f4:	a0 e8       	ldi	r26, 0x80	; 128
    36f6:	bf e3       	ldi	r27, 0x3F	; 63
    36f8:	8f a3       	std	Y+39, r24	; 0x27
    36fa:	98 a7       	std	Y+40, r25	; 0x28
    36fc:	a9 a7       	std	Y+41, r26	; 0x29
    36fe:	ba a7       	std	Y+42, r27	; 0x2a
 */
void
_delay_ms(double __ms)
{
	uint16_t __ticks;
	double __tmp = ((F_CPU) / 4e3) * __ms;
    3700:	6f a1       	ldd	r22, Y+39	; 0x27
    3702:	78 a5       	ldd	r23, Y+40	; 0x28
    3704:	89 a5       	ldd	r24, Y+41	; 0x29
    3706:	9a a5       	ldd	r25, Y+42	; 0x2a
    3708:	20 e0       	ldi	r18, 0x00	; 0
    370a:	30 e0       	ldi	r19, 0x00	; 0
    370c:	4a e7       	ldi	r20, 0x7A	; 122
    370e:	55 e4       	ldi	r21, 0x45	; 69
    3710:	0e 94 1f 02 	call	0x43e	; 0x43e <__mulsf3>
    3714:	dc 01       	movw	r26, r24
    3716:	cb 01       	movw	r24, r22
    3718:	8b a3       	std	Y+35, r24	; 0x23
    371a:	9c a3       	std	Y+36, r25	; 0x24
    371c:	ad a3       	std	Y+37, r26	; 0x25
    371e:	be a3       	std	Y+38, r27	; 0x26
	if (__tmp < 1.0)
    3720:	6b a1       	ldd	r22, Y+35	; 0x23
    3722:	7c a1       	ldd	r23, Y+36	; 0x24
    3724:	8d a1       	ldd	r24, Y+37	; 0x25
    3726:	9e a1       	ldd	r25, Y+38	; 0x26
    3728:	20 e0       	ldi	r18, 0x00	; 0
    372a:	30 e0       	ldi	r19, 0x00	; 0
    372c:	40 e8       	ldi	r20, 0x80	; 128
    372e:	5f e3       	ldi	r21, 0x3F	; 63
    3730:	0e 94 79 03 	call	0x6f2	; 0x6f2 <__ltsf2>
    3734:	88 23       	and	r24, r24
    3736:	2c f4       	brge	.+10     	; 0x3742 <LCD_displayCharacter+0x16c>
		__ticks = 1;
    3738:	81 e0       	ldi	r24, 0x01	; 1
    373a:	90 e0       	ldi	r25, 0x00	; 0
    373c:	9a a3       	std	Y+34, r25	; 0x22
    373e:	89 a3       	std	Y+33, r24	; 0x21
    3740:	3f c0       	rjmp	.+126    	; 0x37c0 <LCD_displayCharacter+0x1ea>
	else if (__tmp > 65535)
    3742:	6b a1       	ldd	r22, Y+35	; 0x23
    3744:	7c a1       	ldd	r23, Y+36	; 0x24
    3746:	8d a1       	ldd	r24, Y+37	; 0x25
    3748:	9e a1       	ldd	r25, Y+38	; 0x26
    374a:	20 e0       	ldi	r18, 0x00	; 0
    374c:	3f ef       	ldi	r19, 0xFF	; 255
    374e:	4f e7       	ldi	r20, 0x7F	; 127
    3750:	57 e4       	ldi	r21, 0x47	; 71
    3752:	0e 94 19 03 	call	0x632	; 0x632 <__gtsf2>
    3756:	18 16       	cp	r1, r24
    3758:	4c f5       	brge	.+82     	; 0x37ac <LCD_displayCharacter+0x1d6>
	{
		//	__ticks = requested delay in 1/10 ms
		__ticks = (uint16_t) (__ms * 10.0);
    375a:	6f a1       	ldd	r22, Y+39	; 0x27
    375c:	78 a5       	ldd	r23, Y+40	; 0x28
    375e:	89 a5       	ldd	r24, Y+41	; 0x29
    3760:	9a a5       	ldd	r25, Y+42	; 0x2a
    3762:	20 e0       	ldi	r18, 0x00	; 0
    3764:	30 e0       	ldi	r19, 0x00	; 0
    3766:	40 e2       	ldi	r20, 0x20	; 32
    3768:	51 e4       	ldi	r21, 0x41	; 65
    376a:	0e 94 1f 02 	call	0x43e	; 0x43e <__mulsf3>
    376e:	dc 01       	movw	r26, r24
    3770:	cb 01       	movw	r24, r22
    3772:	bc 01       	movw	r22, r24
    3774:	cd 01       	movw	r24, r26
    3776:	0e 94 49 00 	call	0x92	; 0x92 <__fixunssfsi>
    377a:	dc 01       	movw	r26, r24
    377c:	cb 01       	movw	r24, r22
    377e:	9a a3       	std	Y+34, r25	; 0x22
    3780:	89 a3       	std	Y+33, r24	; 0x21
    3782:	0f c0       	rjmp	.+30     	; 0x37a2 <LCD_displayCharacter+0x1cc>
    3784:	80 e9       	ldi	r24, 0x90	; 144
    3786:	91 e0       	ldi	r25, 0x01	; 1
    3788:	98 a3       	std	Y+32, r25	; 0x20
    378a:	8f 8f       	std	Y+31, r24	; 0x1f
    378c:	8f 8d       	ldd	r24, Y+31	; 0x1f
    378e:	98 a1       	ldd	r25, Y+32	; 0x20
    3790:	01 97       	sbiw	r24, 0x01	; 1
    3792:	f1 f7       	brne	.-4      	; 0x3790 <LCD_displayCharacter+0x1ba>
    3794:	98 a3       	std	Y+32, r25	; 0x20
    3796:	8f 8f       	std	Y+31, r24	; 0x1f
		while(__ticks)
		{
			// wait 1/10 ms
			_delay_loop_2(((F_CPU) / 4e3) / 10);
			__ticks --;
    3798:	89 a1       	ldd	r24, Y+33	; 0x21
    379a:	9a a1       	ldd	r25, Y+34	; 0x22
    379c:	01 97       	sbiw	r24, 0x01	; 1
    379e:	9a a3       	std	Y+34, r25	; 0x22
    37a0:	89 a3       	std	Y+33, r24	; 0x21
		__ticks = 1;
	else if (__tmp > 65535)
	{
		//	__ticks = requested delay in 1/10 ms
		__ticks = (uint16_t) (__ms * 10.0);
		while(__ticks)
    37a2:	89 a1       	ldd	r24, Y+33	; 0x21
    37a4:	9a a1       	ldd	r25, Y+34	; 0x22
    37a6:	00 97       	sbiw	r24, 0x00	; 0
    37a8:	69 f7       	brne	.-38     	; 0x3784 <LCD_displayCharacter+0x1ae>
    37aa:	14 c0       	rjmp	.+40     	; 0x37d4 <LCD_displayCharacter+0x1fe>
			__ticks --;
		}
		return;
	}
	else
		__ticks = (uint16_t)__tmp;
    37ac:	6b a1       	ldd	r22, Y+35	; 0x23
    37ae:	7c a1       	ldd	r23, Y+36	; 0x24
    37b0:	8d a1       	ldd	r24, Y+37	; 0x25
    37b2:	9e a1       	ldd	r25, Y+38	; 0x26
    37b4:	0e 94 49 00 	call	0x92	; 0x92 <__fixunssfsi>
    37b8:	dc 01       	movw	r26, r24
    37ba:	cb 01       	movw	r24, r22
    37bc:	9a a3       	std	Y+34, r25	; 0x22
    37be:	89 a3       	std	Y+33, r24	; 0x21
    37c0:	89 a1       	ldd	r24, Y+33	; 0x21
    37c2:	9a a1       	ldd	r25, Y+34	; 0x22
    37c4:	9e 8f       	std	Y+30, r25	; 0x1e
    37c6:	8d 8f       	std	Y+29, r24	; 0x1d
    37c8:	8d 8d       	ldd	r24, Y+29	; 0x1d
    37ca:	9e 8d       	ldd	r25, Y+30	; 0x1e
    37cc:	01 97       	sbiw	r24, 0x01	; 1
    37ce:	f1 f7       	brne	.-4      	; 0x37cc <LCD_displayCharacter+0x1f6>
    37d0:	9e 8f       	std	Y+30, r25	; 0x1e
    37d2:	8d 8f       	std	Y+29, r24	; 0x1d
	_delay_ms(1);
	LCD_setPortValue(LCD_DATA_PORT_ID, data);
    37d4:	89 ad       	ldd	r24, Y+57	; 0x39
    37d6:	28 2f       	mov	r18, r24
    37d8:	30 e0       	ldi	r19, 0x00	; 0
    37da:	82 e0       	ldi	r24, 0x02	; 2
    37dc:	90 e0       	ldi	r25, 0x00	; 0
    37de:	b9 01       	movw	r22, r18
    37e0:	0e 94 38 0e 	call	0x1c70	; 0x1c70 <LCD_setPortValue>
    37e4:	80 e0       	ldi	r24, 0x00	; 0
    37e6:	90 e0       	ldi	r25, 0x00	; 0
    37e8:	a0 e8       	ldi	r26, 0x80	; 128
    37ea:	bf e3       	ldi	r27, 0x3F	; 63
    37ec:	89 8f       	std	Y+25, r24	; 0x19
    37ee:	9a 8f       	std	Y+26, r25	; 0x1a
    37f0:	ab 8f       	std	Y+27, r26	; 0x1b
    37f2:	bc 8f       	std	Y+28, r27	; 0x1c
 */
void
_delay_ms(double __ms)
{
	uint16_t __ticks;
	double __tmp = ((F_CPU) / 4e3) * __ms;
    37f4:	69 8d       	ldd	r22, Y+25	; 0x19
    37f6:	7a 8d       	ldd	r23, Y+26	; 0x1a
    37f8:	8b 8d       	ldd	r24, Y+27	; 0x1b
    37fa:	9c 8d       	ldd	r25, Y+28	; 0x1c
    37fc:	20 e0       	ldi	r18, 0x00	; 0
    37fe:	30 e0       	ldi	r19, 0x00	; 0
    3800:	4a e7       	ldi	r20, 0x7A	; 122
    3802:	55 e4       	ldi	r21, 0x45	; 69
    3804:	0e 94 1f 02 	call	0x43e	; 0x43e <__mulsf3>
    3808:	dc 01       	movw	r26, r24
    380a:	cb 01       	movw	r24, r22
    380c:	8d 8b       	std	Y+21, r24	; 0x15
    380e:	9e 8b       	std	Y+22, r25	; 0x16
    3810:	af 8b       	std	Y+23, r26	; 0x17
    3812:	b8 8f       	std	Y+24, r27	; 0x18
	if (__tmp < 1.0)
    3814:	6d 89       	ldd	r22, Y+21	; 0x15
    3816:	7e 89       	ldd	r23, Y+22	; 0x16
    3818:	8f 89       	ldd	r24, Y+23	; 0x17
    381a:	98 8d       	ldd	r25, Y+24	; 0x18
    381c:	20 e0       	ldi	r18, 0x00	; 0
    381e:	30 e0       	ldi	r19, 0x00	; 0
    3820:	40 e8       	ldi	r20, 0x80	; 128
    3822:	5f e3       	ldi	r21, 0x3F	; 63
    3824:	0e 94 79 03 	call	0x6f2	; 0x6f2 <__ltsf2>
    3828:	88 23       	and	r24, r24
    382a:	2c f4       	brge	.+10     	; 0x3836 <LCD_displayCharacter+0x260>
		__ticks = 1;
    382c:	81 e0       	ldi	r24, 0x01	; 1
    382e:	90 e0       	ldi	r25, 0x00	; 0
    3830:	9c 8b       	std	Y+20, r25	; 0x14
    3832:	8b 8b       	std	Y+19, r24	; 0x13
    3834:	3f c0       	rjmp	.+126    	; 0x38b4 <LCD_displayCharacter+0x2de>
	else if (__tmp > 65535)
    3836:	6d 89       	ldd	r22, Y+21	; 0x15
    3838:	7e 89       	ldd	r23, Y+22	; 0x16
    383a:	8f 89       	ldd	r24, Y+23	; 0x17
    383c:	98 8d       	ldd	r25, Y+24	; 0x18
    383e:	20 e0       	ldi	r18, 0x00	; 0
    3840:	3f ef       	ldi	r19, 0xFF	; 255
    3842:	4f e7       	ldi	r20, 0x7F	; 127
    3844:	57 e4       	ldi	r21, 0x47	; 71
    3846:	0e 94 19 03 	call	0x632	; 0x632 <__gtsf2>
    384a:	18 16       	cp	r1, r24
    384c:	4c f5       	brge	.+82     	; 0x38a0 <LCD_displayCharacter+0x2ca>
	{
		//	__ticks = requested delay in 1/10 ms
		__ticks = (uint16_t) (__ms * 10.0);
    384e:	69 8d       	ldd	r22, Y+25	; 0x19
    3850:	7a 8d       	ldd	r23, Y+26	; 0x1a
    3852:	8b 8d       	ldd	r24, Y+27	; 0x1b
    3854:	9c 8d       	ldd	r25, Y+28	; 0x1c
    3856:	20 e0       	ldi	r18, 0x00	; 0
    3858:	30 e0       	ldi	r19, 0x00	; 0
    385a:	40 e2       	ldi	r20, 0x20	; 32
    385c:	51 e4       	ldi	r21, 0x41	; 65
    385e:	0e 94 1f 02 	call	0x43e	; 0x43e <__mulsf3>
    3862:	dc 01       	movw	r26, r24
    3864:	cb 01       	movw	r24, r22
    3866:	bc 01       	movw	r22, r24
    3868:	cd 01       	movw	r24, r26
    386a:	0e 94 49 00 	call	0x92	; 0x92 <__fixunssfsi>
    386e:	dc 01       	movw	r26, r24
    3870:	cb 01       	movw	r24, r22
    3872:	9c 8b       	std	Y+20, r25	; 0x14
    3874:	8b 8b       	std	Y+19, r24	; 0x13
    3876:	0f c0       	rjmp	.+30     	; 0x3896 <LCD_displayCharacter+0x2c0>
    3878:	80 e9       	ldi	r24, 0x90	; 144
    387a:	91 e0       	ldi	r25, 0x01	; 1
    387c:	9a 8b       	std	Y+18, r25	; 0x12
    387e:	89 8b       	std	Y+17, r24	; 0x11
    3880:	89 89       	ldd	r24, Y+17	; 0x11
    3882:	9a 89       	ldd	r25, Y+18	; 0x12
    3884:	01 97       	sbiw	r24, 0x01	; 1
    3886:	f1 f7       	brne	.-4      	; 0x3884 <LCD_displayCharacter+0x2ae>
    3888:	9a 8b       	std	Y+18, r25	; 0x12
    388a:	89 8b       	std	Y+17, r24	; 0x11
		while(__ticks)
		{
			// wait 1/10 ms
			_delay_loop_2(((F_CPU) / 4e3) / 10);
			__ticks --;
    388c:	8b 89       	ldd	r24, Y+19	; 0x13
    388e:	9c 89       	ldd	r25, Y+20	; 0x14
    3890:	01 97       	sbiw	r24, 0x01	; 1
    3892:	9c 8b       	std	Y+20, r25	; 0x14
    3894:	8b 8b       	std	Y+19, r24	; 0x13
		__ticks = 1;
	else if (__tmp > 65535)
	{
		//	__ticks = requested delay in 1/10 ms
		__ticks = (uint16_t) (__ms * 10.0);
		while(__ticks)
    3896:	8b 89       	ldd	r24, Y+19	; 0x13
    3898:	9c 89       	ldd	r25, Y+20	; 0x14
    389a:	00 97       	sbiw	r24, 0x00	; 0
    389c:	69 f7       	brne	.-38     	; 0x3878 <LCD_displayCharacter+0x2a2>
    389e:	14 c0       	rjmp	.+40     	; 0x38c8 <LCD_displayCharacter+0x2f2>
			__ticks --;
		}
		return;
	}
	else
		__ticks = (uint16_t)__tmp;
    38a0:	6d 89       	ldd	r22, Y+21	; 0x15
    38a2:	7e 89       	ldd	r23, Y+22	; 0x16
    38a4:	8f 89       	ldd	r24, Y+23	; 0x17
    38a6:	98 8d       	ldd	r25, Y+24	; 0x18
    38a8:	0e 94 49 00 	call	0x92	; 0x92 <__fixunssfsi>
    38ac:	dc 01       	movw	r26, r24
    38ae:	cb 01       	movw	r24, r22
    38b0:	9c 8b       	std	Y+20, r25	; 0x14
    38b2:	8b 8b       	std	Y+19, r24	; 0x13
    38b4:	8b 89       	ldd	r24, Y+19	; 0x13
    38b6:	9c 89       	ldd	r25, Y+20	; 0x14
    38b8:	98 8b       	std	Y+16, r25	; 0x10
    38ba:	8f 87       	std	Y+15, r24	; 0x0f
    38bc:	8f 85       	ldd	r24, Y+15	; 0x0f
    38be:	98 89       	ldd	r25, Y+16	; 0x10
    38c0:	01 97       	sbiw	r24, 0x01	; 1
    38c2:	f1 f7       	brne	.-4      	; 0x38c0 <LCD_displayCharacter+0x2ea>
    38c4:	98 8b       	std	Y+16, r25	; 0x10
    38c6:	8f 87       	std	Y+15, r24	; 0x0f
	_delay_ms(1);
	LCD_setPinValue(LCD_E_PORT_ID, LCD_E_PIN_ID, LOGIC_LOW);
    38c8:	83 e0       	ldi	r24, 0x03	; 3
    38ca:	90 e0       	ldi	r25, 0x00	; 0
    38cc:	65 e0       	ldi	r22, 0x05	; 5
    38ce:	70 e0       	ldi	r23, 0x00	; 0
    38d0:	40 e0       	ldi	r20, 0x00	; 0
    38d2:	50 e0       	ldi	r21, 0x00	; 0
    38d4:	0e 94 6e 0c 	call	0x18dc	; 0x18dc <LCD_setPinValue>
    38d8:	80 e0       	ldi	r24, 0x00	; 0
    38da:	90 e0       	ldi	r25, 0x00	; 0
    38dc:	a0 e8       	ldi	r26, 0x80	; 128
    38de:	bf e3       	ldi	r27, 0x3F	; 63
    38e0:	8b 87       	std	Y+11, r24	; 0x0b
    38e2:	9c 87       	std	Y+12, r25	; 0x0c
    38e4:	ad 87       	std	Y+13, r26	; 0x0d
    38e6:	be 87       	std	Y+14, r27	; 0x0e
 */
void
_delay_ms(double __ms)
{
	uint16_t __ticks;
	double __tmp = ((F_CPU) / 4e3) * __ms;
    38e8:	6b 85       	ldd	r22, Y+11	; 0x0b
    38ea:	7c 85       	ldd	r23, Y+12	; 0x0c
    38ec:	8d 85       	ldd	r24, Y+13	; 0x0d
    38ee:	9e 85       	ldd	r25, Y+14	; 0x0e
    38f0:	20 e0       	ldi	r18, 0x00	; 0
    38f2:	30 e0       	ldi	r19, 0x00	; 0
    38f4:	4a e7       	ldi	r20, 0x7A	; 122
    38f6:	55 e4       	ldi	r21, 0x45	; 69
    38f8:	0e 94 1f 02 	call	0x43e	; 0x43e <__mulsf3>
    38fc:	dc 01       	movw	r26, r24
    38fe:	cb 01       	movw	r24, r22
    3900:	8f 83       	std	Y+7, r24	; 0x07
    3902:	98 87       	std	Y+8, r25	; 0x08
    3904:	a9 87       	std	Y+9, r26	; 0x09
    3906:	ba 87       	std	Y+10, r27	; 0x0a
	if (__tmp < 1.0)
    3908:	6f 81       	ldd	r22, Y+7	; 0x07
    390a:	78 85       	ldd	r23, Y+8	; 0x08
    390c:	89 85       	ldd	r24, Y+9	; 0x09
    390e:	9a 85       	ldd	r25, Y+10	; 0x0a
    3910:	20 e0       	ldi	r18, 0x00	; 0
    3912:	30 e0       	ldi	r19, 0x00	; 0
    3914:	40 e8       	ldi	r20, 0x80	; 128
    3916:	5f e3       	ldi	r21, 0x3F	; 63
    3918:	0e 94 79 03 	call	0x6f2	; 0x6f2 <__ltsf2>
    391c:	88 23       	and	r24, r24
    391e:	2c f4       	brge	.+10     	; 0x392a <LCD_displayCharacter+0x354>
		__ticks = 1;
    3920:	81 e0       	ldi	r24, 0x01	; 1
    3922:	90 e0       	ldi	r25, 0x00	; 0
    3924:	9e 83       	std	Y+6, r25	; 0x06
    3926:	8d 83       	std	Y+5, r24	; 0x05
    3928:	3f c0       	rjmp	.+126    	; 0x39a8 <LCD_displayCharacter+0x3d2>
	else if (__tmp > 65535)
    392a:	6f 81       	ldd	r22, Y+7	; 0x07
    392c:	78 85       	ldd	r23, Y+8	; 0x08
    392e:	89 85       	ldd	r24, Y+9	; 0x09
    3930:	9a 85       	ldd	r25, Y+10	; 0x0a
    3932:	20 e0       	ldi	r18, 0x00	; 0
    3934:	3f ef       	ldi	r19, 0xFF	; 255
    3936:	4f e7       	ldi	r20, 0x7F	; 127
    3938:	57 e4       	ldi	r21, 0x47	; 71
    393a:	0e 94 19 03 	call	0x632	; 0x632 <__gtsf2>
    393e:	18 16       	cp	r1, r24
    3940:	4c f5       	brge	.+82     	; 0x3994 <LCD_displayCharacter+0x3be>
	{
		//	__ticks = requested delay in 1/10 ms
		__ticks = (uint16_t) (__ms * 10.0);
    3942:	6b 85       	ldd	r22, Y+11	; 0x0b
    3944:	7c 85       	ldd	r23, Y+12	; 0x0c
    3946:	8d 85       	ldd	r24, Y+13	; 0x0d
    3948:	9e 85       	ldd	r25, Y+14	; 0x0e
    394a:	20 e0       	ldi	r18, 0x00	; 0
    394c:	30 e0       	ldi	r19, 0x00	; 0
    394e:	40 e2       	ldi	r20, 0x20	; 32
    3950:	51 e4       	ldi	r21, 0x41	; 65
    3952:	0e 94 1f 02 	call	0x43e	; 0x43e <__mulsf3>
    3956:	dc 01       	movw	r26, r24
    3958:	cb 01       	movw	r24, r22
    395a:	bc 01       	movw	r22, r24
    395c:	cd 01       	movw	r24, r26
    395e:	0e 94 49 00 	call	0x92	; 0x92 <__fixunssfsi>
    3962:	dc 01       	movw	r26, r24
    3964:	cb 01       	movw	r24, r22
    3966:	9e 83       	std	Y+6, r25	; 0x06
    3968:	8d 83       	std	Y+5, r24	; 0x05
    396a:	0f c0       	rjmp	.+30     	; 0x398a <LCD_displayCharacter+0x3b4>
    396c:	80 e9       	ldi	r24, 0x90	; 144
    396e:	91 e0       	ldi	r25, 0x01	; 1
    3970:	9c 83       	std	Y+4, r25	; 0x04
    3972:	8b 83       	std	Y+3, r24	; 0x03
    3974:	8b 81       	ldd	r24, Y+3	; 0x03
    3976:	9c 81       	ldd	r25, Y+4	; 0x04
    3978:	01 97       	sbiw	r24, 0x01	; 1
    397a:	f1 f7       	brne	.-4      	; 0x3978 <LCD_displayCharacter+0x3a2>
    397c:	9c 83       	std	Y+4, r25	; 0x04
    397e:	8b 83       	std	Y+3, r24	; 0x03
		while(__ticks)
		{
			// wait 1/10 ms
			_delay_loop_2(((F_CPU) / 4e3) / 10);
			__ticks --;
    3980:	8d 81       	ldd	r24, Y+5	; 0x05
    3982:	9e 81       	ldd	r25, Y+6	; 0x06
    3984:	01 97       	sbiw	r24, 0x01	; 1
    3986:	9e 83       	std	Y+6, r25	; 0x06
    3988:	8d 83       	std	Y+5, r24	; 0x05
		__ticks = 1;
	else if (__tmp > 65535)
	{
		//	__ticks = requested delay in 1/10 ms
		__ticks = (uint16_t) (__ms * 10.0);
		while(__ticks)
    398a:	8d 81       	ldd	r24, Y+5	; 0x05
    398c:	9e 81       	ldd	r25, Y+6	; 0x06
    398e:	00 97       	sbiw	r24, 0x00	; 0
    3990:	69 f7       	brne	.-38     	; 0x396c <LCD_displayCharacter+0x396>
    3992:	14 c0       	rjmp	.+40     	; 0x39bc <LCD_displayCharacter+0x3e6>
			__ticks --;
		}
		return;
	}
	else
		__ticks = (uint16_t)__tmp;
    3994:	6f 81       	ldd	r22, Y+7	; 0x07
    3996:	78 85       	ldd	r23, Y+8	; 0x08
    3998:	89 85       	ldd	r24, Y+9	; 0x09
    399a:	9a 85       	ldd	r25, Y+10	; 0x0a
    399c:	0e 94 49 00 	call	0x92	; 0x92 <__fixunssfsi>
    39a0:	dc 01       	movw	r26, r24
    39a2:	cb 01       	movw	r24, r22
    39a4:	9e 83       	std	Y+6, r25	; 0x06
    39a6:	8d 83       	std	Y+5, r24	; 0x05
    39a8:	8d 81       	ldd	r24, Y+5	; 0x05
    39aa:	9e 81       	ldd	r25, Y+6	; 0x06
    39ac:	9a 83       	std	Y+2, r25	; 0x02
    39ae:	89 83       	std	Y+1, r24	; 0x01
    39b0:	89 81       	ldd	r24, Y+1	; 0x01
    39b2:	9a 81       	ldd	r25, Y+2	; 0x02
    39b4:	01 97       	sbiw	r24, 0x01	; 1
    39b6:	f1 f7       	brne	.-4      	; 0x39b4 <LCD_displayCharacter+0x3de>
    39b8:	9a 83       	std	Y+2, r25	; 0x02
    39ba:	89 83       	std	Y+1, r24	; 0x01
	_delay_ms(1);
}
    39bc:	e9 96       	adiw	r28, 0x39	; 57
    39be:	0f b6       	in	r0, 0x3f	; 63
    39c0:	f8 94       	cli
    39c2:	de bf       	out	0x3e, r29	; 62
    39c4:	0f be       	out	0x3f, r0	; 63
    39c6:	cd bf       	out	0x3d, r28	; 61
    39c8:	cf 91       	pop	r28
    39ca:	df 91       	pop	r29
    39cc:	08 95       	ret

000039ce <LCD_DisplayInteger>:

void LCD_DisplayInteger(u32 num) {
    39ce:	0f 93       	push	r16
    39d0:	1f 93       	push	r17
    39d2:	df 93       	push	r29
    39d4:	cf 93       	push	r28
    39d6:	cd b7       	in	r28, 0x3d	; 61
    39d8:	de b7       	in	r29, 0x3e	; 62
    39da:	68 97       	sbiw	r28, 0x18	; 24
    39dc:	0f b6       	in	r0, 0x3f	; 63
    39de:	f8 94       	cli
    39e0:	de bf       	out	0x3e, r29	; 62
    39e2:	0f be       	out	0x3f, r0	; 63
    39e4:	cd bf       	out	0x3d, r28	; 61
    39e6:	6d 8b       	std	Y+21, r22	; 0x15
    39e8:	7e 8b       	std	Y+22, r23	; 0x16
    39ea:	8f 8b       	std	Y+23, r24	; 0x17
    39ec:	98 8f       	std	Y+24, r25	; 0x18

    // Convert the number to a string
    u8 buffer[16];
    u8 i = 0;
    39ee:	1c 82       	std	Y+4, r1	; 0x04
    u8 isNegative = 0;
    39f0:	1b 82       	std	Y+3, r1	; 0x03
        isNegative = 1;
        num = -num;
    }

    do {
        buffer[i++] = (char)(num % 10) + '0';
    39f2:	8c 81       	ldd	r24, Y+4	; 0x04
    39f4:	08 2f       	mov	r16, r24
    39f6:	10 e0       	ldi	r17, 0x00	; 0
    39f8:	8d 89       	ldd	r24, Y+21	; 0x15
    39fa:	9e 89       	ldd	r25, Y+22	; 0x16
    39fc:	af 89       	ldd	r26, Y+23	; 0x17
    39fe:	b8 8d       	ldd	r27, Y+24	; 0x18
    3a00:	2a e0       	ldi	r18, 0x0A	; 10
    3a02:	30 e0       	ldi	r19, 0x00	; 0
    3a04:	40 e0       	ldi	r20, 0x00	; 0
    3a06:	50 e0       	ldi	r21, 0x00	; 0
    3a08:	bc 01       	movw	r22, r24
    3a0a:	cd 01       	movw	r24, r26
    3a0c:	0e 94 8f 31 	call	0x631e	; 0x631e <__udivmodsi4>
    3a10:	dc 01       	movw	r26, r24
    3a12:	cb 01       	movw	r24, r22
    3a14:	28 2f       	mov	r18, r24
    3a16:	20 5d       	subi	r18, 0xD0	; 208
    3a18:	ce 01       	movw	r24, r28
    3a1a:	05 96       	adiw	r24, 0x05	; 5
    3a1c:	fc 01       	movw	r30, r24
    3a1e:	e0 0f       	add	r30, r16
    3a20:	f1 1f       	adc	r31, r17
    3a22:	20 83       	st	Z, r18
    3a24:	8c 81       	ldd	r24, Y+4	; 0x04
    3a26:	8f 5f       	subi	r24, 0xFF	; 255
    3a28:	8c 83       	std	Y+4, r24	; 0x04
        num /= 10;
    3a2a:	8d 89       	ldd	r24, Y+21	; 0x15
    3a2c:	9e 89       	ldd	r25, Y+22	; 0x16
    3a2e:	af 89       	ldd	r26, Y+23	; 0x17
    3a30:	b8 8d       	ldd	r27, Y+24	; 0x18
    3a32:	2a e0       	ldi	r18, 0x0A	; 10
    3a34:	30 e0       	ldi	r19, 0x00	; 0
    3a36:	40 e0       	ldi	r20, 0x00	; 0
    3a38:	50 e0       	ldi	r21, 0x00	; 0
    3a3a:	bc 01       	movw	r22, r24
    3a3c:	cd 01       	movw	r24, r26
    3a3e:	0e 94 8f 31 	call	0x631e	; 0x631e <__udivmodsi4>
    3a42:	da 01       	movw	r26, r20
    3a44:	c9 01       	movw	r24, r18
    3a46:	8d 8b       	std	Y+21, r24	; 0x15
    3a48:	9e 8b       	std	Y+22, r25	; 0x16
    3a4a:	af 8b       	std	Y+23, r26	; 0x17
    3a4c:	b8 8f       	std	Y+24, r27	; 0x18
    } while (num > 0);
    3a4e:	8d 89       	ldd	r24, Y+21	; 0x15
    3a50:	9e 89       	ldd	r25, Y+22	; 0x16
    3a52:	af 89       	ldd	r26, Y+23	; 0x17
    3a54:	b8 8d       	ldd	r27, Y+24	; 0x18
    3a56:	00 97       	sbiw	r24, 0x00	; 0
    3a58:	a1 05       	cpc	r26, r1
    3a5a:	b1 05       	cpc	r27, r1
    3a5c:	51 f6       	brne	.-108    	; 0x39f2 <LCD_DisplayInteger+0x24>

    if (isNegative) {
    3a5e:	8b 81       	ldd	r24, Y+3	; 0x03
    3a60:	88 23       	and	r24, r24
    3a62:	69 f0       	breq	.+26     	; 0x3a7e <LCD_DisplayInteger+0xb0>
        buffer[i++] = '-';
    3a64:	8c 81       	ldd	r24, Y+4	; 0x04
    3a66:	28 2f       	mov	r18, r24
    3a68:	30 e0       	ldi	r19, 0x00	; 0
    3a6a:	ce 01       	movw	r24, r28
    3a6c:	05 96       	adiw	r24, 0x05	; 5
    3a6e:	fc 01       	movw	r30, r24
    3a70:	e2 0f       	add	r30, r18
    3a72:	f3 1f       	adc	r31, r19
    3a74:	8d e2       	ldi	r24, 0x2D	; 45
    3a76:	80 83       	st	Z, r24
    3a78:	8c 81       	ldd	r24, Y+4	; 0x04
    3a7a:	8f 5f       	subi	r24, 0xFF	; 255
    3a7c:	8c 83       	std	Y+4, r24	; 0x04
    }

    // Reverse the string
    u8 j;
    for (j = 0; j < i / 2; j++) {
    3a7e:	1a 82       	std	Y+2, r1	; 0x02
    3a80:	3d c0       	rjmp	.+122    	; 0x3afc <LCD_DisplayInteger+0x12e>
        char temp = buffer[j];
    3a82:	8a 81       	ldd	r24, Y+2	; 0x02
    3a84:	28 2f       	mov	r18, r24
    3a86:	30 e0       	ldi	r19, 0x00	; 0
    3a88:	ce 01       	movw	r24, r28
    3a8a:	05 96       	adiw	r24, 0x05	; 5
    3a8c:	fc 01       	movw	r30, r24
    3a8e:	e2 0f       	add	r30, r18
    3a90:	f3 1f       	adc	r31, r19
    3a92:	80 81       	ld	r24, Z
    3a94:	89 83       	std	Y+1, r24	; 0x01
        buffer[j] = buffer[i - j - 1];
    3a96:	8a 81       	ldd	r24, Y+2	; 0x02
    3a98:	48 2f       	mov	r20, r24
    3a9a:	50 e0       	ldi	r21, 0x00	; 0
    3a9c:	8c 81       	ldd	r24, Y+4	; 0x04
    3a9e:	28 2f       	mov	r18, r24
    3aa0:	30 e0       	ldi	r19, 0x00	; 0
    3aa2:	8a 81       	ldd	r24, Y+2	; 0x02
    3aa4:	88 2f       	mov	r24, r24
    3aa6:	90 e0       	ldi	r25, 0x00	; 0
    3aa8:	b9 01       	movw	r22, r18
    3aaa:	68 1b       	sub	r22, r24
    3aac:	79 0b       	sbc	r23, r25
    3aae:	cb 01       	movw	r24, r22
    3ab0:	9c 01       	movw	r18, r24
    3ab2:	21 50       	subi	r18, 0x01	; 1
    3ab4:	30 40       	sbci	r19, 0x00	; 0
    3ab6:	ce 01       	movw	r24, r28
    3ab8:	05 96       	adiw	r24, 0x05	; 5
    3aba:	fc 01       	movw	r30, r24
    3abc:	e2 0f       	add	r30, r18
    3abe:	f3 1f       	adc	r31, r19
    3ac0:	20 81       	ld	r18, Z
    3ac2:	ce 01       	movw	r24, r28
    3ac4:	05 96       	adiw	r24, 0x05	; 5
    3ac6:	fc 01       	movw	r30, r24
    3ac8:	e4 0f       	add	r30, r20
    3aca:	f5 1f       	adc	r31, r21
    3acc:	20 83       	st	Z, r18
        buffer[i - j - 1] = temp;
    3ace:	8c 81       	ldd	r24, Y+4	; 0x04
    3ad0:	28 2f       	mov	r18, r24
    3ad2:	30 e0       	ldi	r19, 0x00	; 0
    3ad4:	8a 81       	ldd	r24, Y+2	; 0x02
    3ad6:	88 2f       	mov	r24, r24
    3ad8:	90 e0       	ldi	r25, 0x00	; 0
    3ada:	a9 01       	movw	r20, r18
    3adc:	48 1b       	sub	r20, r24
    3ade:	59 0b       	sbc	r21, r25
    3ae0:	ca 01       	movw	r24, r20
    3ae2:	9c 01       	movw	r18, r24
    3ae4:	21 50       	subi	r18, 0x01	; 1
    3ae6:	30 40       	sbci	r19, 0x00	; 0
    3ae8:	ce 01       	movw	r24, r28
    3aea:	05 96       	adiw	r24, 0x05	; 5
    3aec:	fc 01       	movw	r30, r24
    3aee:	e2 0f       	add	r30, r18
    3af0:	f3 1f       	adc	r31, r19
    3af2:	89 81       	ldd	r24, Y+1	; 0x01
    3af4:	80 83       	st	Z, r24
        buffer[i++] = '-';
    }

    // Reverse the string
    u8 j;
    for (j = 0; j < i / 2; j++) {
    3af6:	8a 81       	ldd	r24, Y+2	; 0x02
    3af8:	8f 5f       	subi	r24, 0xFF	; 255
    3afa:	8a 83       	std	Y+2, r24	; 0x02
    3afc:	8c 81       	ldd	r24, Y+4	; 0x04
    3afe:	98 2f       	mov	r25, r24
    3b00:	96 95       	lsr	r25
    3b02:	8a 81       	ldd	r24, Y+2	; 0x02
    3b04:	89 17       	cp	r24, r25
    3b06:	08 f4       	brcc	.+2      	; 0x3b0a <LCD_DisplayInteger+0x13c>
    3b08:	bc cf       	rjmp	.-136    	; 0x3a82 <LCD_DisplayInteger+0xb4>
        buffer[j] = buffer[i - j - 1];
        buffer[i - j - 1] = temp;
    }

    // Null-terminate the string
    buffer[i] = '\0';
    3b0a:	8c 81       	ldd	r24, Y+4	; 0x04
    3b0c:	28 2f       	mov	r18, r24
    3b0e:	30 e0       	ldi	r19, 0x00	; 0
    3b10:	ce 01       	movw	r24, r28
    3b12:	05 96       	adiw	r24, 0x05	; 5
    3b14:	fc 01       	movw	r30, r24
    3b16:	e2 0f       	add	r30, r18
    3b18:	f3 1f       	adc	r31, r19
    3b1a:	10 82       	st	Z, r1

    // Write the string to LCD
    LCD_displayString(buffer);
    3b1c:	ce 01       	movw	r24, r28
    3b1e:	05 96       	adiw	r24, 0x05	; 5
    3b20:	0e 94 6b 1e 	call	0x3cd6	; 0x3cd6 <LCD_displayString>
}
    3b24:	68 96       	adiw	r28, 0x18	; 24
    3b26:	0f b6       	in	r0, 0x3f	; 63
    3b28:	f8 94       	cli
    3b2a:	de bf       	out	0x3e, r29	; 62
    3b2c:	0f be       	out	0x3f, r0	; 63
    3b2e:	cd bf       	out	0x3d, r28	; 61
    3b30:	cf 91       	pop	r28
    3b32:	df 91       	pop	r29
    3b34:	1f 91       	pop	r17
    3b36:	0f 91       	pop	r16
    3b38:	08 95       	ret

00003b3a <LCD_init>:


void LCD_init(void)
{
    3b3a:	df 93       	push	r29
    3b3c:	cf 93       	push	r28
    3b3e:	cd b7       	in	r28, 0x3d	; 61
    3b40:	de b7       	in	r29, 0x3e	; 62
    3b42:	2e 97       	sbiw	r28, 0x0e	; 14
    3b44:	0f b6       	in	r0, 0x3f	; 63
    3b46:	f8 94       	cli
    3b48:	de bf       	out	0x3e, r29	; 62
    3b4a:	0f be       	out	0x3f, r0	; 63
    3b4c:	cd bf       	out	0x3d, r28	; 61
	LCD_setPinDirection(LCD_RS_PORT_ID, LCD_RS_PIN_ID, PIN_OUTPUT);
    3b4e:	83 e0       	ldi	r24, 0x03	; 3
    3b50:	90 e0       	ldi	r25, 0x00	; 0
    3b52:	64 e0       	ldi	r22, 0x04	; 4
    3b54:	70 e0       	ldi	r23, 0x00	; 0
    3b56:	41 e0       	ldi	r20, 0x01	; 1
    3b58:	50 e0       	ldi	r21, 0x00	; 0
    3b5a:	0e 94 83 0b 	call	0x1706	; 0x1706 <LCD_setPinDirection>
	LCD_setPinDirection(LCD_E_PORT_ID, LCD_E_PIN_ID, PIN_OUTPUT);
    3b5e:	83 e0       	ldi	r24, 0x03	; 3
    3b60:	90 e0       	ldi	r25, 0x00	; 0
    3b62:	65 e0       	ldi	r22, 0x05	; 5
    3b64:	70 e0       	ldi	r23, 0x00	; 0
    3b66:	41 e0       	ldi	r20, 0x01	; 1
    3b68:	50 e0       	ldi	r21, 0x00	; 0
    3b6a:	0e 94 83 0b 	call	0x1706	; 0x1706 <LCD_setPinDirection>
	LCD_setPortDirection(LCD_DATA_PORT_ID, PORT_OUTPUT);
    3b6e:	82 e0       	ldi	r24, 0x02	; 2
    3b70:	90 e0       	ldi	r25, 0x00	; 0
    3b72:	6f ef       	ldi	r22, 0xFF	; 255
    3b74:	70 e0       	ldi	r23, 0x00	; 0
    3b76:	0e 94 f4 0d 	call	0x1be8	; 0x1be8 <LCD_setPortDirection>
    3b7a:	80 e0       	ldi	r24, 0x00	; 0
    3b7c:	90 e0       	ldi	r25, 0x00	; 0
    3b7e:	a0 ea       	ldi	r26, 0xA0	; 160
    3b80:	b1 e4       	ldi	r27, 0x41	; 65
    3b82:	8b 87       	std	Y+11, r24	; 0x0b
    3b84:	9c 87       	std	Y+12, r25	; 0x0c
    3b86:	ad 87       	std	Y+13, r26	; 0x0d
    3b88:	be 87       	std	Y+14, r27	; 0x0e
 */
void
_delay_ms(double __ms)
{
	uint16_t __ticks;
	double __tmp = ((F_CPU) / 4e3) * __ms;
    3b8a:	6b 85       	ldd	r22, Y+11	; 0x0b
    3b8c:	7c 85       	ldd	r23, Y+12	; 0x0c
    3b8e:	8d 85       	ldd	r24, Y+13	; 0x0d
    3b90:	9e 85       	ldd	r25, Y+14	; 0x0e
    3b92:	20 e0       	ldi	r18, 0x00	; 0
    3b94:	30 e0       	ldi	r19, 0x00	; 0
    3b96:	4a e7       	ldi	r20, 0x7A	; 122
    3b98:	55 e4       	ldi	r21, 0x45	; 69
    3b9a:	0e 94 1f 02 	call	0x43e	; 0x43e <__mulsf3>
    3b9e:	dc 01       	movw	r26, r24
    3ba0:	cb 01       	movw	r24, r22
    3ba2:	8f 83       	std	Y+7, r24	; 0x07
    3ba4:	98 87       	std	Y+8, r25	; 0x08
    3ba6:	a9 87       	std	Y+9, r26	; 0x09
    3ba8:	ba 87       	std	Y+10, r27	; 0x0a
	if (__tmp < 1.0)
    3baa:	6f 81       	ldd	r22, Y+7	; 0x07
    3bac:	78 85       	ldd	r23, Y+8	; 0x08
    3bae:	89 85       	ldd	r24, Y+9	; 0x09
    3bb0:	9a 85       	ldd	r25, Y+10	; 0x0a
    3bb2:	20 e0       	ldi	r18, 0x00	; 0
    3bb4:	30 e0       	ldi	r19, 0x00	; 0
    3bb6:	40 e8       	ldi	r20, 0x80	; 128
    3bb8:	5f e3       	ldi	r21, 0x3F	; 63
    3bba:	0e 94 79 03 	call	0x6f2	; 0x6f2 <__ltsf2>
    3bbe:	88 23       	and	r24, r24
    3bc0:	2c f4       	brge	.+10     	; 0x3bcc <LCD_init+0x92>
		__ticks = 1;
    3bc2:	81 e0       	ldi	r24, 0x01	; 1
    3bc4:	90 e0       	ldi	r25, 0x00	; 0
    3bc6:	9e 83       	std	Y+6, r25	; 0x06
    3bc8:	8d 83       	std	Y+5, r24	; 0x05
    3bca:	3f c0       	rjmp	.+126    	; 0x3c4a <LCD_init+0x110>
	else if (__tmp > 65535)
    3bcc:	6f 81       	ldd	r22, Y+7	; 0x07
    3bce:	78 85       	ldd	r23, Y+8	; 0x08
    3bd0:	89 85       	ldd	r24, Y+9	; 0x09
    3bd2:	9a 85       	ldd	r25, Y+10	; 0x0a
    3bd4:	20 e0       	ldi	r18, 0x00	; 0
    3bd6:	3f ef       	ldi	r19, 0xFF	; 255
    3bd8:	4f e7       	ldi	r20, 0x7F	; 127
    3bda:	57 e4       	ldi	r21, 0x47	; 71
    3bdc:	0e 94 19 03 	call	0x632	; 0x632 <__gtsf2>
    3be0:	18 16       	cp	r1, r24
    3be2:	4c f5       	brge	.+82     	; 0x3c36 <LCD_init+0xfc>
	{
		//	__ticks = requested delay in 1/10 ms
		__ticks = (uint16_t) (__ms * 10.0);
    3be4:	6b 85       	ldd	r22, Y+11	; 0x0b
    3be6:	7c 85       	ldd	r23, Y+12	; 0x0c
    3be8:	8d 85       	ldd	r24, Y+13	; 0x0d
    3bea:	9e 85       	ldd	r25, Y+14	; 0x0e
    3bec:	20 e0       	ldi	r18, 0x00	; 0
    3bee:	30 e0       	ldi	r19, 0x00	; 0
    3bf0:	40 e2       	ldi	r20, 0x20	; 32
    3bf2:	51 e4       	ldi	r21, 0x41	; 65
    3bf4:	0e 94 1f 02 	call	0x43e	; 0x43e <__mulsf3>
    3bf8:	dc 01       	movw	r26, r24
    3bfa:	cb 01       	movw	r24, r22
    3bfc:	bc 01       	movw	r22, r24
    3bfe:	cd 01       	movw	r24, r26
    3c00:	0e 94 49 00 	call	0x92	; 0x92 <__fixunssfsi>
    3c04:	dc 01       	movw	r26, r24
    3c06:	cb 01       	movw	r24, r22
    3c08:	9e 83       	std	Y+6, r25	; 0x06
    3c0a:	8d 83       	std	Y+5, r24	; 0x05
    3c0c:	0f c0       	rjmp	.+30     	; 0x3c2c <LCD_init+0xf2>
    3c0e:	80 e9       	ldi	r24, 0x90	; 144
    3c10:	91 e0       	ldi	r25, 0x01	; 1
    3c12:	9c 83       	std	Y+4, r25	; 0x04
    3c14:	8b 83       	std	Y+3, r24	; 0x03
    3c16:	8b 81       	ldd	r24, Y+3	; 0x03
    3c18:	9c 81       	ldd	r25, Y+4	; 0x04
    3c1a:	01 97       	sbiw	r24, 0x01	; 1
    3c1c:	f1 f7       	brne	.-4      	; 0x3c1a <LCD_init+0xe0>
    3c1e:	9c 83       	std	Y+4, r25	; 0x04
    3c20:	8b 83       	std	Y+3, r24	; 0x03
		while(__ticks)
		{
			// wait 1/10 ms
			_delay_loop_2(((F_CPU) / 4e3) / 10);
			__ticks --;
    3c22:	8d 81       	ldd	r24, Y+5	; 0x05
    3c24:	9e 81       	ldd	r25, Y+6	; 0x06
    3c26:	01 97       	sbiw	r24, 0x01	; 1
    3c28:	9e 83       	std	Y+6, r25	; 0x06
    3c2a:	8d 83       	std	Y+5, r24	; 0x05
		__ticks = 1;
	else if (__tmp > 65535)
	{
		//	__ticks = requested delay in 1/10 ms
		__ticks = (uint16_t) (__ms * 10.0);
		while(__ticks)
    3c2c:	8d 81       	ldd	r24, Y+5	; 0x05
    3c2e:	9e 81       	ldd	r25, Y+6	; 0x06
    3c30:	00 97       	sbiw	r24, 0x00	; 0
    3c32:	69 f7       	brne	.-38     	; 0x3c0e <LCD_init+0xd4>
    3c34:	14 c0       	rjmp	.+40     	; 0x3c5e <LCD_init+0x124>
			__ticks --;
		}
		return;
	}
	else
		__ticks = (uint16_t)__tmp;
    3c36:	6f 81       	ldd	r22, Y+7	; 0x07
    3c38:	78 85       	ldd	r23, Y+8	; 0x08
    3c3a:	89 85       	ldd	r24, Y+9	; 0x09
    3c3c:	9a 85       	ldd	r25, Y+10	; 0x0a
    3c3e:	0e 94 49 00 	call	0x92	; 0x92 <__fixunssfsi>
    3c42:	dc 01       	movw	r26, r24
    3c44:	cb 01       	movw	r24, r22
    3c46:	9e 83       	std	Y+6, r25	; 0x06
    3c48:	8d 83       	std	Y+5, r24	; 0x05
    3c4a:	8d 81       	ldd	r24, Y+5	; 0x05
    3c4c:	9e 81       	ldd	r25, Y+6	; 0x06
    3c4e:	9a 83       	std	Y+2, r25	; 0x02
    3c50:	89 83       	std	Y+1, r24	; 0x01
    3c52:	89 81       	ldd	r24, Y+1	; 0x01
    3c54:	9a 81       	ldd	r25, Y+2	; 0x02
    3c56:	01 97       	sbiw	r24, 0x01	; 1
    3c58:	f1 f7       	brne	.-4      	; 0x3c56 <LCD_init+0x11c>
    3c5a:	9a 83       	std	Y+2, r25	; 0x02
    3c5c:	89 83       	std	Y+1, r24	; 0x01

	_delay_ms(20);

	LCD_sendCommand(LCD_TWO_LINES_EIGHT_BITS_MODE);
    3c5e:	88 e3       	ldi	r24, 0x38	; 56
    3c60:	0e 94 ef 18 	call	0x31de	; 0x31de <LCD_sendCommand>
	LCD_sendCommand(LCD_CURSOR_OFF);
    3c64:	8c e0       	ldi	r24, 0x0C	; 12
    3c66:	0e 94 ef 18 	call	0x31de	; 0x31de <LCD_sendCommand>
	LCD_sendCommand(LCD_CLEAR_COMMAND);
    3c6a:	81 e0       	ldi	r24, 0x01	; 1
    3c6c:	0e 94 ef 18 	call	0x31de	; 0x31de <LCD_sendCommand>
}
    3c70:	2e 96       	adiw	r28, 0x0e	; 14
    3c72:	0f b6       	in	r0, 0x3f	; 63
    3c74:	f8 94       	cli
    3c76:	de bf       	out	0x3e, r29	; 62
    3c78:	0f be       	out	0x3f, r0	; 63
    3c7a:	cd bf       	out	0x3d, r28	; 61
    3c7c:	cf 91       	pop	r28
    3c7e:	df 91       	pop	r29
    3c80:	08 95       	ret

00003c82 <LCD_GoToXY>:

void LCD_GoToXY(u8 Copy_u8LineNum, u8 Copy_u8Location)
{
    3c82:	df 93       	push	r29
    3c84:	cf 93       	push	r28
    3c86:	00 d0       	rcall	.+0      	; 0x3c88 <LCD_GoToXY+0x6>
    3c88:	00 d0       	rcall	.+0      	; 0x3c8a <LCD_GoToXY+0x8>
    3c8a:	cd b7       	in	r28, 0x3d	; 61
    3c8c:	de b7       	in	r29, 0x3e	; 62
    3c8e:	89 83       	std	Y+1, r24	; 0x01
    3c90:	6a 83       	std	Y+2, r22	; 0x02
	if (Copy_u8LineNum <= 39)
    3c92:	89 81       	ldd	r24, Y+1	; 0x01
    3c94:	88 32       	cpi	r24, 0x28	; 40
    3c96:	c0 f4       	brcc	.+48     	; 0x3cc8 <LCD_GoToXY+0x46>
	{
		switch (Copy_u8LineNum)
    3c98:	89 81       	ldd	r24, Y+1	; 0x01
    3c9a:	28 2f       	mov	r18, r24
    3c9c:	30 e0       	ldi	r19, 0x00	; 0
    3c9e:	3c 83       	std	Y+4, r19	; 0x04
    3ca0:	2b 83       	std	Y+3, r18	; 0x03
    3ca2:	8b 81       	ldd	r24, Y+3	; 0x03
    3ca4:	9c 81       	ldd	r25, Y+4	; 0x04
    3ca6:	00 97       	sbiw	r24, 0x00	; 0
    3ca8:	31 f0       	breq	.+12     	; 0x3cb6 <LCD_GoToXY+0x34>
    3caa:	2b 81       	ldd	r18, Y+3	; 0x03
    3cac:	3c 81       	ldd	r19, Y+4	; 0x04
    3cae:	21 30       	cpi	r18, 0x01	; 1
    3cb0:	31 05       	cpc	r19, r1
    3cb2:	31 f0       	breq	.+12     	; 0x3cc0 <LCD_GoToXY+0x3e>
    3cb4:	09 c0       	rjmp	.+18     	; 0x3cc8 <LCD_GoToXY+0x46>
		{
		case 0:
			LCD_sendCommand(LCD_Line0 + Copy_u8Location);
    3cb6:	8a 81       	ldd	r24, Y+2	; 0x02
    3cb8:	80 58       	subi	r24, 0x80	; 128
    3cba:	0e 94 ef 18 	call	0x31de	; 0x31de <LCD_sendCommand>
    3cbe:	04 c0       	rjmp	.+8      	; 0x3cc8 <LCD_GoToXY+0x46>

			break;
		case 1:
			LCD_sendCommand(LCD_Line1 + Copy_u8Location);
    3cc0:	8a 81       	ldd	r24, Y+2	; 0x02
    3cc2:	80 54       	subi	r24, 0x40	; 64
    3cc4:	0e 94 ef 18 	call	0x31de	; 0x31de <LCD_sendCommand>
			break;
		}
	}
}
    3cc8:	0f 90       	pop	r0
    3cca:	0f 90       	pop	r0
    3ccc:	0f 90       	pop	r0
    3cce:	0f 90       	pop	r0
    3cd0:	cf 91       	pop	r28
    3cd2:	df 91       	pop	r29
    3cd4:	08 95       	ret

00003cd6 <LCD_displayString>:

void LCD_displayString(const char *str)
{
    3cd6:	df 93       	push	r29
    3cd8:	cf 93       	push	r28
    3cda:	00 d0       	rcall	.+0      	; 0x3cdc <LCD_displayString+0x6>
    3cdc:	0f 92       	push	r0
    3cde:	cd b7       	in	r28, 0x3d	; 61
    3ce0:	de b7       	in	r29, 0x3e	; 62
    3ce2:	9b 83       	std	Y+3, r25	; 0x03
    3ce4:	8a 83       	std	Y+2, r24	; 0x02
	u8 i = 0;
    3ce6:	19 82       	std	Y+1, r1	; 0x01
    3ce8:	0e c0       	rjmp	.+28     	; 0x3d06 <LCD_displayString+0x30>
	while (str[i] != '\0')
	{
		LCD_displayCharacter(str[i]);
    3cea:	89 81       	ldd	r24, Y+1	; 0x01
    3cec:	28 2f       	mov	r18, r24
    3cee:	30 e0       	ldi	r19, 0x00	; 0
    3cf0:	8a 81       	ldd	r24, Y+2	; 0x02
    3cf2:	9b 81       	ldd	r25, Y+3	; 0x03
    3cf4:	fc 01       	movw	r30, r24
    3cf6:	e2 0f       	add	r30, r18
    3cf8:	f3 1f       	adc	r31, r19
    3cfa:	80 81       	ld	r24, Z
    3cfc:	0e 94 eb 1a 	call	0x35d6	; 0x35d6 <LCD_displayCharacter>
		i++;
    3d00:	89 81       	ldd	r24, Y+1	; 0x01
    3d02:	8f 5f       	subi	r24, 0xFF	; 255
    3d04:	89 83       	std	Y+1, r24	; 0x01
}

void LCD_displayString(const char *str)
{
	u8 i = 0;
	while (str[i] != '\0')
    3d06:	89 81       	ldd	r24, Y+1	; 0x01
    3d08:	28 2f       	mov	r18, r24
    3d0a:	30 e0       	ldi	r19, 0x00	; 0
    3d0c:	8a 81       	ldd	r24, Y+2	; 0x02
    3d0e:	9b 81       	ldd	r25, Y+3	; 0x03
    3d10:	fc 01       	movw	r30, r24
    3d12:	e2 0f       	add	r30, r18
    3d14:	f3 1f       	adc	r31, r19
    3d16:	80 81       	ld	r24, Z
    3d18:	88 23       	and	r24, r24
    3d1a:	39 f7       	brne	.-50     	; 0x3cea <LCD_displayString+0x14>
	{
		LCD_displayCharacter(str[i]);
		i++;
	}
}
    3d1c:	0f 90       	pop	r0
    3d1e:	0f 90       	pop	r0
    3d20:	0f 90       	pop	r0
    3d22:	cf 91       	pop	r28
    3d24:	df 91       	pop	r29
    3d26:	08 95       	ret

00003d28 <LCD_String_xy>:

void LCD_String_xy(char row, char pos, char *str, u8 *count) /* Send string to LCD with xy position */
{
    3d28:	df 93       	push	r29
    3d2a:	cf 93       	push	r28
    3d2c:	cd b7       	in	r28, 0x3d	; 61
    3d2e:	de b7       	in	r29, 0x3e	; 62
    3d30:	28 97       	sbiw	r28, 0x08	; 8
    3d32:	0f b6       	in	r0, 0x3f	; 63
    3d34:	f8 94       	cli
    3d36:	de bf       	out	0x3e, r29	; 62
    3d38:	0f be       	out	0x3f, r0	; 63
    3d3a:	cd bf       	out	0x3d, r28	; 61
    3d3c:	8b 83       	std	Y+3, r24	; 0x03
    3d3e:	6c 83       	std	Y+4, r22	; 0x04
    3d40:	5e 83       	std	Y+6, r21	; 0x06
    3d42:	4d 83       	std	Y+5, r20	; 0x05
    3d44:	38 87       	std	Y+8, r19	; 0x08
    3d46:	2f 83       	std	Y+7, r18	; 0x07
	u8 i = 0, c = 1;
    3d48:	1a 82       	std	Y+2, r1	; 0x02
    3d4a:	81 e0       	ldi	r24, 0x01	; 1
    3d4c:	89 83       	std	Y+1, r24	; 0x01
	if (row == 0 && pos < 16)
    3d4e:	8b 81       	ldd	r24, Y+3	; 0x03
    3d50:	88 23       	and	r24, r24
    3d52:	49 f4       	brne	.+18     	; 0x3d66 <LCD_String_xy+0x3e>
    3d54:	8c 81       	ldd	r24, Y+4	; 0x04
    3d56:	80 31       	cpi	r24, 0x10	; 16
    3d58:	30 f4       	brcc	.+12     	; 0x3d66 <LCD_String_xy+0x3e>
		LCD_sendCommand((pos & 0x0F) | 0x80); /* Command of first row and required position<16 */
    3d5a:	8c 81       	ldd	r24, Y+4	; 0x04
    3d5c:	8f 70       	andi	r24, 0x0F	; 15
    3d5e:	80 68       	ori	r24, 0x80	; 128
    3d60:	0e 94 ef 18 	call	0x31de	; 0x31de <LCD_sendCommand>
    3d64:	3a c0       	rjmp	.+116    	; 0x3dda <LCD_String_xy+0xb2>
	else if (row == 1 && pos < 16)
    3d66:	8b 81       	ldd	r24, Y+3	; 0x03
    3d68:	81 30       	cpi	r24, 0x01	; 1
    3d6a:	b9 f5       	brne	.+110    	; 0x3dda <LCD_String_xy+0xb2>
    3d6c:	8c 81       	ldd	r24, Y+4	; 0x04
    3d6e:	80 31       	cpi	r24, 0x10	; 16
    3d70:	a0 f5       	brcc	.+104    	; 0x3dda <LCD_String_xy+0xb2>
		LCD_sendCommand((pos & 0x0F) | 0xC0); /* Command of first row and required position<16 */
    3d72:	8c 81       	ldd	r24, Y+4	; 0x04
    3d74:	8f 70       	andi	r24, 0x0F	; 15
    3d76:	80 6c       	ori	r24, 0xC0	; 192
    3d78:	0e 94 ef 18 	call	0x31de	; 0x31de <LCD_sendCommand>
    3d7c:	2e c0       	rjmp	.+92     	; 0x3dda <LCD_String_xy+0xb2>

	while (str[i] != '\0')
	{
		LCD_displayCharacter(str[i]);
    3d7e:	8a 81       	ldd	r24, Y+2	; 0x02
    3d80:	28 2f       	mov	r18, r24
    3d82:	30 e0       	ldi	r19, 0x00	; 0
    3d84:	8d 81       	ldd	r24, Y+5	; 0x05
    3d86:	9e 81       	ldd	r25, Y+6	; 0x06
    3d88:	fc 01       	movw	r30, r24
    3d8a:	e2 0f       	add	r30, r18
    3d8c:	f3 1f       	adc	r31, r19
    3d8e:	80 81       	ld	r24, Z
    3d90:	0e 94 eb 1a 	call	0x35d6	; 0x35d6 <LCD_displayCharacter>
		i++;
    3d94:	8a 81       	ldd	r24, Y+2	; 0x02
    3d96:	8f 5f       	subi	r24, 0xFF	; 255
    3d98:	8a 83       	std	Y+2, r24	; 0x02

		if (row == 0 && pos > 2 && i == 11)
    3d9a:	8b 81       	ldd	r24, Y+3	; 0x03
    3d9c:	88 23       	and	r24, r24
    3d9e:	71 f4       	brne	.+28     	; 0x3dbc <LCD_String_xy+0x94>
    3da0:	8c 81       	ldd	r24, Y+4	; 0x04
    3da2:	83 30       	cpi	r24, 0x03	; 3
    3da4:	58 f0       	brcs	.+22     	; 0x3dbc <LCD_String_xy+0x94>
    3da6:	8a 81       	ldd	r24, Y+2	; 0x02
    3da8:	8b 30       	cpi	r24, 0x0B	; 11
    3daa:	41 f4       	brne	.+16     	; 0x3dbc <LCD_String_xy+0x94>
		{
			LCD_GoToXY(1, 0);
    3dac:	81 e0       	ldi	r24, 0x01	; 1
    3dae:	60 e0       	ldi	r22, 0x00	; 0
    3db0:	0e 94 41 1e 	call	0x3c82	; 0x3c82 <LCD_GoToXY>
			c++;
    3db4:	89 81       	ldd	r24, Y+1	; 0x01
    3db6:	8f 5f       	subi	r24, 0xFF	; 255
    3db8:	89 83       	std	Y+1, r24	; 0x01
    3dba:	0b c0       	rjmp	.+22     	; 0x3dd2 <LCD_String_xy+0xaa>
		}

		else if (row == 1 && pos > 2 && i == 11)
    3dbc:	8b 81       	ldd	r24, Y+3	; 0x03
    3dbe:	81 30       	cpi	r24, 0x01	; 1
    3dc0:	41 f4       	brne	.+16     	; 0x3dd2 <LCD_String_xy+0xaa>
    3dc2:	8c 81       	ldd	r24, Y+4	; 0x04
    3dc4:	83 30       	cpi	r24, 0x03	; 3
    3dc6:	28 f0       	brcs	.+10     	; 0x3dd2 <LCD_String_xy+0xaa>
    3dc8:	8a 81       	ldd	r24, Y+2	; 0x02
    3dca:	8b 30       	cpi	r24, 0x0B	; 11
    3dcc:	11 f4       	brne	.+4      	; 0x3dd2 <LCD_String_xy+0xaa>
		{
			LCD_ClearScreen();
    3dce:	0e 94 01 1f 	call	0x3e02	; 0x3e02 <LCD_ClearScreen>
		}

		*count = c;
    3dd2:	ef 81       	ldd	r30, Y+7	; 0x07
    3dd4:	f8 85       	ldd	r31, Y+8	; 0x08
    3dd6:	89 81       	ldd	r24, Y+1	; 0x01
    3dd8:	80 83       	st	Z, r24
	if (row == 0 && pos < 16)
		LCD_sendCommand((pos & 0x0F) | 0x80); /* Command of first row and required position<16 */
	else if (row == 1 && pos < 16)
		LCD_sendCommand((pos & 0x0F) | 0xC0); /* Command of first row and required position<16 */

	while (str[i] != '\0')
    3dda:	8a 81       	ldd	r24, Y+2	; 0x02
    3ddc:	28 2f       	mov	r18, r24
    3dde:	30 e0       	ldi	r19, 0x00	; 0
    3de0:	8d 81       	ldd	r24, Y+5	; 0x05
    3de2:	9e 81       	ldd	r25, Y+6	; 0x06
    3de4:	fc 01       	movw	r30, r24
    3de6:	e2 0f       	add	r30, r18
    3de8:	f3 1f       	adc	r31, r19
    3dea:	80 81       	ld	r24, Z
    3dec:	88 23       	and	r24, r24
    3dee:	39 f6       	brne	.-114    	; 0x3d7e <LCD_String_xy+0x56>
			LCD_ClearScreen();
		}

		*count = c;
	}
}
    3df0:	28 96       	adiw	r28, 0x08	; 8
    3df2:	0f b6       	in	r0, 0x3f	; 63
    3df4:	f8 94       	cli
    3df6:	de bf       	out	0x3e, r29	; 62
    3df8:	0f be       	out	0x3f, r0	; 63
    3dfa:	cd bf       	out	0x3d, r28	; 61
    3dfc:	cf 91       	pop	r28
    3dfe:	df 91       	pop	r29
    3e00:	08 95       	ret

00003e02 <LCD_ClearScreen>:

void LCD_ClearScreen(void)
{
    3e02:	df 93       	push	r29
    3e04:	cf 93       	push	r28
    3e06:	cd b7       	in	r28, 0x3d	; 61
    3e08:	de b7       	in	r29, 0x3e	; 62
    3e0a:	2e 97       	sbiw	r28, 0x0e	; 14
    3e0c:	0f b6       	in	r0, 0x3f	; 63
    3e0e:	f8 94       	cli
    3e10:	de bf       	out	0x3e, r29	; 62
    3e12:	0f be       	out	0x3f, r0	; 63
    3e14:	cd bf       	out	0x3d, r28	; 61
	LCD_sendCommand(0x01);
    3e16:	81 e0       	ldi	r24, 0x01	; 1
    3e18:	0e 94 ef 18 	call	0x31de	; 0x31de <LCD_sendCommand>
    3e1c:	80 e0       	ldi	r24, 0x00	; 0
    3e1e:	90 e0       	ldi	r25, 0x00	; 0
    3e20:	a0 e0       	ldi	r26, 0x00	; 0
    3e22:	b0 e4       	ldi	r27, 0x40	; 64
    3e24:	8b 87       	std	Y+11, r24	; 0x0b
    3e26:	9c 87       	std	Y+12, r25	; 0x0c
    3e28:	ad 87       	std	Y+13, r26	; 0x0d
    3e2a:	be 87       	std	Y+14, r27	; 0x0e
 */
void
_delay_ms(double __ms)
{
	uint16_t __ticks;
	double __tmp = ((F_CPU) / 4e3) * __ms;
    3e2c:	6b 85       	ldd	r22, Y+11	; 0x0b
    3e2e:	7c 85       	ldd	r23, Y+12	; 0x0c
    3e30:	8d 85       	ldd	r24, Y+13	; 0x0d
    3e32:	9e 85       	ldd	r25, Y+14	; 0x0e
    3e34:	20 e0       	ldi	r18, 0x00	; 0
    3e36:	30 e0       	ldi	r19, 0x00	; 0
    3e38:	4a e7       	ldi	r20, 0x7A	; 122
    3e3a:	55 e4       	ldi	r21, 0x45	; 69
    3e3c:	0e 94 1f 02 	call	0x43e	; 0x43e <__mulsf3>
    3e40:	dc 01       	movw	r26, r24
    3e42:	cb 01       	movw	r24, r22
    3e44:	8f 83       	std	Y+7, r24	; 0x07
    3e46:	98 87       	std	Y+8, r25	; 0x08
    3e48:	a9 87       	std	Y+9, r26	; 0x09
    3e4a:	ba 87       	std	Y+10, r27	; 0x0a
	if (__tmp < 1.0)
    3e4c:	6f 81       	ldd	r22, Y+7	; 0x07
    3e4e:	78 85       	ldd	r23, Y+8	; 0x08
    3e50:	89 85       	ldd	r24, Y+9	; 0x09
    3e52:	9a 85       	ldd	r25, Y+10	; 0x0a
    3e54:	20 e0       	ldi	r18, 0x00	; 0
    3e56:	30 e0       	ldi	r19, 0x00	; 0
    3e58:	40 e8       	ldi	r20, 0x80	; 128
    3e5a:	5f e3       	ldi	r21, 0x3F	; 63
    3e5c:	0e 94 79 03 	call	0x6f2	; 0x6f2 <__ltsf2>
    3e60:	88 23       	and	r24, r24
    3e62:	2c f4       	brge	.+10     	; 0x3e6e <LCD_ClearScreen+0x6c>
		__ticks = 1;
    3e64:	81 e0       	ldi	r24, 0x01	; 1
    3e66:	90 e0       	ldi	r25, 0x00	; 0
    3e68:	9e 83       	std	Y+6, r25	; 0x06
    3e6a:	8d 83       	std	Y+5, r24	; 0x05
    3e6c:	3f c0       	rjmp	.+126    	; 0x3eec <LCD_ClearScreen+0xea>
	else if (__tmp > 65535)
    3e6e:	6f 81       	ldd	r22, Y+7	; 0x07
    3e70:	78 85       	ldd	r23, Y+8	; 0x08
    3e72:	89 85       	ldd	r24, Y+9	; 0x09
    3e74:	9a 85       	ldd	r25, Y+10	; 0x0a
    3e76:	20 e0       	ldi	r18, 0x00	; 0
    3e78:	3f ef       	ldi	r19, 0xFF	; 255
    3e7a:	4f e7       	ldi	r20, 0x7F	; 127
    3e7c:	57 e4       	ldi	r21, 0x47	; 71
    3e7e:	0e 94 19 03 	call	0x632	; 0x632 <__gtsf2>
    3e82:	18 16       	cp	r1, r24
    3e84:	4c f5       	brge	.+82     	; 0x3ed8 <LCD_ClearScreen+0xd6>
	{
		//	__ticks = requested delay in 1/10 ms
		__ticks = (uint16_t) (__ms * 10.0);
    3e86:	6b 85       	ldd	r22, Y+11	; 0x0b
    3e88:	7c 85       	ldd	r23, Y+12	; 0x0c
    3e8a:	8d 85       	ldd	r24, Y+13	; 0x0d
    3e8c:	9e 85       	ldd	r25, Y+14	; 0x0e
    3e8e:	20 e0       	ldi	r18, 0x00	; 0
    3e90:	30 e0       	ldi	r19, 0x00	; 0
    3e92:	40 e2       	ldi	r20, 0x20	; 32
    3e94:	51 e4       	ldi	r21, 0x41	; 65
    3e96:	0e 94 1f 02 	call	0x43e	; 0x43e <__mulsf3>
    3e9a:	dc 01       	movw	r26, r24
    3e9c:	cb 01       	movw	r24, r22
    3e9e:	bc 01       	movw	r22, r24
    3ea0:	cd 01       	movw	r24, r26
    3ea2:	0e 94 49 00 	call	0x92	; 0x92 <__fixunssfsi>
    3ea6:	dc 01       	movw	r26, r24
    3ea8:	cb 01       	movw	r24, r22
    3eaa:	9e 83       	std	Y+6, r25	; 0x06
    3eac:	8d 83       	std	Y+5, r24	; 0x05
    3eae:	0f c0       	rjmp	.+30     	; 0x3ece <LCD_ClearScreen+0xcc>
    3eb0:	80 e9       	ldi	r24, 0x90	; 144
    3eb2:	91 e0       	ldi	r25, 0x01	; 1
    3eb4:	9c 83       	std	Y+4, r25	; 0x04
    3eb6:	8b 83       	std	Y+3, r24	; 0x03
    3eb8:	8b 81       	ldd	r24, Y+3	; 0x03
    3eba:	9c 81       	ldd	r25, Y+4	; 0x04
    3ebc:	01 97       	sbiw	r24, 0x01	; 1
    3ebe:	f1 f7       	brne	.-4      	; 0x3ebc <LCD_ClearScreen+0xba>
    3ec0:	9c 83       	std	Y+4, r25	; 0x04
    3ec2:	8b 83       	std	Y+3, r24	; 0x03
		while(__ticks)
		{
			// wait 1/10 ms
			_delay_loop_2(((F_CPU) / 4e3) / 10);
			__ticks --;
    3ec4:	8d 81       	ldd	r24, Y+5	; 0x05
    3ec6:	9e 81       	ldd	r25, Y+6	; 0x06
    3ec8:	01 97       	sbiw	r24, 0x01	; 1
    3eca:	9e 83       	std	Y+6, r25	; 0x06
    3ecc:	8d 83       	std	Y+5, r24	; 0x05
		__ticks = 1;
	else if (__tmp > 65535)
	{
		//	__ticks = requested delay in 1/10 ms
		__ticks = (uint16_t) (__ms * 10.0);
		while(__ticks)
    3ece:	8d 81       	ldd	r24, Y+5	; 0x05
    3ed0:	9e 81       	ldd	r25, Y+6	; 0x06
    3ed2:	00 97       	sbiw	r24, 0x00	; 0
    3ed4:	69 f7       	brne	.-38     	; 0x3eb0 <LCD_ClearScreen+0xae>
    3ed6:	14 c0       	rjmp	.+40     	; 0x3f00 <LCD_ClearScreen+0xfe>
			__ticks --;
		}
		return;
	}
	else
		__ticks = (uint16_t)__tmp;
    3ed8:	6f 81       	ldd	r22, Y+7	; 0x07
    3eda:	78 85       	ldd	r23, Y+8	; 0x08
    3edc:	89 85       	ldd	r24, Y+9	; 0x09
    3ede:	9a 85       	ldd	r25, Y+10	; 0x0a
    3ee0:	0e 94 49 00 	call	0x92	; 0x92 <__fixunssfsi>
    3ee4:	dc 01       	movw	r26, r24
    3ee6:	cb 01       	movw	r24, r22
    3ee8:	9e 83       	std	Y+6, r25	; 0x06
    3eea:	8d 83       	std	Y+5, r24	; 0x05
    3eec:	8d 81       	ldd	r24, Y+5	; 0x05
    3eee:	9e 81       	ldd	r25, Y+6	; 0x06
    3ef0:	9a 83       	std	Y+2, r25	; 0x02
    3ef2:	89 83       	std	Y+1, r24	; 0x01
    3ef4:	89 81       	ldd	r24, Y+1	; 0x01
    3ef6:	9a 81       	ldd	r25, Y+2	; 0x02
    3ef8:	01 97       	sbiw	r24, 0x01	; 1
    3efa:	f1 f7       	brne	.-4      	; 0x3ef8 <LCD_ClearScreen+0xf6>
    3efc:	9a 83       	std	Y+2, r25	; 0x02
    3efe:	89 83       	std	Y+1, r24	; 0x01
	_delay_ms(2);
}
    3f00:	2e 96       	adiw	r28, 0x0e	; 14
    3f02:	0f b6       	in	r0, 0x3f	; 63
    3f04:	f8 94       	cli
    3f06:	de bf       	out	0x3e, r29	; 62
    3f08:	0f be       	out	0x3f, r0	; 63
    3f0a:	cd bf       	out	0x3d, r28	; 61
    3f0c:	cf 91       	pop	r28
    3f0e:	df 91       	pop	r29
    3f10:	08 95       	ret

00003f12 <LCD_ShiftingLeft>:

void LCD_ShiftingLeft(void)
{
    3f12:	df 93       	push	r29
    3f14:	cf 93       	push	r28
    3f16:	cd b7       	in	r28, 0x3d	; 61
    3f18:	de b7       	in	r29, 0x3e	; 62
    3f1a:	2e 97       	sbiw	r28, 0x0e	; 14
    3f1c:	0f b6       	in	r0, 0x3f	; 63
    3f1e:	f8 94       	cli
    3f20:	de bf       	out	0x3e, r29	; 62
    3f22:	0f be       	out	0x3f, r0	; 63
    3f24:	cd bf       	out	0x3d, r28	; 61
	LCD_sendCommand(LCD_ShiftLeft);
    3f26:	88 e1       	ldi	r24, 0x18	; 24
    3f28:	0e 94 ef 18 	call	0x31de	; 0x31de <LCD_sendCommand>
    3f2c:	80 e0       	ldi	r24, 0x00	; 0
    3f2e:	90 e0       	ldi	r25, 0x00	; 0
    3f30:	a0 ea       	ldi	r26, 0xA0	; 160
    3f32:	b1 e4       	ldi	r27, 0x41	; 65
    3f34:	8b 87       	std	Y+11, r24	; 0x0b
    3f36:	9c 87       	std	Y+12, r25	; 0x0c
    3f38:	ad 87       	std	Y+13, r26	; 0x0d
    3f3a:	be 87       	std	Y+14, r27	; 0x0e
 */
void
_delay_ms(double __ms)
{
	uint16_t __ticks;
	double __tmp = ((F_CPU) / 4e3) * __ms;
    3f3c:	6b 85       	ldd	r22, Y+11	; 0x0b
    3f3e:	7c 85       	ldd	r23, Y+12	; 0x0c
    3f40:	8d 85       	ldd	r24, Y+13	; 0x0d
    3f42:	9e 85       	ldd	r25, Y+14	; 0x0e
    3f44:	20 e0       	ldi	r18, 0x00	; 0
    3f46:	30 e0       	ldi	r19, 0x00	; 0
    3f48:	4a e7       	ldi	r20, 0x7A	; 122
    3f4a:	55 e4       	ldi	r21, 0x45	; 69
    3f4c:	0e 94 1f 02 	call	0x43e	; 0x43e <__mulsf3>
    3f50:	dc 01       	movw	r26, r24
    3f52:	cb 01       	movw	r24, r22
    3f54:	8f 83       	std	Y+7, r24	; 0x07
    3f56:	98 87       	std	Y+8, r25	; 0x08
    3f58:	a9 87       	std	Y+9, r26	; 0x09
    3f5a:	ba 87       	std	Y+10, r27	; 0x0a
	if (__tmp < 1.0)
    3f5c:	6f 81       	ldd	r22, Y+7	; 0x07
    3f5e:	78 85       	ldd	r23, Y+8	; 0x08
    3f60:	89 85       	ldd	r24, Y+9	; 0x09
    3f62:	9a 85       	ldd	r25, Y+10	; 0x0a
    3f64:	20 e0       	ldi	r18, 0x00	; 0
    3f66:	30 e0       	ldi	r19, 0x00	; 0
    3f68:	40 e8       	ldi	r20, 0x80	; 128
    3f6a:	5f e3       	ldi	r21, 0x3F	; 63
    3f6c:	0e 94 79 03 	call	0x6f2	; 0x6f2 <__ltsf2>
    3f70:	88 23       	and	r24, r24
    3f72:	2c f4       	brge	.+10     	; 0x3f7e <LCD_ShiftingLeft+0x6c>
		__ticks = 1;
    3f74:	81 e0       	ldi	r24, 0x01	; 1
    3f76:	90 e0       	ldi	r25, 0x00	; 0
    3f78:	9e 83       	std	Y+6, r25	; 0x06
    3f7a:	8d 83       	std	Y+5, r24	; 0x05
    3f7c:	3f c0       	rjmp	.+126    	; 0x3ffc <LCD_ShiftingLeft+0xea>
	else if (__tmp > 65535)
    3f7e:	6f 81       	ldd	r22, Y+7	; 0x07
    3f80:	78 85       	ldd	r23, Y+8	; 0x08
    3f82:	89 85       	ldd	r24, Y+9	; 0x09
    3f84:	9a 85       	ldd	r25, Y+10	; 0x0a
    3f86:	20 e0       	ldi	r18, 0x00	; 0
    3f88:	3f ef       	ldi	r19, 0xFF	; 255
    3f8a:	4f e7       	ldi	r20, 0x7F	; 127
    3f8c:	57 e4       	ldi	r21, 0x47	; 71
    3f8e:	0e 94 19 03 	call	0x632	; 0x632 <__gtsf2>
    3f92:	18 16       	cp	r1, r24
    3f94:	4c f5       	brge	.+82     	; 0x3fe8 <LCD_ShiftingLeft+0xd6>
	{
		//	__ticks = requested delay in 1/10 ms
		__ticks = (uint16_t) (__ms * 10.0);
    3f96:	6b 85       	ldd	r22, Y+11	; 0x0b
    3f98:	7c 85       	ldd	r23, Y+12	; 0x0c
    3f9a:	8d 85       	ldd	r24, Y+13	; 0x0d
    3f9c:	9e 85       	ldd	r25, Y+14	; 0x0e
    3f9e:	20 e0       	ldi	r18, 0x00	; 0
    3fa0:	30 e0       	ldi	r19, 0x00	; 0
    3fa2:	40 e2       	ldi	r20, 0x20	; 32
    3fa4:	51 e4       	ldi	r21, 0x41	; 65
    3fa6:	0e 94 1f 02 	call	0x43e	; 0x43e <__mulsf3>
    3faa:	dc 01       	movw	r26, r24
    3fac:	cb 01       	movw	r24, r22
    3fae:	bc 01       	movw	r22, r24
    3fb0:	cd 01       	movw	r24, r26
    3fb2:	0e 94 49 00 	call	0x92	; 0x92 <__fixunssfsi>
    3fb6:	dc 01       	movw	r26, r24
    3fb8:	cb 01       	movw	r24, r22
    3fba:	9e 83       	std	Y+6, r25	; 0x06
    3fbc:	8d 83       	std	Y+5, r24	; 0x05
    3fbe:	0f c0       	rjmp	.+30     	; 0x3fde <LCD_ShiftingLeft+0xcc>
    3fc0:	80 e9       	ldi	r24, 0x90	; 144
    3fc2:	91 e0       	ldi	r25, 0x01	; 1
    3fc4:	9c 83       	std	Y+4, r25	; 0x04
    3fc6:	8b 83       	std	Y+3, r24	; 0x03
    3fc8:	8b 81       	ldd	r24, Y+3	; 0x03
    3fca:	9c 81       	ldd	r25, Y+4	; 0x04
    3fcc:	01 97       	sbiw	r24, 0x01	; 1
    3fce:	f1 f7       	brne	.-4      	; 0x3fcc <LCD_ShiftingLeft+0xba>
    3fd0:	9c 83       	std	Y+4, r25	; 0x04
    3fd2:	8b 83       	std	Y+3, r24	; 0x03
		while(__ticks)
		{
			// wait 1/10 ms
			_delay_loop_2(((F_CPU) / 4e3) / 10);
			__ticks --;
    3fd4:	8d 81       	ldd	r24, Y+5	; 0x05
    3fd6:	9e 81       	ldd	r25, Y+6	; 0x06
    3fd8:	01 97       	sbiw	r24, 0x01	; 1
    3fda:	9e 83       	std	Y+6, r25	; 0x06
    3fdc:	8d 83       	std	Y+5, r24	; 0x05
		__ticks = 1;
	else if (__tmp > 65535)
	{
		//	__ticks = requested delay in 1/10 ms
		__ticks = (uint16_t) (__ms * 10.0);
		while(__ticks)
    3fde:	8d 81       	ldd	r24, Y+5	; 0x05
    3fe0:	9e 81       	ldd	r25, Y+6	; 0x06
    3fe2:	00 97       	sbiw	r24, 0x00	; 0
    3fe4:	69 f7       	brne	.-38     	; 0x3fc0 <LCD_ShiftingLeft+0xae>
    3fe6:	14 c0       	rjmp	.+40     	; 0x4010 <LCD_ShiftingLeft+0xfe>
			__ticks --;
		}
		return;
	}
	else
		__ticks = (uint16_t)__tmp;
    3fe8:	6f 81       	ldd	r22, Y+7	; 0x07
    3fea:	78 85       	ldd	r23, Y+8	; 0x08
    3fec:	89 85       	ldd	r24, Y+9	; 0x09
    3fee:	9a 85       	ldd	r25, Y+10	; 0x0a
    3ff0:	0e 94 49 00 	call	0x92	; 0x92 <__fixunssfsi>
    3ff4:	dc 01       	movw	r26, r24
    3ff6:	cb 01       	movw	r24, r22
    3ff8:	9e 83       	std	Y+6, r25	; 0x06
    3ffa:	8d 83       	std	Y+5, r24	; 0x05
    3ffc:	8d 81       	ldd	r24, Y+5	; 0x05
    3ffe:	9e 81       	ldd	r25, Y+6	; 0x06
    4000:	9a 83       	std	Y+2, r25	; 0x02
    4002:	89 83       	std	Y+1, r24	; 0x01
    4004:	89 81       	ldd	r24, Y+1	; 0x01
    4006:	9a 81       	ldd	r25, Y+2	; 0x02
    4008:	01 97       	sbiw	r24, 0x01	; 1
    400a:	f1 f7       	brne	.-4      	; 0x4008 <LCD_ShiftingLeft+0xf6>
    400c:	9a 83       	std	Y+2, r25	; 0x02
    400e:	89 83       	std	Y+1, r24	; 0x01
	_delay_ms(20);
}
    4010:	2e 96       	adiw	r28, 0x0e	; 14
    4012:	0f b6       	in	r0, 0x3f	; 63
    4014:	f8 94       	cli
    4016:	de bf       	out	0x3e, r29	; 62
    4018:	0f be       	out	0x3f, r0	; 63
    401a:	cd bf       	out	0x3d, r28	; 61
    401c:	cf 91       	pop	r28
    401e:	df 91       	pop	r29
    4020:	08 95       	ret

00004022 <LCD_ShiftingRight>:

void LCD_ShiftingRight(void)
{
    4022:	df 93       	push	r29
    4024:	cf 93       	push	r28
    4026:	cd b7       	in	r28, 0x3d	; 61
    4028:	de b7       	in	r29, 0x3e	; 62
    402a:	2e 97       	sbiw	r28, 0x0e	; 14
    402c:	0f b6       	in	r0, 0x3f	; 63
    402e:	f8 94       	cli
    4030:	de bf       	out	0x3e, r29	; 62
    4032:	0f be       	out	0x3f, r0	; 63
    4034:	cd bf       	out	0x3d, r28	; 61
	LCD_sendCommand(LCD_ShiftRight);
    4036:	8c e1       	ldi	r24, 0x1C	; 28
    4038:	0e 94 ef 18 	call	0x31de	; 0x31de <LCD_sendCommand>
    403c:	80 e0       	ldi	r24, 0x00	; 0
    403e:	90 e0       	ldi	r25, 0x00	; 0
    4040:	a0 ea       	ldi	r26, 0xA0	; 160
    4042:	b1 e4       	ldi	r27, 0x41	; 65
    4044:	8b 87       	std	Y+11, r24	; 0x0b
    4046:	9c 87       	std	Y+12, r25	; 0x0c
    4048:	ad 87       	std	Y+13, r26	; 0x0d
    404a:	be 87       	std	Y+14, r27	; 0x0e
 */
void
_delay_ms(double __ms)
{
	uint16_t __ticks;
	double __tmp = ((F_CPU) / 4e3) * __ms;
    404c:	6b 85       	ldd	r22, Y+11	; 0x0b
    404e:	7c 85       	ldd	r23, Y+12	; 0x0c
    4050:	8d 85       	ldd	r24, Y+13	; 0x0d
    4052:	9e 85       	ldd	r25, Y+14	; 0x0e
    4054:	20 e0       	ldi	r18, 0x00	; 0
    4056:	30 e0       	ldi	r19, 0x00	; 0
    4058:	4a e7       	ldi	r20, 0x7A	; 122
    405a:	55 e4       	ldi	r21, 0x45	; 69
    405c:	0e 94 1f 02 	call	0x43e	; 0x43e <__mulsf3>
    4060:	dc 01       	movw	r26, r24
    4062:	cb 01       	movw	r24, r22
    4064:	8f 83       	std	Y+7, r24	; 0x07
    4066:	98 87       	std	Y+8, r25	; 0x08
    4068:	a9 87       	std	Y+9, r26	; 0x09
    406a:	ba 87       	std	Y+10, r27	; 0x0a
	if (__tmp < 1.0)
    406c:	6f 81       	ldd	r22, Y+7	; 0x07
    406e:	78 85       	ldd	r23, Y+8	; 0x08
    4070:	89 85       	ldd	r24, Y+9	; 0x09
    4072:	9a 85       	ldd	r25, Y+10	; 0x0a
    4074:	20 e0       	ldi	r18, 0x00	; 0
    4076:	30 e0       	ldi	r19, 0x00	; 0
    4078:	40 e8       	ldi	r20, 0x80	; 128
    407a:	5f e3       	ldi	r21, 0x3F	; 63
    407c:	0e 94 79 03 	call	0x6f2	; 0x6f2 <__ltsf2>
    4080:	88 23       	and	r24, r24
    4082:	2c f4       	brge	.+10     	; 0x408e <LCD_ShiftingRight+0x6c>
		__ticks = 1;
    4084:	81 e0       	ldi	r24, 0x01	; 1
    4086:	90 e0       	ldi	r25, 0x00	; 0
    4088:	9e 83       	std	Y+6, r25	; 0x06
    408a:	8d 83       	std	Y+5, r24	; 0x05
    408c:	3f c0       	rjmp	.+126    	; 0x410c <LCD_ShiftingRight+0xea>
	else if (__tmp > 65535)
    408e:	6f 81       	ldd	r22, Y+7	; 0x07
    4090:	78 85       	ldd	r23, Y+8	; 0x08
    4092:	89 85       	ldd	r24, Y+9	; 0x09
    4094:	9a 85       	ldd	r25, Y+10	; 0x0a
    4096:	20 e0       	ldi	r18, 0x00	; 0
    4098:	3f ef       	ldi	r19, 0xFF	; 255
    409a:	4f e7       	ldi	r20, 0x7F	; 127
    409c:	57 e4       	ldi	r21, 0x47	; 71
    409e:	0e 94 19 03 	call	0x632	; 0x632 <__gtsf2>
    40a2:	18 16       	cp	r1, r24
    40a4:	4c f5       	brge	.+82     	; 0x40f8 <LCD_ShiftingRight+0xd6>
	{
		//	__ticks = requested delay in 1/10 ms
		__ticks = (uint16_t) (__ms * 10.0);
    40a6:	6b 85       	ldd	r22, Y+11	; 0x0b
    40a8:	7c 85       	ldd	r23, Y+12	; 0x0c
    40aa:	8d 85       	ldd	r24, Y+13	; 0x0d
    40ac:	9e 85       	ldd	r25, Y+14	; 0x0e
    40ae:	20 e0       	ldi	r18, 0x00	; 0
    40b0:	30 e0       	ldi	r19, 0x00	; 0
    40b2:	40 e2       	ldi	r20, 0x20	; 32
    40b4:	51 e4       	ldi	r21, 0x41	; 65
    40b6:	0e 94 1f 02 	call	0x43e	; 0x43e <__mulsf3>
    40ba:	dc 01       	movw	r26, r24
    40bc:	cb 01       	movw	r24, r22
    40be:	bc 01       	movw	r22, r24
    40c0:	cd 01       	movw	r24, r26
    40c2:	0e 94 49 00 	call	0x92	; 0x92 <__fixunssfsi>
    40c6:	dc 01       	movw	r26, r24
    40c8:	cb 01       	movw	r24, r22
    40ca:	9e 83       	std	Y+6, r25	; 0x06
    40cc:	8d 83       	std	Y+5, r24	; 0x05
    40ce:	0f c0       	rjmp	.+30     	; 0x40ee <LCD_ShiftingRight+0xcc>
    40d0:	80 e9       	ldi	r24, 0x90	; 144
    40d2:	91 e0       	ldi	r25, 0x01	; 1
    40d4:	9c 83       	std	Y+4, r25	; 0x04
    40d6:	8b 83       	std	Y+3, r24	; 0x03
    40d8:	8b 81       	ldd	r24, Y+3	; 0x03
    40da:	9c 81       	ldd	r25, Y+4	; 0x04
    40dc:	01 97       	sbiw	r24, 0x01	; 1
    40de:	f1 f7       	brne	.-4      	; 0x40dc <LCD_ShiftingRight+0xba>
    40e0:	9c 83       	std	Y+4, r25	; 0x04
    40e2:	8b 83       	std	Y+3, r24	; 0x03
		while(__ticks)
		{
			// wait 1/10 ms
			_delay_loop_2(((F_CPU) / 4e3) / 10);
			__ticks --;
    40e4:	8d 81       	ldd	r24, Y+5	; 0x05
    40e6:	9e 81       	ldd	r25, Y+6	; 0x06
    40e8:	01 97       	sbiw	r24, 0x01	; 1
    40ea:	9e 83       	std	Y+6, r25	; 0x06
    40ec:	8d 83       	std	Y+5, r24	; 0x05
		__ticks = 1;
	else if (__tmp > 65535)
	{
		//	__ticks = requested delay in 1/10 ms
		__ticks = (uint16_t) (__ms * 10.0);
		while(__ticks)
    40ee:	8d 81       	ldd	r24, Y+5	; 0x05
    40f0:	9e 81       	ldd	r25, Y+6	; 0x06
    40f2:	00 97       	sbiw	r24, 0x00	; 0
    40f4:	69 f7       	brne	.-38     	; 0x40d0 <LCD_ShiftingRight+0xae>
    40f6:	14 c0       	rjmp	.+40     	; 0x4120 <LCD_ShiftingRight+0xfe>
			__ticks --;
		}
		return;
	}
	else
		__ticks = (uint16_t)__tmp;
    40f8:	6f 81       	ldd	r22, Y+7	; 0x07
    40fa:	78 85       	ldd	r23, Y+8	; 0x08
    40fc:	89 85       	ldd	r24, Y+9	; 0x09
    40fe:	9a 85       	ldd	r25, Y+10	; 0x0a
    4100:	0e 94 49 00 	call	0x92	; 0x92 <__fixunssfsi>
    4104:	dc 01       	movw	r26, r24
    4106:	cb 01       	movw	r24, r22
    4108:	9e 83       	std	Y+6, r25	; 0x06
    410a:	8d 83       	std	Y+5, r24	; 0x05
    410c:	8d 81       	ldd	r24, Y+5	; 0x05
    410e:	9e 81       	ldd	r25, Y+6	; 0x06
    4110:	9a 83       	std	Y+2, r25	; 0x02
    4112:	89 83       	std	Y+1, r24	; 0x01
    4114:	89 81       	ldd	r24, Y+1	; 0x01
    4116:	9a 81       	ldd	r25, Y+2	; 0x02
    4118:	01 97       	sbiw	r24, 0x01	; 1
    411a:	f1 f7       	brne	.-4      	; 0x4118 <LCD_ShiftingRight+0xf6>
    411c:	9a 83       	std	Y+2, r25	; 0x02
    411e:	89 83       	std	Y+1, r24	; 0x01
	_delay_ms(20);
}
    4120:	2e 96       	adiw	r28, 0x0e	; 14
    4122:	0f b6       	in	r0, 0x3f	; 63
    4124:	f8 94       	cli
    4126:	de bf       	out	0x3e, r29	; 62
    4128:	0f be       	out	0x3f, r0	; 63
    412a:	cd bf       	out	0x3d, r28	; 61
    412c:	cf 91       	pop	r28
    412e:	df 91       	pop	r29
    4130:	08 95       	ret

00004132 <LCD_WriteSpecialChar>:

void LCD_WriteSpecialChar(u8 Copy_CharNum, u8 *Copy_u8P_Ptr, u8 Copy_u8LineNum, u8 Copy_u8Location, u8 Copy_u8SpecialCharStartBit)
{
    4132:	0f 93       	push	r16
    4134:	df 93       	push	r29
    4136:	cf 93       	push	r28
    4138:	cd b7       	in	r28, 0x3d	; 61
    413a:	de b7       	in	r29, 0x3e	; 62
    413c:	28 97       	sbiw	r28, 0x08	; 8
    413e:	0f b6       	in	r0, 0x3f	; 63
    4140:	f8 94       	cli
    4142:	de bf       	out	0x3e, r29	; 62
    4144:	0f be       	out	0x3f, r0	; 63
    4146:	cd bf       	out	0x3d, r28	; 61
    4148:	8b 83       	std	Y+3, r24	; 0x03
    414a:	7d 83       	std	Y+5, r23	; 0x05
    414c:	6c 83       	std	Y+4, r22	; 0x04
    414e:	4e 83       	std	Y+6, r20	; 0x06
    4150:	2f 83       	std	Y+7, r18	; 0x07
    4152:	08 87       	std	Y+8, r16	; 0x08
	LCD_sendCommand(Copy_u8SpecialCharStartBit);
    4154:	88 85       	ldd	r24, Y+8	; 0x08
    4156:	0e 94 ef 18 	call	0x31de	; 0x31de <LCD_sendCommand>
	for (int i = 0; i < 8; i++)
    415a:	1a 82       	std	Y+2, r1	; 0x02
    415c:	19 82       	std	Y+1, r1	; 0x01
    415e:	0f c0       	rjmp	.+30     	; 0x417e <LCD_WriteSpecialChar+0x4c>
	{
		LCD_displayCharacter(Copy_u8P_Ptr[i]);
    4160:	29 81       	ldd	r18, Y+1	; 0x01
    4162:	3a 81       	ldd	r19, Y+2	; 0x02
    4164:	8c 81       	ldd	r24, Y+4	; 0x04
    4166:	9d 81       	ldd	r25, Y+5	; 0x05
    4168:	fc 01       	movw	r30, r24
    416a:	e2 0f       	add	r30, r18
    416c:	f3 1f       	adc	r31, r19
    416e:	80 81       	ld	r24, Z
    4170:	0e 94 eb 1a 	call	0x35d6	; 0x35d6 <LCD_displayCharacter>
}

void LCD_WriteSpecialChar(u8 Copy_CharNum, u8 *Copy_u8P_Ptr, u8 Copy_u8LineNum, u8 Copy_u8Location, u8 Copy_u8SpecialCharStartBit)
{
	LCD_sendCommand(Copy_u8SpecialCharStartBit);
	for (int i = 0; i < 8; i++)
    4174:	89 81       	ldd	r24, Y+1	; 0x01
    4176:	9a 81       	ldd	r25, Y+2	; 0x02
    4178:	01 96       	adiw	r24, 0x01	; 1
    417a:	9a 83       	std	Y+2, r25	; 0x02
    417c:	89 83       	std	Y+1, r24	; 0x01
    417e:	89 81       	ldd	r24, Y+1	; 0x01
    4180:	9a 81       	ldd	r25, Y+2	; 0x02
    4182:	88 30       	cpi	r24, 0x08	; 8
    4184:	91 05       	cpc	r25, r1
    4186:	64 f3       	brlt	.-40     	; 0x4160 <LCD_WriteSpecialChar+0x2e>
	{
		LCD_displayCharacter(Copy_u8P_Ptr[i]);
	}
	LCD_GoToXY(Copy_u8LineNum, Copy_u8Location);
    4188:	8e 81       	ldd	r24, Y+6	; 0x06
    418a:	6f 81       	ldd	r22, Y+7	; 0x07
    418c:	0e 94 41 1e 	call	0x3c82	; 0x3c82 <LCD_GoToXY>
	LCD_displayCharacter(Copy_CharNum);
    4190:	8b 81       	ldd	r24, Y+3	; 0x03
    4192:	0e 94 eb 1a 	call	0x35d6	; 0x35d6 <LCD_displayCharacter>

	if (Copy_u8Location > 15)
    4196:	8f 81       	ldd	r24, Y+7	; 0x07
    4198:	80 31       	cpi	r24, 0x10	; 16
    419a:	48 f0       	brcs	.+18     	; 0x41ae <LCD_WriteSpecialChar+0x7c>
	{
		LCD_ClearScreen();
    419c:	0e 94 01 1f 	call	0x3e02	; 0x3e02 <LCD_ClearScreen>
		LCD_GoToXY(0, 0);
    41a0:	80 e0       	ldi	r24, 0x00	; 0
    41a2:	60 e0       	ldi	r22, 0x00	; 0
    41a4:	0e 94 41 1e 	call	0x3c82	; 0x3c82 <LCD_GoToXY>
		LCD_displayCharacter(Copy_CharNum);
    41a8:	8b 81       	ldd	r24, Y+3	; 0x03
    41aa:	0e 94 eb 1a 	call	0x35d6	; 0x35d6 <LCD_displayCharacter>
	}
}
    41ae:	28 96       	adiw	r28, 0x08	; 8
    41b0:	0f b6       	in	r0, 0x3f	; 63
    41b2:	f8 94       	cli
    41b4:	de bf       	out	0x3e, r29	; 62
    41b6:	0f be       	out	0x3f, r0	; 63
    41b8:	cd bf       	out	0x3d, r28	; 61
    41ba:	cf 91       	pop	r28
    41bc:	df 91       	pop	r29
    41be:	0f 91       	pop	r16
    41c0:	08 95       	ret

000041c2 <displayFloatOnLCD>:



void displayFloatOnLCD(f32 number) {
    41c2:	df 93       	push	r29
    41c4:	cf 93       	push	r28
    41c6:	cd b7       	in	r28, 0x3d	; 61
    41c8:	de b7       	in	r29, 0x3e	; 62
    41ca:	28 97       	sbiw	r28, 0x08	; 8
    41cc:	0f b6       	in	r0, 0x3f	; 63
    41ce:	f8 94       	cli
    41d0:	de bf       	out	0x3e, r29	; 62
    41d2:	0f be       	out	0x3f, r0	; 63
    41d4:	cd bf       	out	0x3d, r28	; 61
    41d6:	6d 83       	std	Y+5, r22	; 0x05
    41d8:	7e 83       	std	Y+6, r23	; 0x06
    41da:	8f 83       	std	Y+7, r24	; 0x07
    41dc:	98 87       	std	Y+8, r25	; 0x08
    int integerPart = (int)number;
    41de:	6d 81       	ldd	r22, Y+5	; 0x05
    41e0:	7e 81       	ldd	r23, Y+6	; 0x06
    41e2:	8f 81       	ldd	r24, Y+7	; 0x07
    41e4:	98 85       	ldd	r25, Y+8	; 0x08
    41e6:	0e 94 07 04 	call	0x80e	; 0x80e <__fixsfsi>
    41ea:	dc 01       	movw	r26, r24
    41ec:	cb 01       	movw	r24, r22
    41ee:	9c 83       	std	Y+4, r25	; 0x04
    41f0:	8b 83       	std	Y+3, r24	; 0x03
    int decimalPart = (number - integerPart) * 1000;
    41f2:	8b 81       	ldd	r24, Y+3	; 0x03
    41f4:	9c 81       	ldd	r25, Y+4	; 0x04
    41f6:	aa 27       	eor	r26, r26
    41f8:	97 fd       	sbrc	r25, 7
    41fa:	a0 95       	com	r26
    41fc:	ba 2f       	mov	r27, r26
    41fe:	bc 01       	movw	r22, r24
    4200:	cd 01       	movw	r24, r26
    4202:	0e 94 a9 03 	call	0x752	; 0x752 <__floatsisf>
    4206:	9b 01       	movw	r18, r22
    4208:	ac 01       	movw	r20, r24
    420a:	6d 81       	ldd	r22, Y+5	; 0x05
    420c:	7e 81       	ldd	r23, Y+6	; 0x06
    420e:	8f 81       	ldd	r24, Y+7	; 0x07
    4210:	98 85       	ldd	r25, Y+8	; 0x08
    4212:	0e 94 c1 01 	call	0x382	; 0x382 <__subsf3>
    4216:	dc 01       	movw	r26, r24
    4218:	cb 01       	movw	r24, r22
    421a:	bc 01       	movw	r22, r24
    421c:	cd 01       	movw	r24, r26
    421e:	20 e0       	ldi	r18, 0x00	; 0
    4220:	30 e0       	ldi	r19, 0x00	; 0
    4222:	4a e7       	ldi	r20, 0x7A	; 122
    4224:	54 e4       	ldi	r21, 0x44	; 68
    4226:	0e 94 1f 02 	call	0x43e	; 0x43e <__mulsf3>
    422a:	dc 01       	movw	r26, r24
    422c:	cb 01       	movw	r24, r22
    422e:	bc 01       	movw	r22, r24
    4230:	cd 01       	movw	r24, r26
    4232:	0e 94 07 04 	call	0x80e	; 0x80e <__fixsfsi>
    4236:	dc 01       	movw	r26, r24
    4238:	cb 01       	movw	r24, r22
    423a:	9a 83       	std	Y+2, r25	; 0x02
    423c:	89 83       	std	Y+1, r24	; 0x01
    if(integerPart >= 100){
    423e:	8b 81       	ldd	r24, Y+3	; 0x03
    4240:	9c 81       	ldd	r25, Y+4	; 0x04
    4242:	84 36       	cpi	r24, 0x64	; 100
    4244:	91 05       	cpc	r25, r1
    4246:	54 f0       	brlt	.+20     	; 0x425c <displayFloatOnLCD+0x9a>
    	integerPart /= 10;
    4248:	8b 81       	ldd	r24, Y+3	; 0x03
    424a:	9c 81       	ldd	r25, Y+4	; 0x04
    424c:	2a e0       	ldi	r18, 0x0A	; 10
    424e:	30 e0       	ldi	r19, 0x00	; 0
    4250:	b9 01       	movw	r22, r18
    4252:	0e 94 7c 31 	call	0x62f8	; 0x62f8 <__divmodhi4>
    4256:	cb 01       	movw	r24, r22
    4258:	9c 83       	std	Y+4, r25	; 0x04
    425a:	8b 83       	std	Y+3, r24	; 0x03
    }
    LCD_DisplayInteger(integerPart);
    425c:	8b 81       	ldd	r24, Y+3	; 0x03
    425e:	9c 81       	ldd	r25, Y+4	; 0x04
    4260:	aa 27       	eor	r26, r26
    4262:	97 fd       	sbrc	r25, 7
    4264:	a0 95       	com	r26
    4266:	ba 2f       	mov	r27, r26
    4268:	bc 01       	movw	r22, r24
    426a:	cd 01       	movw	r24, r26
    426c:	0e 94 e7 1c 	call	0x39ce	; 0x39ce <LCD_DisplayInteger>
    LCD_displayCharacter('.');
    4270:	8e e2       	ldi	r24, 0x2E	; 46
    4272:	0e 94 eb 1a 	call	0x35d6	; 0x35d6 <LCD_displayCharacter>
    LCD_DisplayInteger(decimalPart);
    4276:	89 81       	ldd	r24, Y+1	; 0x01
    4278:	9a 81       	ldd	r25, Y+2	; 0x02
    427a:	aa 27       	eor	r26, r26
    427c:	97 fd       	sbrc	r25, 7
    427e:	a0 95       	com	r26
    4280:	ba 2f       	mov	r27, r26
    4282:	bc 01       	movw	r22, r24
    4284:	cd 01       	movw	r24, r26
    4286:	0e 94 e7 1c 	call	0x39ce	; 0x39ce <LCD_DisplayInteger>
    
}
    428a:	28 96       	adiw	r28, 0x08	; 8
    428c:	0f b6       	in	r0, 0x3f	; 63
    428e:	f8 94       	cli
    4290:	de bf       	out	0x3e, r29	; 62
    4292:	0f be       	out	0x3f, r0	; 63
    4294:	cd bf       	out	0x3d, r28	; 61
    4296:	cf 91       	pop	r28
    4298:	df 91       	pop	r29
    429a:	08 95       	ret

0000429c <displayMinusNumbers>:

void displayMinusNumbers(f32 number) {
    429c:	df 93       	push	r29
    429e:	cf 93       	push	r28
    42a0:	00 d0       	rcall	.+0      	; 0x42a2 <displayMinusNumbers+0x6>
    42a2:	00 d0       	rcall	.+0      	; 0x42a4 <displayMinusNumbers+0x8>
    42a4:	cd b7       	in	r28, 0x3d	; 61
    42a6:	de b7       	in	r29, 0x3e	; 62
    42a8:	69 83       	std	Y+1, r22	; 0x01
    42aa:	7a 83       	std	Y+2, r23	; 0x02
    42ac:	8b 83       	std	Y+3, r24	; 0x03
    42ae:	9c 83       	std	Y+4, r25	; 0x04
	
	LCD_displayCharacter('-');
    42b0:	8d e2       	ldi	r24, 0x2D	; 45
    42b2:	0e 94 eb 1a 	call	0x35d6	; 0x35d6 <LCD_displayCharacter>
	number = -number;
    42b6:	89 81       	ldd	r24, Y+1	; 0x01
    42b8:	9a 81       	ldd	r25, Y+2	; 0x02
    42ba:	ab 81       	ldd	r26, Y+3	; 0x03
    42bc:	bc 81       	ldd	r27, Y+4	; 0x04
    42be:	b0 58       	subi	r27, 0x80	; 128
    42c0:	89 83       	std	Y+1, r24	; 0x01
    42c2:	9a 83       	std	Y+2, r25	; 0x02
    42c4:	ab 83       	std	Y+3, r26	; 0x03
    42c6:	bc 83       	std	Y+4, r27	; 0x04
	LCD_DisplayInteger(number);   
    42c8:	69 81       	ldd	r22, Y+1	; 0x01
    42ca:	7a 81       	ldd	r23, Y+2	; 0x02
    42cc:	8b 81       	ldd	r24, Y+3	; 0x03
    42ce:	9c 81       	ldd	r25, Y+4	; 0x04
    42d0:	0e 94 49 00 	call	0x92	; 0x92 <__fixunssfsi>
    42d4:	dc 01       	movw	r26, r24
    42d6:	cb 01       	movw	r24, r22
    42d8:	bc 01       	movw	r22, r24
    42da:	cd 01       	movw	r24, r26
    42dc:	0e 94 e7 1c 	call	0x39ce	; 0x39ce <LCD_DisplayInteger>
}
    42e0:	0f 90       	pop	r0
    42e2:	0f 90       	pop	r0
    42e4:	0f 90       	pop	r0
    42e6:	0f 90       	pop	r0
    42e8:	cf 91       	pop	r28
    42ea:	df 91       	pop	r29
    42ec:	08 95       	ret

000042ee <KPD_voidInit>:
const u8 KPD_Au8RowsPins[4] = {KPD_R1_PIN, KPD_R2_PIN, KPD_R3_PIN, KPD_R4_PIN};
const u8 KPD_Au8ColsPins[4] = {KPD_C1_PIN, KPD_C2_PIN, KPD_C3_PIN, KPD_C4_PIN};

/******************************************************************************************/

void KPD_voidInit(void){
    42ee:	df 93       	push	r29
    42f0:	cf 93       	push	r28
    42f2:	00 d0       	rcall	.+0      	; 0x42f4 <KPD_voidInit+0x6>
    42f4:	cd b7       	in	r28, 0x3d	; 61
    42f6:	de b7       	in	r29, 0x3e	; 62
	for(int i = 0; i <= 3; i++){
    42f8:	1a 82       	std	Y+2, r1	; 0x02
    42fa:	19 82       	std	Y+1, r1	; 0x01
    42fc:	31 c0       	rjmp	.+98     	; 0x4360 <KPD_voidInit+0x72>
		/* Rows */
		DIO_u8SetPinDirection(KPD_PORT, KPD_Au8RowsPins[i], DIO_u8_OUTPUT);
    42fe:	89 81       	ldd	r24, Y+1	; 0x01
    4300:	9a 81       	ldd	r25, Y+2	; 0x02
    4302:	fc 01       	movw	r30, r24
    4304:	e5 58       	subi	r30, 0x85	; 133
    4306:	fe 4f       	sbci	r31, 0xFE	; 254
    4308:	90 81       	ld	r25, Z
    430a:	80 e0       	ldi	r24, 0x00	; 0
    430c:	69 2f       	mov	r22, r25
    430e:	41 e0       	ldi	r20, 0x01	; 1
    4310:	0e 94 78 11 	call	0x22f0	; 0x22f0 <DIO_u8SetPinDirection>
		DIO_u8SetPinValue(KPD_PORT, KPD_Au8RowsPins[i], DIO_u8_OUTPUT_HIGH);
    4314:	89 81       	ldd	r24, Y+1	; 0x01
    4316:	9a 81       	ldd	r25, Y+2	; 0x02
    4318:	fc 01       	movw	r30, r24
    431a:	e5 58       	subi	r30, 0x85	; 133
    431c:	fe 4f       	sbci	r31, 0xFE	; 254
    431e:	90 81       	ld	r25, Z
    4320:	80 e0       	ldi	r24, 0x00	; 0
    4322:	69 2f       	mov	r22, r25
    4324:	41 e0       	ldi	r20, 0x01	; 1
    4326:	0e 94 a2 12 	call	0x2544	; 0x2544 <DIO_u8SetPinValue>
		
		/* Cols */
		DIO_u8SetPinDirection(KPD_PORT, KPD_Au8ColsPins[i], DIO_u8_INPUT);
    432a:	89 81       	ldd	r24, Y+1	; 0x01
    432c:	9a 81       	ldd	r25, Y+2	; 0x02
    432e:	fc 01       	movw	r30, r24
    4330:	e1 58       	subi	r30, 0x81	; 129
    4332:	fe 4f       	sbci	r31, 0xFE	; 254
    4334:	90 81       	ld	r25, Z
    4336:	80 e0       	ldi	r24, 0x00	; 0
    4338:	69 2f       	mov	r22, r25
    433a:	40 e0       	ldi	r20, 0x00	; 0
    433c:	0e 94 78 11 	call	0x22f0	; 0x22f0 <DIO_u8SetPinDirection>
		DIO_u8SetPinValue(KPD_PORT, KPD_Au8ColsPins[i], DIO_u8_INPUT_PULLUP);
    4340:	89 81       	ldd	r24, Y+1	; 0x01
    4342:	9a 81       	ldd	r25, Y+2	; 0x02
    4344:	fc 01       	movw	r30, r24
    4346:	e1 58       	subi	r30, 0x81	; 129
    4348:	fe 4f       	sbci	r31, 0xFE	; 254
    434a:	90 81       	ld	r25, Z
    434c:	80 e0       	ldi	r24, 0x00	; 0
    434e:	69 2f       	mov	r22, r25
    4350:	41 e0       	ldi	r20, 0x01	; 1
    4352:	0e 94 a2 12 	call	0x2544	; 0x2544 <DIO_u8SetPinValue>
const u8 KPD_Au8ColsPins[4] = {KPD_C1_PIN, KPD_C2_PIN, KPD_C3_PIN, KPD_C4_PIN};

/******************************************************************************************/

void KPD_voidInit(void){
	for(int i = 0; i <= 3; i++){
    4356:	89 81       	ldd	r24, Y+1	; 0x01
    4358:	9a 81       	ldd	r25, Y+2	; 0x02
    435a:	01 96       	adiw	r24, 0x01	; 1
    435c:	9a 83       	std	Y+2, r25	; 0x02
    435e:	89 83       	std	Y+1, r24	; 0x01
    4360:	89 81       	ldd	r24, Y+1	; 0x01
    4362:	9a 81       	ldd	r25, Y+2	; 0x02
    4364:	84 30       	cpi	r24, 0x04	; 4
    4366:	91 05       	cpc	r25, r1
    4368:	54 f2       	brlt	.-108    	; 0x42fe <KPD_voidInit+0x10>
		
		/* Cols */
		DIO_u8SetPinDirection(KPD_PORT, KPD_Au8ColsPins[i], DIO_u8_INPUT);
		DIO_u8SetPinValue(KPD_PORT, KPD_Au8ColsPins[i], DIO_u8_INPUT_PULLUP);
	}
}
    436a:	0f 90       	pop	r0
    436c:	0f 90       	pop	r0
    436e:	cf 91       	pop	r28
    4370:	df 91       	pop	r29
    4372:	08 95       	ret

00004374 <KPD_u8GetKeyState>:



u8 KPD_u8GetKeyState(u8 *Copy_pu8ReturnedKey){
    4374:	df 93       	push	r29
    4376:	cf 93       	push	r28
    4378:	cd b7       	in	r28, 0x3d	; 61
    437a:	de b7       	in	r29, 0x3e	; 62
    437c:	65 97       	sbiw	r28, 0x15	; 21
    437e:	0f b6       	in	r0, 0x3f	; 63
    4380:	f8 94       	cli
    4382:	de bf       	out	0x3e, r29	; 62
    4384:	0f be       	out	0x3f, r0	; 63
    4386:	cd bf       	out	0x3d, r28	; 61
    4388:	9d 8b       	std	Y+21, r25	; 0x15
    438a:	8c 8b       	std	Y+20, r24	; 0x14
	
	u8 Local_u8ErrorState = STD_TYPES_OK;
    438c:	81 e0       	ldi	r24, 0x01	; 1
    438e:	8a 8b       	std	Y+18, r24	; 0x12
	u8 Local_u8RowsCounter, Local_u8ColsCounter, Local_u8PinValue, Local_u8Flag = 0;
    4390:	1f 86       	std	Y+15, r1	; 0x0f
	
	if(Copy_pu8ReturnedKey != NULL){
    4392:	8c 89       	ldd	r24, Y+20	; 0x14
    4394:	9d 89       	ldd	r25, Y+21	; 0x15
    4396:	00 97       	sbiw	r24, 0x00	; 0
    4398:	09 f4       	brne	.+2      	; 0x439c <KPD_u8GetKeyState+0x28>
    439a:	f0 c0       	rjmp	.+480    	; 0x457c <KPD_u8GetKeyState+0x208>
		*Copy_pu8ReturnedKey = KPD_UnPressed;
    439c:	ec 89       	ldd	r30, Y+20	; 0x14
    439e:	fd 89       	ldd	r31, Y+21	; 0x15
    43a0:	8f ef       	ldi	r24, 0xFF	; 255
    43a2:	80 83       	st	Z, r24
		for(Local_u8RowsCounter = 0; Local_u8RowsCounter <= 3; Local_u8RowsCounter++){
    43a4:	19 8a       	std	Y+17, r1	; 0x11
    43a6:	e5 c0       	rjmp	.+458    	; 0x4572 <KPD_u8GetKeyState+0x1fe>
			/* Activate Each Row */
			DIO_u8SetPinValue(KPD_PORT, KPD_Au8RowsPins[Local_u8RowsCounter], DIO_u8_LOW);
    43a8:	89 89       	ldd	r24, Y+17	; 0x11
    43aa:	88 2f       	mov	r24, r24
    43ac:	90 e0       	ldi	r25, 0x00	; 0
    43ae:	fc 01       	movw	r30, r24
    43b0:	e5 58       	subi	r30, 0x85	; 133
    43b2:	fe 4f       	sbci	r31, 0xFE	; 254
    43b4:	90 81       	ld	r25, Z
    43b6:	80 e0       	ldi	r24, 0x00	; 0
    43b8:	69 2f       	mov	r22, r25
    43ba:	40 e0       	ldi	r20, 0x00	; 0
    43bc:	0e 94 a2 12 	call	0x2544	; 0x2544 <DIO_u8SetPinValue>
			/* Check which pin is zero */
			for(Local_u8ColsCounter = 0; Local_u8ColsCounter <= 3; Local_u8ColsCounter++){
    43c0:	18 8a       	std	Y+16, r1	; 0x10
    43c2:	c1 c0       	rjmp	.+386    	; 0x4546 <KPD_u8GetKeyState+0x1d2>
				DIO_u8GetPinValue(KPD_PORT, KPD_Au8ColsPins[Local_u8ColsCounter], &Local_u8PinValue);
    43c4:	88 89       	ldd	r24, Y+16	; 0x10
    43c6:	88 2f       	mov	r24, r24
    43c8:	90 e0       	ldi	r25, 0x00	; 0
    43ca:	fc 01       	movw	r30, r24
    43cc:	e1 58       	subi	r30, 0x81	; 129
    43ce:	fe 4f       	sbci	r31, 0xFE	; 254
    43d0:	90 81       	ld	r25, Z
    43d2:	9e 01       	movw	r18, r28
    43d4:	2d 5e       	subi	r18, 0xED	; 237
    43d6:	3f 4f       	sbci	r19, 0xFF	; 255
    43d8:	80 e0       	ldi	r24, 0x00	; 0
    43da:	69 2f       	mov	r22, r25
    43dc:	a9 01       	movw	r20, r18
    43de:	0e 94 d3 13 	call	0x27a6	; 0x27a6 <DIO_u8GetPinValue>
				if(Local_u8PinValue == DIO_u8_LOW){ // Switch Is Pressed
    43e2:	8b 89       	ldd	r24, Y+19	; 0x13
    43e4:	88 23       	and	r24, r24
    43e6:	09 f0       	breq	.+2      	; 0x43ea <KPD_u8GetKeyState+0x76>
    43e8:	ab c0       	rjmp	.+342    	; 0x4540 <KPD_u8GetKeyState+0x1cc>
    43ea:	80 e0       	ldi	r24, 0x00	; 0
    43ec:	90 e0       	ldi	r25, 0x00	; 0
    43ee:	a0 ea       	ldi	r26, 0xA0	; 160
    43f0:	b1 e4       	ldi	r27, 0x41	; 65
    43f2:	8b 87       	std	Y+11, r24	; 0x0b
    43f4:	9c 87       	std	Y+12, r25	; 0x0c
    43f6:	ad 87       	std	Y+13, r26	; 0x0d
    43f8:	be 87       	std	Y+14, r27	; 0x0e
 */
void
_delay_ms(double __ms)
{
	uint16_t __ticks;
	double __tmp = ((F_CPU) / 4e3) * __ms;
    43fa:	6b 85       	ldd	r22, Y+11	; 0x0b
    43fc:	7c 85       	ldd	r23, Y+12	; 0x0c
    43fe:	8d 85       	ldd	r24, Y+13	; 0x0d
    4400:	9e 85       	ldd	r25, Y+14	; 0x0e
    4402:	20 e0       	ldi	r18, 0x00	; 0
    4404:	30 e0       	ldi	r19, 0x00	; 0
    4406:	4a e7       	ldi	r20, 0x7A	; 122
    4408:	55 e4       	ldi	r21, 0x45	; 69
    440a:	0e 94 1f 02 	call	0x43e	; 0x43e <__mulsf3>
    440e:	dc 01       	movw	r26, r24
    4410:	cb 01       	movw	r24, r22
    4412:	8f 83       	std	Y+7, r24	; 0x07
    4414:	98 87       	std	Y+8, r25	; 0x08
    4416:	a9 87       	std	Y+9, r26	; 0x09
    4418:	ba 87       	std	Y+10, r27	; 0x0a
	if (__tmp < 1.0)
    441a:	6f 81       	ldd	r22, Y+7	; 0x07
    441c:	78 85       	ldd	r23, Y+8	; 0x08
    441e:	89 85       	ldd	r24, Y+9	; 0x09
    4420:	9a 85       	ldd	r25, Y+10	; 0x0a
    4422:	20 e0       	ldi	r18, 0x00	; 0
    4424:	30 e0       	ldi	r19, 0x00	; 0
    4426:	40 e8       	ldi	r20, 0x80	; 128
    4428:	5f e3       	ldi	r21, 0x3F	; 63
    442a:	0e 94 79 03 	call	0x6f2	; 0x6f2 <__ltsf2>
    442e:	88 23       	and	r24, r24
    4430:	2c f4       	brge	.+10     	; 0x443c <KPD_u8GetKeyState+0xc8>
		__ticks = 1;
    4432:	81 e0       	ldi	r24, 0x01	; 1
    4434:	90 e0       	ldi	r25, 0x00	; 0
    4436:	9e 83       	std	Y+6, r25	; 0x06
    4438:	8d 83       	std	Y+5, r24	; 0x05
    443a:	3f c0       	rjmp	.+126    	; 0x44ba <KPD_u8GetKeyState+0x146>
	else if (__tmp > 65535)
    443c:	6f 81       	ldd	r22, Y+7	; 0x07
    443e:	78 85       	ldd	r23, Y+8	; 0x08
    4440:	89 85       	ldd	r24, Y+9	; 0x09
    4442:	9a 85       	ldd	r25, Y+10	; 0x0a
    4444:	20 e0       	ldi	r18, 0x00	; 0
    4446:	3f ef       	ldi	r19, 0xFF	; 255
    4448:	4f e7       	ldi	r20, 0x7F	; 127
    444a:	57 e4       	ldi	r21, 0x47	; 71
    444c:	0e 94 19 03 	call	0x632	; 0x632 <__gtsf2>
    4450:	18 16       	cp	r1, r24
    4452:	4c f5       	brge	.+82     	; 0x44a6 <KPD_u8GetKeyState+0x132>
	{
		//	__ticks = requested delay in 1/10 ms
		__ticks = (uint16_t) (__ms * 10.0);
    4454:	6b 85       	ldd	r22, Y+11	; 0x0b
    4456:	7c 85       	ldd	r23, Y+12	; 0x0c
    4458:	8d 85       	ldd	r24, Y+13	; 0x0d
    445a:	9e 85       	ldd	r25, Y+14	; 0x0e
    445c:	20 e0       	ldi	r18, 0x00	; 0
    445e:	30 e0       	ldi	r19, 0x00	; 0
    4460:	40 e2       	ldi	r20, 0x20	; 32
    4462:	51 e4       	ldi	r21, 0x41	; 65
    4464:	0e 94 1f 02 	call	0x43e	; 0x43e <__mulsf3>
    4468:	dc 01       	movw	r26, r24
    446a:	cb 01       	movw	r24, r22
    446c:	bc 01       	movw	r22, r24
    446e:	cd 01       	movw	r24, r26
    4470:	0e 94 49 00 	call	0x92	; 0x92 <__fixunssfsi>
    4474:	dc 01       	movw	r26, r24
    4476:	cb 01       	movw	r24, r22
    4478:	9e 83       	std	Y+6, r25	; 0x06
    447a:	8d 83       	std	Y+5, r24	; 0x05
    447c:	0f c0       	rjmp	.+30     	; 0x449c <KPD_u8GetKeyState+0x128>
    447e:	80 e9       	ldi	r24, 0x90	; 144
    4480:	91 e0       	ldi	r25, 0x01	; 1
    4482:	9c 83       	std	Y+4, r25	; 0x04
    4484:	8b 83       	std	Y+3, r24	; 0x03
    4486:	8b 81       	ldd	r24, Y+3	; 0x03
    4488:	9c 81       	ldd	r25, Y+4	; 0x04
    448a:	01 97       	sbiw	r24, 0x01	; 1
    448c:	f1 f7       	brne	.-4      	; 0x448a <KPD_u8GetKeyState+0x116>
    448e:	9c 83       	std	Y+4, r25	; 0x04
    4490:	8b 83       	std	Y+3, r24	; 0x03
		while(__ticks)
		{
			// wait 1/10 ms
			_delay_loop_2(((F_CPU) / 4e3) / 10);
			__ticks --;
    4492:	8d 81       	ldd	r24, Y+5	; 0x05
    4494:	9e 81       	ldd	r25, Y+6	; 0x06
    4496:	01 97       	sbiw	r24, 0x01	; 1
    4498:	9e 83       	std	Y+6, r25	; 0x06
    449a:	8d 83       	std	Y+5, r24	; 0x05
		__ticks = 1;
	else if (__tmp > 65535)
	{
		//	__ticks = requested delay in 1/10 ms
		__ticks = (uint16_t) (__ms * 10.0);
		while(__ticks)
    449c:	8d 81       	ldd	r24, Y+5	; 0x05
    449e:	9e 81       	ldd	r25, Y+6	; 0x06
    44a0:	00 97       	sbiw	r24, 0x00	; 0
    44a2:	69 f7       	brne	.-38     	; 0x447e <KPD_u8GetKeyState+0x10a>
    44a4:	14 c0       	rjmp	.+40     	; 0x44ce <KPD_u8GetKeyState+0x15a>
			__ticks --;
		}
		return;
	}
	else
		__ticks = (uint16_t)__tmp;
    44a6:	6f 81       	ldd	r22, Y+7	; 0x07
    44a8:	78 85       	ldd	r23, Y+8	; 0x08
    44aa:	89 85       	ldd	r24, Y+9	; 0x09
    44ac:	9a 85       	ldd	r25, Y+10	; 0x0a
    44ae:	0e 94 49 00 	call	0x92	; 0x92 <__fixunssfsi>
    44b2:	dc 01       	movw	r26, r24
    44b4:	cb 01       	movw	r24, r22
    44b6:	9e 83       	std	Y+6, r25	; 0x06
    44b8:	8d 83       	std	Y+5, r24	; 0x05
    44ba:	8d 81       	ldd	r24, Y+5	; 0x05
    44bc:	9e 81       	ldd	r25, Y+6	; 0x06
    44be:	9a 83       	std	Y+2, r25	; 0x02
    44c0:	89 83       	std	Y+1, r24	; 0x01
    44c2:	89 81       	ldd	r24, Y+1	; 0x01
    44c4:	9a 81       	ldd	r25, Y+2	; 0x02
    44c6:	01 97       	sbiw	r24, 0x01	; 1
    44c8:	f1 f7       	brne	.-4      	; 0x44c6 <KPD_u8GetKeyState+0x152>
    44ca:	9a 83       	std	Y+2, r25	; 0x02
    44cc:	89 83       	std	Y+1, r24	; 0x01
					/* Debouncing */
					_delay_ms(20);
					DIO_u8GetPinValue(KPD_PORT, KPD_Au8ColsPins[Local_u8ColsCounter], &Local_u8PinValue);
    44ce:	88 89       	ldd	r24, Y+16	; 0x10
    44d0:	88 2f       	mov	r24, r24
    44d2:	90 e0       	ldi	r25, 0x00	; 0
    44d4:	fc 01       	movw	r30, r24
    44d6:	e1 58       	subi	r30, 0x81	; 129
    44d8:	fe 4f       	sbci	r31, 0xFE	; 254
    44da:	90 81       	ld	r25, Z
    44dc:	9e 01       	movw	r18, r28
    44de:	2d 5e       	subi	r18, 0xED	; 237
    44e0:	3f 4f       	sbci	r19, 0xFF	; 255
    44e2:	80 e0       	ldi	r24, 0x00	; 0
    44e4:	69 2f       	mov	r22, r25
    44e6:	a9 01       	movw	r20, r18
    44e8:	0e 94 d3 13 	call	0x27a6	; 0x27a6 <DIO_u8GetPinValue>
    44ec:	0f c0       	rjmp	.+30     	; 0x450c <KPD_u8GetKeyState+0x198>
					/* Check If the Pin Equal Low */
					while(Local_u8PinValue == DIO_u8_LOW){
						DIO_u8GetPinValue(KPD_PORT, KPD_Au8ColsPins[Local_u8ColsCounter], &Local_u8PinValue);
    44ee:	88 89       	ldd	r24, Y+16	; 0x10
    44f0:	88 2f       	mov	r24, r24
    44f2:	90 e0       	ldi	r25, 0x00	; 0
    44f4:	fc 01       	movw	r30, r24
    44f6:	e1 58       	subi	r30, 0x81	; 129
    44f8:	fe 4f       	sbci	r31, 0xFE	; 254
    44fa:	90 81       	ld	r25, Z
    44fc:	9e 01       	movw	r18, r28
    44fe:	2d 5e       	subi	r18, 0xED	; 237
    4500:	3f 4f       	sbci	r19, 0xFF	; 255
    4502:	80 e0       	ldi	r24, 0x00	; 0
    4504:	69 2f       	mov	r22, r25
    4506:	a9 01       	movw	r20, r18
    4508:	0e 94 d3 13 	call	0x27a6	; 0x27a6 <DIO_u8GetPinValue>
				if(Local_u8PinValue == DIO_u8_LOW){ // Switch Is Pressed
					/* Debouncing */
					_delay_ms(20);
					DIO_u8GetPinValue(KPD_PORT, KPD_Au8ColsPins[Local_u8ColsCounter], &Local_u8PinValue);
					/* Check If the Pin Equal Low */
					while(Local_u8PinValue == DIO_u8_LOW){
    450c:	8b 89       	ldd	r24, Y+19	; 0x13
    450e:	88 23       	and	r24, r24
    4510:	71 f3       	breq	.-36     	; 0x44ee <KPD_u8GetKeyState+0x17a>
						DIO_u8GetPinValue(KPD_PORT, KPD_Au8ColsPins[Local_u8ColsCounter], &Local_u8PinValue);
					}
					
					*Copy_pu8ReturnedKey = KPD_Au8Keys[Local_u8RowsCounter][Local_u8ColsCounter];
    4512:	89 89       	ldd	r24, Y+17	; 0x11
    4514:	48 2f       	mov	r20, r24
    4516:	50 e0       	ldi	r21, 0x00	; 0
    4518:	88 89       	ldd	r24, Y+16	; 0x10
    451a:	28 2f       	mov	r18, r24
    451c:	30 e0       	ldi	r19, 0x00	; 0
    451e:	ca 01       	movw	r24, r20
    4520:	88 0f       	add	r24, r24
    4522:	99 1f       	adc	r25, r25
    4524:	88 0f       	add	r24, r24
    4526:	99 1f       	adc	r25, r25
    4528:	82 0f       	add	r24, r18
    452a:	93 1f       	adc	r25, r19
    452c:	fc 01       	movw	r30, r24
    452e:	e5 59       	subi	r30, 0x95	; 149
    4530:	fe 4f       	sbci	r31, 0xFE	; 254
    4532:	80 81       	ld	r24, Z
    4534:	ec 89       	ldd	r30, Y+20	; 0x14
    4536:	fd 89       	ldd	r31, Y+21	; 0x15
    4538:	80 83       	st	Z, r24
					Local_u8Flag = 1;
    453a:	81 e0       	ldi	r24, 0x01	; 1
    453c:	8f 87       	std	Y+15, r24	; 0x0f
    453e:	07 c0       	rjmp	.+14     	; 0x454e <KPD_u8GetKeyState+0x1da>
		*Copy_pu8ReturnedKey = KPD_UnPressed;
		for(Local_u8RowsCounter = 0; Local_u8RowsCounter <= 3; Local_u8RowsCounter++){
			/* Activate Each Row */
			DIO_u8SetPinValue(KPD_PORT, KPD_Au8RowsPins[Local_u8RowsCounter], DIO_u8_LOW);
			/* Check which pin is zero */
			for(Local_u8ColsCounter = 0; Local_u8ColsCounter <= 3; Local_u8ColsCounter++){
    4540:	88 89       	ldd	r24, Y+16	; 0x10
    4542:	8f 5f       	subi	r24, 0xFF	; 255
    4544:	88 8b       	std	Y+16, r24	; 0x10
    4546:	88 89       	ldd	r24, Y+16	; 0x10
    4548:	84 30       	cpi	r24, 0x04	; 4
    454a:	08 f4       	brcc	.+2      	; 0x454e <KPD_u8GetKeyState+0x1da>
    454c:	3b cf       	rjmp	.-394    	; 0x43c4 <KPD_u8GetKeyState+0x50>
					Local_u8Flag = 1;
					break;
				}
			}
			/* Deactivate Row */
			DIO_u8SetPinValue(KPD_PORT, KPD_Au8RowsPins[Local_u8RowsCounter], DIO_u8_HIGH);
    454e:	89 89       	ldd	r24, Y+17	; 0x11
    4550:	88 2f       	mov	r24, r24
    4552:	90 e0       	ldi	r25, 0x00	; 0
    4554:	fc 01       	movw	r30, r24
    4556:	e5 58       	subi	r30, 0x85	; 133
    4558:	fe 4f       	sbci	r31, 0xFE	; 254
    455a:	90 81       	ld	r25, Z
    455c:	80 e0       	ldi	r24, 0x00	; 0
    455e:	69 2f       	mov	r22, r25
    4560:	41 e0       	ldi	r20, 0x01	; 1
    4562:	0e 94 a2 12 	call	0x2544	; 0x2544 <DIO_u8SetPinValue>
			if(Local_u8Flag){
    4566:	8f 85       	ldd	r24, Y+15	; 0x0f
    4568:	88 23       	and	r24, r24
    456a:	49 f4       	brne	.+18     	; 0x457e <KPD_u8GetKeyState+0x20a>
	u8 Local_u8ErrorState = STD_TYPES_OK;
	u8 Local_u8RowsCounter, Local_u8ColsCounter, Local_u8PinValue, Local_u8Flag = 0;
	
	if(Copy_pu8ReturnedKey != NULL){
		*Copy_pu8ReturnedKey = KPD_UnPressed;
		for(Local_u8RowsCounter = 0; Local_u8RowsCounter <= 3; Local_u8RowsCounter++){
    456c:	89 89       	ldd	r24, Y+17	; 0x11
    456e:	8f 5f       	subi	r24, 0xFF	; 255
    4570:	89 8b       	std	Y+17, r24	; 0x11
    4572:	89 89       	ldd	r24, Y+17	; 0x11
    4574:	84 30       	cpi	r24, 0x04	; 4
    4576:	08 f4       	brcc	.+2      	; 0x457a <KPD_u8GetKeyState+0x206>
    4578:	17 cf       	rjmp	.-466    	; 0x43a8 <KPD_u8GetKeyState+0x34>
    457a:	01 c0       	rjmp	.+2      	; 0x457e <KPD_u8GetKeyState+0x20a>
				break;
			}
		}
	}
	else{
		Local_u8ErrorState = STD_TYPES_NOK;
    457c:	1a 8a       	std	Y+18, r1	; 0x12
	}
	
	return Local_u8ErrorState;
    457e:	8a 89       	ldd	r24, Y+18	; 0x12
}
    4580:	65 96       	adiw	r28, 0x15	; 21
    4582:	0f b6       	in	r0, 0x3f	; 63
    4584:	f8 94       	cli
    4586:	de bf       	out	0x3e, r29	; 62
    4588:	0f be       	out	0x3f, r0	; 63
    458a:	cd bf       	out	0x3d, r28	; 61
    458c:	cf 91       	pop	r28
    458e:	df 91       	pop	r29
    4590:	08 95       	ret

00004592 <DC_Motor_Init>:
#include "../../MCAL/DIO/DIO_Interface.h"

#include "DC_Motor_Config.h"
#include "DC_Motor_Private.h"

u8 DC_Motor_Init(u8 Copy_u8_Motor1, u8 Copy_u8_Motor2){
    4592:	df 93       	push	r29
    4594:	cf 93       	push	r28
    4596:	00 d0       	rcall	.+0      	; 0x4598 <DC_Motor_Init+0x6>
    4598:	0f 92       	push	r0
    459a:	cd b7       	in	r28, 0x3d	; 61
    459c:	de b7       	in	r29, 0x3e	; 62
    459e:	8a 83       	std	Y+2, r24	; 0x02
    45a0:	6b 83       	std	Y+3, r22	; 0x03
	u8 Local_u8_Error_State = State_OK;
    45a2:	81 e0       	ldi	r24, 0x01	; 1
    45a4:	89 83       	std	Y+1, r24	; 0x01

	if(Copy_u8_Motor1 == MOTOR_Connected){
    45a6:	8a 81       	ldd	r24, Y+2	; 0x02
    45a8:	81 30       	cpi	r24, 0x01	; 1
    45aa:	79 f4       	brne	.+30     	; 0x45ca <DC_Motor_Init+0x38>
		DIO_u8SetPinDirection(MOTOR_EN1_PORT, MOTOR_EN1_PIN, DIO_u8_OUTPUT);
    45ac:	83 e0       	ldi	r24, 0x03	; 3
    45ae:	62 e0       	ldi	r22, 0x02	; 2
    45b0:	41 e0       	ldi	r20, 0x01	; 1
    45b2:	0e 94 78 11 	call	0x22f0	; 0x22f0 <DIO_u8SetPinDirection>
		DIO_u8SetPinDirection(MOTOR_IN1_PORT, MOTOR_IN1_PIN, DIO_u8_OUTPUT);
    45b6:	83 e0       	ldi	r24, 0x03	; 3
    45b8:	60 e0       	ldi	r22, 0x00	; 0
    45ba:	41 e0       	ldi	r20, 0x01	; 1
    45bc:	0e 94 78 11 	call	0x22f0	; 0x22f0 <DIO_u8SetPinDirection>
		DIO_u8SetPinDirection(MOTOR_IN2_PORT, MOTOR_IN2_PIN, DIO_u8_OUTPUT);
    45c0:	83 e0       	ldi	r24, 0x03	; 3
    45c2:	61 e0       	ldi	r22, 0x01	; 1
    45c4:	41 e0       	ldi	r20, 0x01	; 1
    45c6:	0e 94 78 11 	call	0x22f0	; 0x22f0 <DIO_u8SetPinDirection>
	}

	if(Copy_u8_Motor2 == MOTOR_Connected){
    45ca:	8b 81       	ldd	r24, Y+3	; 0x03
    45cc:	81 30       	cpi	r24, 0x01	; 1
    45ce:	81 f4       	brne	.+32     	; 0x45f0 <DC_Motor_Init+0x5e>
		DIO_u8SetPinDirection(MOTOR_EN2_PORT, MOTOR_EN2_PIN, DIO_u8_OUTPUT);
    45d0:	83 e0       	ldi	r24, 0x03	; 3
    45d2:	63 e0       	ldi	r22, 0x03	; 3
    45d4:	41 e0       	ldi	r20, 0x01	; 1
    45d6:	0e 94 78 11 	call	0x22f0	; 0x22f0 <DIO_u8SetPinDirection>
		DIO_u8SetPinDirection(MOTOR_IN3_PORT, MOTOR_IN3_PIN, DIO_u8_OUTPUT);
    45da:	83 e0       	ldi	r24, 0x03	; 3
    45dc:	66 e0       	ldi	r22, 0x06	; 6
    45de:	41 e0       	ldi	r20, 0x01	; 1
    45e0:	0e 94 78 11 	call	0x22f0	; 0x22f0 <DIO_u8SetPinDirection>
		DIO_u8SetPinDirection(MOTOR_IN4_PORT, MOTOR_IN4_PIN, DIO_u8_OUTPUT);
    45e4:	83 e0       	ldi	r24, 0x03	; 3
    45e6:	67 e0       	ldi	r22, 0x07	; 7
    45e8:	41 e0       	ldi	r20, 0x01	; 1
    45ea:	0e 94 78 11 	call	0x22f0	; 0x22f0 <DIO_u8SetPinDirection>
    45ee:	01 c0       	rjmp	.+2      	; 0x45f2 <DC_Motor_Init+0x60>
	}

	else{
		Local_u8_Error_State = State_NOT_OK;
    45f0:	19 82       	std	Y+1, r1	; 0x01
	}
	return Local_u8_Error_State;
    45f2:	89 81       	ldd	r24, Y+1	; 0x01
}
    45f4:	0f 90       	pop	r0
    45f6:	0f 90       	pop	r0
    45f8:	0f 90       	pop	r0
    45fa:	cf 91       	pop	r28
    45fc:	df 91       	pop	r29
    45fe:	08 95       	ret

00004600 <DC_Motor_Rotate>:


u8 DC_Motor_Rotate(u8 Copy_u8_Motor, u8 Copy_u8_Motor_Dirction){
    4600:	df 93       	push	r29
    4602:	cf 93       	push	r28
    4604:	cd b7       	in	r28, 0x3d	; 61
    4606:	de b7       	in	r29, 0x3e	; 62
    4608:	29 97       	sbiw	r28, 0x09	; 9
    460a:	0f b6       	in	r0, 0x3f	; 63
    460c:	f8 94       	cli
    460e:	de bf       	out	0x3e, r29	; 62
    4610:	0f be       	out	0x3f, r0	; 63
    4612:	cd bf       	out	0x3d, r28	; 61
    4614:	8a 83       	std	Y+2, r24	; 0x02
    4616:	6b 83       	std	Y+3, r22	; 0x03
	u8 Local_u8_Error_State = State_OK;
    4618:	81 e0       	ldi	r24, 0x01	; 1
    461a:	89 83       	std	Y+1, r24	; 0x01

	switch(Copy_u8_Motor){
    461c:	8a 81       	ldd	r24, Y+2	; 0x02
    461e:	28 2f       	mov	r18, r24
    4620:	30 e0       	ldi	r19, 0x00	; 0
    4622:	39 87       	std	Y+9, r19	; 0x09
    4624:	28 87       	std	Y+8, r18	; 0x08
    4626:	88 85       	ldd	r24, Y+8	; 0x08
    4628:	99 85       	ldd	r25, Y+9	; 0x09
    462a:	00 97       	sbiw	r24, 0x00	; 0
    462c:	31 f0       	breq	.+12     	; 0x463a <DC_Motor_Rotate+0x3a>
    462e:	28 85       	ldd	r18, Y+8	; 0x08
    4630:	39 85       	ldd	r19, Y+9	; 0x09
    4632:	21 30       	cpi	r18, 0x01	; 1
    4634:	31 05       	cpc	r19, r1
    4636:	89 f1       	breq	.+98     	; 0x469a <DC_Motor_Rotate+0x9a>
    4638:	60 c0       	rjmp	.+192    	; 0x46fa <DC_Motor_Rotate+0xfa>
		case Motor1:
			switch(Copy_u8_Motor_Dirction){
    463a:	8b 81       	ldd	r24, Y+3	; 0x03
    463c:	28 2f       	mov	r18, r24
    463e:	30 e0       	ldi	r19, 0x00	; 0
    4640:	3f 83       	std	Y+7, r19	; 0x07
    4642:	2e 83       	std	Y+6, r18	; 0x06
    4644:	8e 81       	ldd	r24, Y+6	; 0x06
    4646:	9f 81       	ldd	r25, Y+7	; 0x07
    4648:	00 97       	sbiw	r24, 0x00	; 0
    464a:	a9 f0       	breq	.+42     	; 0x4676 <DC_Motor_Rotate+0x76>
    464c:	2e 81       	ldd	r18, Y+6	; 0x06
    464e:	3f 81       	ldd	r19, Y+7	; 0x07
    4650:	21 30       	cpi	r18, 0x01	; 1
    4652:	31 05       	cpc	r19, r1
    4654:	01 f5       	brne	.+64     	; 0x4696 <DC_Motor_Rotate+0x96>
				case ClockWise:
					DIO_u8SetPinValue(MOTOR_EN1_PORT ,MOTOR_EN1_PIN, DIO_u8_HIGH);
    4656:	83 e0       	ldi	r24, 0x03	; 3
    4658:	62 e0       	ldi	r22, 0x02	; 2
    465a:	41 e0       	ldi	r20, 0x01	; 1
    465c:	0e 94 a2 12 	call	0x2544	; 0x2544 <DIO_u8SetPinValue>
					DIO_u8SetPinValue(MOTOR_IN1_PORT ,MOTOR_IN1_PIN, DIO_u8_HIGH);
    4660:	83 e0       	ldi	r24, 0x03	; 3
    4662:	60 e0       	ldi	r22, 0x00	; 0
    4664:	41 e0       	ldi	r20, 0x01	; 1
    4666:	0e 94 a2 12 	call	0x2544	; 0x2544 <DIO_u8SetPinValue>
					DIO_u8SetPinValue(MOTOR_IN2_PORT ,MOTOR_IN2_PIN, DIO_u8_LOW);
    466a:	83 e0       	ldi	r24, 0x03	; 3
    466c:	61 e0       	ldi	r22, 0x01	; 1
    466e:	40 e0       	ldi	r20, 0x00	; 0
    4670:	0e 94 a2 12 	call	0x2544	; 0x2544 <DIO_u8SetPinValue>
    4674:	43 c0       	rjmp	.+134    	; 0x46fc <DC_Motor_Rotate+0xfc>
					break;

				case CounterClockWise:
					DIO_u8SetPinValue(MOTOR_EN1_PORT ,MOTOR_EN1_PIN, DIO_u8_HIGH);
    4676:	83 e0       	ldi	r24, 0x03	; 3
    4678:	62 e0       	ldi	r22, 0x02	; 2
    467a:	41 e0       	ldi	r20, 0x01	; 1
    467c:	0e 94 a2 12 	call	0x2544	; 0x2544 <DIO_u8SetPinValue>
					DIO_u8SetPinValue(MOTOR_IN1_PORT ,MOTOR_IN1_PIN, DIO_u8_LOW);
    4680:	83 e0       	ldi	r24, 0x03	; 3
    4682:	60 e0       	ldi	r22, 0x00	; 0
    4684:	40 e0       	ldi	r20, 0x00	; 0
    4686:	0e 94 a2 12 	call	0x2544	; 0x2544 <DIO_u8SetPinValue>
					DIO_u8SetPinValue(MOTOR_IN2_PORT ,MOTOR_IN2_PIN, DIO_u8_HIGH);
    468a:	83 e0       	ldi	r24, 0x03	; 3
    468c:	61 e0       	ldi	r22, 0x01	; 1
    468e:	41 e0       	ldi	r20, 0x01	; 1
    4690:	0e 94 a2 12 	call	0x2544	; 0x2544 <DIO_u8SetPinValue>
    4694:	33 c0       	rjmp	.+102    	; 0x46fc <DC_Motor_Rotate+0xfc>
					break;

				default:
					Local_u8_Error_State = State_NOT_OK;
    4696:	19 82       	std	Y+1, r1	; 0x01
    4698:	31 c0       	rjmp	.+98     	; 0x46fc <DC_Motor_Rotate+0xfc>
					break;
			}
			break;

		case Motor2:
			switch(Copy_u8_Motor_Dirction){
    469a:	8b 81       	ldd	r24, Y+3	; 0x03
    469c:	28 2f       	mov	r18, r24
    469e:	30 e0       	ldi	r19, 0x00	; 0
    46a0:	3d 83       	std	Y+5, r19	; 0x05
    46a2:	2c 83       	std	Y+4, r18	; 0x04
    46a4:	8c 81       	ldd	r24, Y+4	; 0x04
    46a6:	9d 81       	ldd	r25, Y+5	; 0x05
    46a8:	00 97       	sbiw	r24, 0x00	; 0
    46aa:	a9 f0       	breq	.+42     	; 0x46d6 <DC_Motor_Rotate+0xd6>
    46ac:	2c 81       	ldd	r18, Y+4	; 0x04
    46ae:	3d 81       	ldd	r19, Y+5	; 0x05
    46b0:	21 30       	cpi	r18, 0x01	; 1
    46b2:	31 05       	cpc	r19, r1
    46b4:	01 f5       	brne	.+64     	; 0x46f6 <DC_Motor_Rotate+0xf6>
				case ClockWise:
					DIO_u8SetPinValue(MOTOR_EN2_PORT ,MOTOR_EN2_PIN, DIO_u8_HIGH);
    46b6:	83 e0       	ldi	r24, 0x03	; 3
    46b8:	63 e0       	ldi	r22, 0x03	; 3
    46ba:	41 e0       	ldi	r20, 0x01	; 1
    46bc:	0e 94 a2 12 	call	0x2544	; 0x2544 <DIO_u8SetPinValue>
					DIO_u8SetPinValue(MOTOR_IN3_PORT ,MOTOR_IN3_PIN, DIO_u8_HIGH);
    46c0:	83 e0       	ldi	r24, 0x03	; 3
    46c2:	66 e0       	ldi	r22, 0x06	; 6
    46c4:	41 e0       	ldi	r20, 0x01	; 1
    46c6:	0e 94 a2 12 	call	0x2544	; 0x2544 <DIO_u8SetPinValue>
					DIO_u8SetPinValue(MOTOR_IN4_PORT ,MOTOR_IN4_PIN, DIO_u8_LOW);
    46ca:	83 e0       	ldi	r24, 0x03	; 3
    46cc:	67 e0       	ldi	r22, 0x07	; 7
    46ce:	40 e0       	ldi	r20, 0x00	; 0
    46d0:	0e 94 a2 12 	call	0x2544	; 0x2544 <DIO_u8SetPinValue>
    46d4:	13 c0       	rjmp	.+38     	; 0x46fc <DC_Motor_Rotate+0xfc>
					break;

				case CounterClockWise:
					DIO_u8SetPinValue(MOTOR_EN2_PORT ,MOTOR_EN2_PIN, DIO_u8_HIGH);
    46d6:	83 e0       	ldi	r24, 0x03	; 3
    46d8:	63 e0       	ldi	r22, 0x03	; 3
    46da:	41 e0       	ldi	r20, 0x01	; 1
    46dc:	0e 94 a2 12 	call	0x2544	; 0x2544 <DIO_u8SetPinValue>
					DIO_u8SetPinValue(MOTOR_IN3_PORT ,MOTOR_IN3_PIN, DIO_u8_LOW);
    46e0:	83 e0       	ldi	r24, 0x03	; 3
    46e2:	66 e0       	ldi	r22, 0x06	; 6
    46e4:	40 e0       	ldi	r20, 0x00	; 0
    46e6:	0e 94 a2 12 	call	0x2544	; 0x2544 <DIO_u8SetPinValue>
					DIO_u8SetPinValue(MOTOR_IN4_PORT ,MOTOR_IN4_PIN, DIO_u8_HIGH);
    46ea:	83 e0       	ldi	r24, 0x03	; 3
    46ec:	67 e0       	ldi	r22, 0x07	; 7
    46ee:	41 e0       	ldi	r20, 0x01	; 1
    46f0:	0e 94 a2 12 	call	0x2544	; 0x2544 <DIO_u8SetPinValue>
    46f4:	03 c0       	rjmp	.+6      	; 0x46fc <DC_Motor_Rotate+0xfc>
					break;

				default:
					Local_u8_Error_State = State_NOT_OK;
    46f6:	19 82       	std	Y+1, r1	; 0x01
    46f8:	01 c0       	rjmp	.+2      	; 0x46fc <DC_Motor_Rotate+0xfc>
					break;
			}
			break;

		default:
			Local_u8_Error_State = State_NOT_OK;
    46fa:	19 82       	std	Y+1, r1	; 0x01
			break;
	}

	return Local_u8_Error_State;
    46fc:	89 81       	ldd	r24, Y+1	; 0x01
}
    46fe:	29 96       	adiw	r28, 0x09	; 9
    4700:	0f b6       	in	r0, 0x3f	; 63
    4702:	f8 94       	cli
    4704:	de bf       	out	0x3e, r29	; 62
    4706:	0f be       	out	0x3f, r0	; 63
    4708:	cd bf       	out	0x3d, r28	; 61
    470a:	cf 91       	pop	r28
    470c:	df 91       	pop	r29
    470e:	08 95       	ret

00004710 <DC_Motor_Stop>:


u8 DC_Motor_Stop(u8 Copy_u8_Motor){
    4710:	df 93       	push	r29
    4712:	cf 93       	push	r28
    4714:	00 d0       	rcall	.+0      	; 0x4716 <DC_Motor_Stop+0x6>
    4716:	cd b7       	in	r28, 0x3d	; 61
    4718:	de b7       	in	r29, 0x3e	; 62
    471a:	8a 83       	std	Y+2, r24	; 0x02
	u8 Local_u8_Error_State = State_OK;
    471c:	81 e0       	ldi	r24, 0x01	; 1
    471e:	89 83       	std	Y+1, r24	; 0x01

	if(Copy_u8_Motor == Motor1){
    4720:	8a 81       	ldd	r24, Y+2	; 0x02
    4722:	88 23       	and	r24, r24
    4724:	31 f4       	brne	.+12     	; 0x4732 <DC_Motor_Stop+0x22>
		DIO_u8SetPinValue(MOTOR_EN1_PORT ,MOTOR_EN1_PIN, DIO_u8_LOW);
    4726:	83 e0       	ldi	r24, 0x03	; 3
    4728:	62 e0       	ldi	r22, 0x02	; 2
    472a:	40 e0       	ldi	r20, 0x00	; 0
    472c:	0e 94 a2 12 	call	0x2544	; 0x2544 <DIO_u8SetPinValue>
    4730:	0a c0       	rjmp	.+20     	; 0x4746 <DC_Motor_Stop+0x36>
	}

	else if(Copy_u8_Motor == Motor2){
    4732:	8a 81       	ldd	r24, Y+2	; 0x02
    4734:	81 30       	cpi	r24, 0x01	; 1
    4736:	31 f4       	brne	.+12     	; 0x4744 <DC_Motor_Stop+0x34>
		DIO_u8SetPinValue(MOTOR_EN2_PORT ,MOTOR_EN2_PIN, DIO_u8_LOW);
    4738:	83 e0       	ldi	r24, 0x03	; 3
    473a:	63 e0       	ldi	r22, 0x03	; 3
    473c:	40 e0       	ldi	r20, 0x00	; 0
    473e:	0e 94 a2 12 	call	0x2544	; 0x2544 <DIO_u8SetPinValue>
    4742:	01 c0       	rjmp	.+2      	; 0x4746 <DC_Motor_Stop+0x36>
	}

	else{
		Local_u8_Error_State = State_NOT_OK;
    4744:	19 82       	std	Y+1, r1	; 0x01
	}
	return Local_u8_Error_State;
    4746:	89 81       	ldd	r24, Y+1	; 0x01
}
    4748:	0f 90       	pop	r0
    474a:	0f 90       	pop	r0
    474c:	cf 91       	pop	r28
    474e:	df 91       	pop	r29
    4750:	08 95       	ret

00004752 <SevenSegment_Init>:

#include "../../LIB/BIT_MATH.h"
#include "../../MCAL/DIO/DIO_Interface.h"
#include "SevenSegment_Private.h"

void SevenSegment_Init(u8 Copy_u8PortId){
    4752:	df 93       	push	r29
    4754:	cf 93       	push	r28
    4756:	0f 92       	push	r0
    4758:	cd b7       	in	r28, 0x3d	; 61
    475a:	de b7       	in	r29, 0x3e	; 62
    475c:	89 83       	std	Y+1, r24	; 0x01
	DIO_u8SetPortDirection(Copy_u8PortId, DIO_u8_HIGH);
    475e:	89 81       	ldd	r24, Y+1	; 0x01
    4760:	61 e0       	ldi	r22, 0x01	; 1
    4762:	0e 94 13 15 	call	0x2a26	; 0x2a26 <DIO_u8SetPortDirection>
}
    4766:	0f 90       	pop	r0
    4768:	cf 91       	pop	r28
    476a:	df 91       	pop	r29
    476c:	08 95       	ret

0000476e <SevenSegment_Display>:

void SevenSegment_Display(u8 Copy_u8PortId, u8 Copy_u8Pin0, u8 Copy_u8Pin1, u8 Copy_u8Pin2, u8 Copy_u8Pin3, u8 Copy_u8Pin4, u8 Copy_u8Pin5, u8 Copy_u8Pin6)
{
    476e:	af 92       	push	r10
    4770:	cf 92       	push	r12
    4772:	ef 92       	push	r14
    4774:	0f 93       	push	r16
    4776:	df 93       	push	r29
    4778:	cf 93       	push	r28
    477a:	cd b7       	in	r28, 0x3d	; 61
    477c:	de b7       	in	r29, 0x3e	; 62
    477e:	2a 97       	sbiw	r28, 0x0a	; 10
    4780:	0f b6       	in	r0, 0x3f	; 63
    4782:	f8 94       	cli
    4784:	de bf       	out	0x3e, r29	; 62
    4786:	0f be       	out	0x3f, r0	; 63
    4788:	cd bf       	out	0x3d, r28	; 61
    478a:	89 83       	std	Y+1, r24	; 0x01
    478c:	6a 83       	std	Y+2, r22	; 0x02
    478e:	4b 83       	std	Y+3, r20	; 0x03
    4790:	2c 83       	std	Y+4, r18	; 0x04
    4792:	0d 83       	std	Y+5, r16	; 0x05
    4794:	ee 82       	std	Y+6, r14	; 0x06
    4796:	cf 82       	std	Y+7, r12	; 0x07
    4798:	a8 86       	std	Y+8, r10	; 0x08
	switch (Copy_u8PortId)
    479a:	89 81       	ldd	r24, Y+1	; 0x01
    479c:	28 2f       	mov	r18, r24
    479e:	30 e0       	ldi	r19, 0x00	; 0
    47a0:	3a 87       	std	Y+10, r19	; 0x0a
    47a2:	29 87       	std	Y+9, r18	; 0x09
    47a4:	89 85       	ldd	r24, Y+9	; 0x09
    47a6:	9a 85       	ldd	r25, Y+10	; 0x0a
    47a8:	81 30       	cpi	r24, 0x01	; 1
    47aa:	91 05       	cpc	r25, r1
    47ac:	09 f4       	brne	.+2      	; 0x47b0 <SevenSegment_Display+0x42>
    47ae:	96 c0       	rjmp	.+300    	; 0x48dc <SevenSegment_Display+0x16e>
    47b0:	29 85       	ldd	r18, Y+9	; 0x09
    47b2:	3a 85       	ldd	r19, Y+10	; 0x0a
    47b4:	22 30       	cpi	r18, 0x02	; 2
    47b6:	31 05       	cpc	r19, r1
    47b8:	2c f4       	brge	.+10     	; 0x47c4 <SevenSegment_Display+0x56>
    47ba:	89 85       	ldd	r24, Y+9	; 0x09
    47bc:	9a 85       	ldd	r25, Y+10	; 0x0a
    47be:	00 97       	sbiw	r24, 0x00	; 0
    47c0:	71 f0       	breq	.+28     	; 0x47de <SevenSegment_Display+0x70>
    47c2:	08 c2       	rjmp	.+1040   	; 0x4bd4 <SevenSegment_Display+0x466>
    47c4:	29 85       	ldd	r18, Y+9	; 0x09
    47c6:	3a 85       	ldd	r19, Y+10	; 0x0a
    47c8:	22 30       	cpi	r18, 0x02	; 2
    47ca:	31 05       	cpc	r19, r1
    47cc:	09 f4       	brne	.+2      	; 0x47d0 <SevenSegment_Display+0x62>
    47ce:	05 c1       	rjmp	.+522    	; 0x49da <SevenSegment_Display+0x26c>
    47d0:	89 85       	ldd	r24, Y+9	; 0x09
    47d2:	9a 85       	ldd	r25, Y+10	; 0x0a
    47d4:	83 30       	cpi	r24, 0x03	; 3
    47d6:	91 05       	cpc	r25, r1
    47d8:	09 f4       	brne	.+2      	; 0x47dc <SevenSegment_Display+0x6e>
    47da:	7e c1       	rjmp	.+764    	; 0x4ad8 <SevenSegment_Display+0x36a>
    47dc:	fb c1       	rjmp	.+1014   	; 0x4bd4 <SevenSegment_Display+0x466>
	{
	case DIO_u8_PORTA:
		if (Copy_u8Pin0 == DIO_u8_HIGH)
    47de:	8a 81       	ldd	r24, Y+2	; 0x02
    47e0:	81 30       	cpi	r24, 0x01	; 1
    47e2:	41 f4       	brne	.+16     	; 0x47f4 <SevenSegment_Display+0x86>
		{
			SET_BIT(DIO_u8_PORTA_REG, DIO_u8_PIN0);
    47e4:	ab e3       	ldi	r26, 0x3B	; 59
    47e6:	b0 e0       	ldi	r27, 0x00	; 0
    47e8:	eb e3       	ldi	r30, 0x3B	; 59
    47ea:	f0 e0       	ldi	r31, 0x00	; 0
    47ec:	80 81       	ld	r24, Z
    47ee:	81 60       	ori	r24, 0x01	; 1
    47f0:	8c 93       	st	X, r24
    47f2:	07 c0       	rjmp	.+14     	; 0x4802 <SevenSegment_Display+0x94>
		}
		else
		{
			CLR_BIT(DIO_u8_PORTA_REG, DIO_u8_PIN0);
    47f4:	ab e3       	ldi	r26, 0x3B	; 59
    47f6:	b0 e0       	ldi	r27, 0x00	; 0
    47f8:	eb e3       	ldi	r30, 0x3B	; 59
    47fa:	f0 e0       	ldi	r31, 0x00	; 0
    47fc:	80 81       	ld	r24, Z
    47fe:	8e 7f       	andi	r24, 0xFE	; 254
    4800:	8c 93       	st	X, r24
		}

		if (Copy_u8Pin1 == DIO_u8_HIGH)
    4802:	8b 81       	ldd	r24, Y+3	; 0x03
    4804:	81 30       	cpi	r24, 0x01	; 1
    4806:	41 f4       	brne	.+16     	; 0x4818 <SevenSegment_Display+0xaa>
		{
			SET_BIT(DIO_u8_PORTA_REG, DIO_u8_PIN1);
    4808:	ab e3       	ldi	r26, 0x3B	; 59
    480a:	b0 e0       	ldi	r27, 0x00	; 0
    480c:	eb e3       	ldi	r30, 0x3B	; 59
    480e:	f0 e0       	ldi	r31, 0x00	; 0
    4810:	80 81       	ld	r24, Z
    4812:	82 60       	ori	r24, 0x02	; 2
    4814:	8c 93       	st	X, r24
    4816:	07 c0       	rjmp	.+14     	; 0x4826 <SevenSegment_Display+0xb8>
		}
		else
		{
			CLR_BIT(DIO_u8_PORTA_REG, DIO_u8_PIN1);
    4818:	ab e3       	ldi	r26, 0x3B	; 59
    481a:	b0 e0       	ldi	r27, 0x00	; 0
    481c:	eb e3       	ldi	r30, 0x3B	; 59
    481e:	f0 e0       	ldi	r31, 0x00	; 0
    4820:	80 81       	ld	r24, Z
    4822:	8d 7f       	andi	r24, 0xFD	; 253
    4824:	8c 93       	st	X, r24
		}

		if (Copy_u8Pin2 == DIO_u8_HIGH)
    4826:	8c 81       	ldd	r24, Y+4	; 0x04
    4828:	81 30       	cpi	r24, 0x01	; 1
    482a:	41 f4       	brne	.+16     	; 0x483c <SevenSegment_Display+0xce>
		{
			SET_BIT(DIO_u8_PORTA_REG, DIO_u8_PIN2);
    482c:	ab e3       	ldi	r26, 0x3B	; 59
    482e:	b0 e0       	ldi	r27, 0x00	; 0
    4830:	eb e3       	ldi	r30, 0x3B	; 59
    4832:	f0 e0       	ldi	r31, 0x00	; 0
    4834:	80 81       	ld	r24, Z
    4836:	84 60       	ori	r24, 0x04	; 4
    4838:	8c 93       	st	X, r24
    483a:	07 c0       	rjmp	.+14     	; 0x484a <SevenSegment_Display+0xdc>
		}
		else
		{
			CLR_BIT(DIO_u8_PORTA_REG, DIO_u8_PIN2);
    483c:	ab e3       	ldi	r26, 0x3B	; 59
    483e:	b0 e0       	ldi	r27, 0x00	; 0
    4840:	eb e3       	ldi	r30, 0x3B	; 59
    4842:	f0 e0       	ldi	r31, 0x00	; 0
    4844:	80 81       	ld	r24, Z
    4846:	8b 7f       	andi	r24, 0xFB	; 251
    4848:	8c 93       	st	X, r24
		}

		if (Copy_u8Pin3 == DIO_u8_HIGH)
    484a:	8d 81       	ldd	r24, Y+5	; 0x05
    484c:	81 30       	cpi	r24, 0x01	; 1
    484e:	41 f4       	brne	.+16     	; 0x4860 <SevenSegment_Display+0xf2>
		{
			SET_BIT(DIO_u8_PORTA_REG, DIO_u8_PIN3);
    4850:	ab e3       	ldi	r26, 0x3B	; 59
    4852:	b0 e0       	ldi	r27, 0x00	; 0
    4854:	eb e3       	ldi	r30, 0x3B	; 59
    4856:	f0 e0       	ldi	r31, 0x00	; 0
    4858:	80 81       	ld	r24, Z
    485a:	88 60       	ori	r24, 0x08	; 8
    485c:	8c 93       	st	X, r24
    485e:	07 c0       	rjmp	.+14     	; 0x486e <SevenSegment_Display+0x100>
		}
		else
		{
			CLR_BIT(DIO_u8_PORTA_REG, DIO_u8_PIN3);
    4860:	ab e3       	ldi	r26, 0x3B	; 59
    4862:	b0 e0       	ldi	r27, 0x00	; 0
    4864:	eb e3       	ldi	r30, 0x3B	; 59
    4866:	f0 e0       	ldi	r31, 0x00	; 0
    4868:	80 81       	ld	r24, Z
    486a:	87 7f       	andi	r24, 0xF7	; 247
    486c:	8c 93       	st	X, r24
		}

		if (Copy_u8Pin4 == DIO_u8_HIGH)
    486e:	8e 81       	ldd	r24, Y+6	; 0x06
    4870:	81 30       	cpi	r24, 0x01	; 1
    4872:	41 f4       	brne	.+16     	; 0x4884 <SevenSegment_Display+0x116>
		{
			SET_BIT(DIO_u8_PORTA_REG, DIO_u8_PIN4);
    4874:	ab e3       	ldi	r26, 0x3B	; 59
    4876:	b0 e0       	ldi	r27, 0x00	; 0
    4878:	eb e3       	ldi	r30, 0x3B	; 59
    487a:	f0 e0       	ldi	r31, 0x00	; 0
    487c:	80 81       	ld	r24, Z
    487e:	80 61       	ori	r24, 0x10	; 16
    4880:	8c 93       	st	X, r24
    4882:	07 c0       	rjmp	.+14     	; 0x4892 <SevenSegment_Display+0x124>
		}
		else
		{
			CLR_BIT(DIO_u8_PORTA_REG, DIO_u8_PIN4);
    4884:	ab e3       	ldi	r26, 0x3B	; 59
    4886:	b0 e0       	ldi	r27, 0x00	; 0
    4888:	eb e3       	ldi	r30, 0x3B	; 59
    488a:	f0 e0       	ldi	r31, 0x00	; 0
    488c:	80 81       	ld	r24, Z
    488e:	8f 7e       	andi	r24, 0xEF	; 239
    4890:	8c 93       	st	X, r24
		}

		if (Copy_u8Pin5 == DIO_u8_HIGH)
    4892:	8f 81       	ldd	r24, Y+7	; 0x07
    4894:	81 30       	cpi	r24, 0x01	; 1
    4896:	41 f4       	brne	.+16     	; 0x48a8 <SevenSegment_Display+0x13a>
		{
			SET_BIT(DIO_u8_PORTA_REG, DIO_u8_PIN5);
    4898:	ab e3       	ldi	r26, 0x3B	; 59
    489a:	b0 e0       	ldi	r27, 0x00	; 0
    489c:	eb e3       	ldi	r30, 0x3B	; 59
    489e:	f0 e0       	ldi	r31, 0x00	; 0
    48a0:	80 81       	ld	r24, Z
    48a2:	80 62       	ori	r24, 0x20	; 32
    48a4:	8c 93       	st	X, r24
    48a6:	07 c0       	rjmp	.+14     	; 0x48b6 <SevenSegment_Display+0x148>
		}
		else
		{
			CLR_BIT(DIO_u8_PORTA_REG, DIO_u8_PIN5);
    48a8:	ab e3       	ldi	r26, 0x3B	; 59
    48aa:	b0 e0       	ldi	r27, 0x00	; 0
    48ac:	eb e3       	ldi	r30, 0x3B	; 59
    48ae:	f0 e0       	ldi	r31, 0x00	; 0
    48b0:	80 81       	ld	r24, Z
    48b2:	8f 7d       	andi	r24, 0xDF	; 223
    48b4:	8c 93       	st	X, r24
		}

		if (Copy_u8Pin6 == DIO_u8_HIGH)
    48b6:	88 85       	ldd	r24, Y+8	; 0x08
    48b8:	81 30       	cpi	r24, 0x01	; 1
    48ba:	41 f4       	brne	.+16     	; 0x48cc <SevenSegment_Display+0x15e>
		{
			SET_BIT(DIO_u8_PORTA_REG, DIO_u8_PIN6);
    48bc:	ab e3       	ldi	r26, 0x3B	; 59
    48be:	b0 e0       	ldi	r27, 0x00	; 0
    48c0:	eb e3       	ldi	r30, 0x3B	; 59
    48c2:	f0 e0       	ldi	r31, 0x00	; 0
    48c4:	80 81       	ld	r24, Z
    48c6:	80 64       	ori	r24, 0x40	; 64
    48c8:	8c 93       	st	X, r24
    48ca:	84 c1       	rjmp	.+776    	; 0x4bd4 <SevenSegment_Display+0x466>
		}
		else
		{
			CLR_BIT(DIO_u8_PORTA_REG, DIO_u8_PIN6);
    48cc:	ab e3       	ldi	r26, 0x3B	; 59
    48ce:	b0 e0       	ldi	r27, 0x00	; 0
    48d0:	eb e3       	ldi	r30, 0x3B	; 59
    48d2:	f0 e0       	ldi	r31, 0x00	; 0
    48d4:	80 81       	ld	r24, Z
    48d6:	8f 7b       	andi	r24, 0xBF	; 191
    48d8:	8c 93       	st	X, r24
    48da:	7c c1       	rjmp	.+760    	; 0x4bd4 <SevenSegment_Display+0x466>
		}
		break;

	case DIO_u8_PORTB:
		if (Copy_u8Pin0 == DIO_u8_HIGH)
    48dc:	8a 81       	ldd	r24, Y+2	; 0x02
    48de:	81 30       	cpi	r24, 0x01	; 1
    48e0:	41 f4       	brne	.+16     	; 0x48f2 <SevenSegment_Display+0x184>
		{
			SET_BIT(DIO_u8_PORTB_REG, DIO_u8_PIN0);
    48e2:	a8 e3       	ldi	r26, 0x38	; 56
    48e4:	b0 e0       	ldi	r27, 0x00	; 0
    48e6:	e8 e3       	ldi	r30, 0x38	; 56
    48e8:	f0 e0       	ldi	r31, 0x00	; 0
    48ea:	80 81       	ld	r24, Z
    48ec:	81 60       	ori	r24, 0x01	; 1
    48ee:	8c 93       	st	X, r24
    48f0:	07 c0       	rjmp	.+14     	; 0x4900 <SevenSegment_Display+0x192>
		}
		else
		{
			CLR_BIT(DIO_u8_PORTB_REG, DIO_u8_PIN0);
    48f2:	a8 e3       	ldi	r26, 0x38	; 56
    48f4:	b0 e0       	ldi	r27, 0x00	; 0
    48f6:	e8 e3       	ldi	r30, 0x38	; 56
    48f8:	f0 e0       	ldi	r31, 0x00	; 0
    48fa:	80 81       	ld	r24, Z
    48fc:	8e 7f       	andi	r24, 0xFE	; 254
    48fe:	8c 93       	st	X, r24
		}

		if (Copy_u8Pin1 == DIO_u8_HIGH)
    4900:	8b 81       	ldd	r24, Y+3	; 0x03
    4902:	81 30       	cpi	r24, 0x01	; 1
    4904:	41 f4       	brne	.+16     	; 0x4916 <SevenSegment_Display+0x1a8>
		{
			SET_BIT(DIO_u8_PORTB_REG, DIO_u8_PIN1);
    4906:	a8 e3       	ldi	r26, 0x38	; 56
    4908:	b0 e0       	ldi	r27, 0x00	; 0
    490a:	e8 e3       	ldi	r30, 0x38	; 56
    490c:	f0 e0       	ldi	r31, 0x00	; 0
    490e:	80 81       	ld	r24, Z
    4910:	82 60       	ori	r24, 0x02	; 2
    4912:	8c 93       	st	X, r24
    4914:	07 c0       	rjmp	.+14     	; 0x4924 <SevenSegment_Display+0x1b6>
		}
		else
		{
			CLR_BIT(DIO_u8_PORTB_REG, DIO_u8_PIN1);
    4916:	a8 e3       	ldi	r26, 0x38	; 56
    4918:	b0 e0       	ldi	r27, 0x00	; 0
    491a:	e8 e3       	ldi	r30, 0x38	; 56
    491c:	f0 e0       	ldi	r31, 0x00	; 0
    491e:	80 81       	ld	r24, Z
    4920:	8d 7f       	andi	r24, 0xFD	; 253
    4922:	8c 93       	st	X, r24
		}

		if (Copy_u8Pin2 == DIO_u8_HIGH)
    4924:	8c 81       	ldd	r24, Y+4	; 0x04
    4926:	81 30       	cpi	r24, 0x01	; 1
    4928:	41 f4       	brne	.+16     	; 0x493a <SevenSegment_Display+0x1cc>
		{
			SET_BIT(DIO_u8_PORTB_REG, DIO_u8_PIN2);
    492a:	a8 e3       	ldi	r26, 0x38	; 56
    492c:	b0 e0       	ldi	r27, 0x00	; 0
    492e:	e8 e3       	ldi	r30, 0x38	; 56
    4930:	f0 e0       	ldi	r31, 0x00	; 0
    4932:	80 81       	ld	r24, Z
    4934:	84 60       	ori	r24, 0x04	; 4
    4936:	8c 93       	st	X, r24
    4938:	07 c0       	rjmp	.+14     	; 0x4948 <SevenSegment_Display+0x1da>
		}
		else
		{
			CLR_BIT(DIO_u8_PORTB_REG, DIO_u8_PIN2);
    493a:	a8 e3       	ldi	r26, 0x38	; 56
    493c:	b0 e0       	ldi	r27, 0x00	; 0
    493e:	e8 e3       	ldi	r30, 0x38	; 56
    4940:	f0 e0       	ldi	r31, 0x00	; 0
    4942:	80 81       	ld	r24, Z
    4944:	8b 7f       	andi	r24, 0xFB	; 251
    4946:	8c 93       	st	X, r24
		}

		if (Copy_u8Pin3 == DIO_u8_HIGH)
    4948:	8d 81       	ldd	r24, Y+5	; 0x05
    494a:	81 30       	cpi	r24, 0x01	; 1
    494c:	41 f4       	brne	.+16     	; 0x495e <SevenSegment_Display+0x1f0>
		{
			SET_BIT(DIO_u8_PORTB_REG, DIO_u8_PIN3);
    494e:	a8 e3       	ldi	r26, 0x38	; 56
    4950:	b0 e0       	ldi	r27, 0x00	; 0
    4952:	e8 e3       	ldi	r30, 0x38	; 56
    4954:	f0 e0       	ldi	r31, 0x00	; 0
    4956:	80 81       	ld	r24, Z
    4958:	88 60       	ori	r24, 0x08	; 8
    495a:	8c 93       	st	X, r24
    495c:	07 c0       	rjmp	.+14     	; 0x496c <SevenSegment_Display+0x1fe>
		}
		else
		{
			CLR_BIT(DIO_u8_PORTB_REG, DIO_u8_PIN3);
    495e:	a8 e3       	ldi	r26, 0x38	; 56
    4960:	b0 e0       	ldi	r27, 0x00	; 0
    4962:	e8 e3       	ldi	r30, 0x38	; 56
    4964:	f0 e0       	ldi	r31, 0x00	; 0
    4966:	80 81       	ld	r24, Z
    4968:	87 7f       	andi	r24, 0xF7	; 247
    496a:	8c 93       	st	X, r24
		}

		if (Copy_u8Pin4 == DIO_u8_HIGH)
    496c:	8e 81       	ldd	r24, Y+6	; 0x06
    496e:	81 30       	cpi	r24, 0x01	; 1
    4970:	41 f4       	brne	.+16     	; 0x4982 <SevenSegment_Display+0x214>
		{
			SET_BIT(DIO_u8_PORTB_REG, DIO_u8_PIN4);
    4972:	a8 e3       	ldi	r26, 0x38	; 56
    4974:	b0 e0       	ldi	r27, 0x00	; 0
    4976:	e8 e3       	ldi	r30, 0x38	; 56
    4978:	f0 e0       	ldi	r31, 0x00	; 0
    497a:	80 81       	ld	r24, Z
    497c:	80 61       	ori	r24, 0x10	; 16
    497e:	8c 93       	st	X, r24
    4980:	07 c0       	rjmp	.+14     	; 0x4990 <SevenSegment_Display+0x222>
		}
		else
		{
			CLR_BIT(DIO_u8_PORTB_REG, DIO_u8_PIN4);
    4982:	a8 e3       	ldi	r26, 0x38	; 56
    4984:	b0 e0       	ldi	r27, 0x00	; 0
    4986:	e8 e3       	ldi	r30, 0x38	; 56
    4988:	f0 e0       	ldi	r31, 0x00	; 0
    498a:	80 81       	ld	r24, Z
    498c:	8f 7e       	andi	r24, 0xEF	; 239
    498e:	8c 93       	st	X, r24
		}

		if (Copy_u8Pin5 == DIO_u8_HIGH)
    4990:	8f 81       	ldd	r24, Y+7	; 0x07
    4992:	81 30       	cpi	r24, 0x01	; 1
    4994:	41 f4       	brne	.+16     	; 0x49a6 <SevenSegment_Display+0x238>
		{
			SET_BIT(DIO_u8_PORTB_REG, DIO_u8_PIN5);
    4996:	a8 e3       	ldi	r26, 0x38	; 56
    4998:	b0 e0       	ldi	r27, 0x00	; 0
    499a:	e8 e3       	ldi	r30, 0x38	; 56
    499c:	f0 e0       	ldi	r31, 0x00	; 0
    499e:	80 81       	ld	r24, Z
    49a0:	80 62       	ori	r24, 0x20	; 32
    49a2:	8c 93       	st	X, r24
    49a4:	07 c0       	rjmp	.+14     	; 0x49b4 <SevenSegment_Display+0x246>
		}
		else
		{
			CLR_BIT(DIO_u8_PORTB_REG, DIO_u8_PIN5);
    49a6:	a8 e3       	ldi	r26, 0x38	; 56
    49a8:	b0 e0       	ldi	r27, 0x00	; 0
    49aa:	e8 e3       	ldi	r30, 0x38	; 56
    49ac:	f0 e0       	ldi	r31, 0x00	; 0
    49ae:	80 81       	ld	r24, Z
    49b0:	8f 7d       	andi	r24, 0xDF	; 223
    49b2:	8c 93       	st	X, r24
		}

		if (Copy_u8Pin6 == DIO_u8_HIGH)
    49b4:	88 85       	ldd	r24, Y+8	; 0x08
    49b6:	81 30       	cpi	r24, 0x01	; 1
    49b8:	41 f4       	brne	.+16     	; 0x49ca <SevenSegment_Display+0x25c>
		{
			SET_BIT(DIO_u8_PORTB_REG, DIO_u8_PIN6);
    49ba:	a8 e3       	ldi	r26, 0x38	; 56
    49bc:	b0 e0       	ldi	r27, 0x00	; 0
    49be:	e8 e3       	ldi	r30, 0x38	; 56
    49c0:	f0 e0       	ldi	r31, 0x00	; 0
    49c2:	80 81       	ld	r24, Z
    49c4:	80 64       	ori	r24, 0x40	; 64
    49c6:	8c 93       	st	X, r24
    49c8:	05 c1       	rjmp	.+522    	; 0x4bd4 <SevenSegment_Display+0x466>
		}
		else
		{
			CLR_BIT(DIO_u8_PORTB_REG, DIO_u8_PIN6);
    49ca:	a8 e3       	ldi	r26, 0x38	; 56
    49cc:	b0 e0       	ldi	r27, 0x00	; 0
    49ce:	e8 e3       	ldi	r30, 0x38	; 56
    49d0:	f0 e0       	ldi	r31, 0x00	; 0
    49d2:	80 81       	ld	r24, Z
    49d4:	8f 7b       	andi	r24, 0xBF	; 191
    49d6:	8c 93       	st	X, r24
    49d8:	fd c0       	rjmp	.+506    	; 0x4bd4 <SevenSegment_Display+0x466>
		}
		break;

	case DIO_u8_PORTC:
		if (Copy_u8Pin0 == DIO_u8_HIGH)
    49da:	8a 81       	ldd	r24, Y+2	; 0x02
    49dc:	81 30       	cpi	r24, 0x01	; 1
    49de:	41 f4       	brne	.+16     	; 0x49f0 <SevenSegment_Display+0x282>
		{
			SET_BIT(DIO_u8_PORTC_REG, DIO_u8_PIN0);
    49e0:	a5 e3       	ldi	r26, 0x35	; 53
    49e2:	b0 e0       	ldi	r27, 0x00	; 0
    49e4:	e5 e3       	ldi	r30, 0x35	; 53
    49e6:	f0 e0       	ldi	r31, 0x00	; 0
    49e8:	80 81       	ld	r24, Z
    49ea:	81 60       	ori	r24, 0x01	; 1
    49ec:	8c 93       	st	X, r24
    49ee:	07 c0       	rjmp	.+14     	; 0x49fe <SevenSegment_Display+0x290>
		}
		else
		{
			CLR_BIT(DIO_u8_PORTC_REG, DIO_u8_PIN0);
    49f0:	a5 e3       	ldi	r26, 0x35	; 53
    49f2:	b0 e0       	ldi	r27, 0x00	; 0
    49f4:	e5 e3       	ldi	r30, 0x35	; 53
    49f6:	f0 e0       	ldi	r31, 0x00	; 0
    49f8:	80 81       	ld	r24, Z
    49fa:	8e 7f       	andi	r24, 0xFE	; 254
    49fc:	8c 93       	st	X, r24
		}

		if (Copy_u8Pin1 == DIO_u8_HIGH)
    49fe:	8b 81       	ldd	r24, Y+3	; 0x03
    4a00:	81 30       	cpi	r24, 0x01	; 1
    4a02:	41 f4       	brne	.+16     	; 0x4a14 <SevenSegment_Display+0x2a6>
		{
			SET_BIT(DIO_u8_PORTC_REG, DIO_u8_PIN1);
    4a04:	a5 e3       	ldi	r26, 0x35	; 53
    4a06:	b0 e0       	ldi	r27, 0x00	; 0
    4a08:	e5 e3       	ldi	r30, 0x35	; 53
    4a0a:	f0 e0       	ldi	r31, 0x00	; 0
    4a0c:	80 81       	ld	r24, Z
    4a0e:	82 60       	ori	r24, 0x02	; 2
    4a10:	8c 93       	st	X, r24
    4a12:	07 c0       	rjmp	.+14     	; 0x4a22 <SevenSegment_Display+0x2b4>
		}
		else
		{
			CLR_BIT(DIO_u8_PORTC_REG, DIO_u8_PIN1);
    4a14:	a5 e3       	ldi	r26, 0x35	; 53
    4a16:	b0 e0       	ldi	r27, 0x00	; 0
    4a18:	e5 e3       	ldi	r30, 0x35	; 53
    4a1a:	f0 e0       	ldi	r31, 0x00	; 0
    4a1c:	80 81       	ld	r24, Z
    4a1e:	8d 7f       	andi	r24, 0xFD	; 253
    4a20:	8c 93       	st	X, r24
		}

		if (Copy_u8Pin2 == DIO_u8_HIGH)
    4a22:	8c 81       	ldd	r24, Y+4	; 0x04
    4a24:	81 30       	cpi	r24, 0x01	; 1
    4a26:	41 f4       	brne	.+16     	; 0x4a38 <SevenSegment_Display+0x2ca>
		{
			SET_BIT(DIO_u8_PORTC_REG, DIO_u8_PIN2);
    4a28:	a5 e3       	ldi	r26, 0x35	; 53
    4a2a:	b0 e0       	ldi	r27, 0x00	; 0
    4a2c:	e5 e3       	ldi	r30, 0x35	; 53
    4a2e:	f0 e0       	ldi	r31, 0x00	; 0
    4a30:	80 81       	ld	r24, Z
    4a32:	84 60       	ori	r24, 0x04	; 4
    4a34:	8c 93       	st	X, r24
    4a36:	07 c0       	rjmp	.+14     	; 0x4a46 <SevenSegment_Display+0x2d8>
		}
		else
		{
			CLR_BIT(DIO_u8_PORTC_REG, DIO_u8_PIN2);
    4a38:	a5 e3       	ldi	r26, 0x35	; 53
    4a3a:	b0 e0       	ldi	r27, 0x00	; 0
    4a3c:	e5 e3       	ldi	r30, 0x35	; 53
    4a3e:	f0 e0       	ldi	r31, 0x00	; 0
    4a40:	80 81       	ld	r24, Z
    4a42:	8b 7f       	andi	r24, 0xFB	; 251
    4a44:	8c 93       	st	X, r24
		}

		if (Copy_u8Pin3 == DIO_u8_HIGH)
    4a46:	8d 81       	ldd	r24, Y+5	; 0x05
    4a48:	81 30       	cpi	r24, 0x01	; 1
    4a4a:	41 f4       	brne	.+16     	; 0x4a5c <SevenSegment_Display+0x2ee>
		{
			SET_BIT(DIO_u8_PORTC_REG, DIO_u8_PIN3);
    4a4c:	a5 e3       	ldi	r26, 0x35	; 53
    4a4e:	b0 e0       	ldi	r27, 0x00	; 0
    4a50:	e5 e3       	ldi	r30, 0x35	; 53
    4a52:	f0 e0       	ldi	r31, 0x00	; 0
    4a54:	80 81       	ld	r24, Z
    4a56:	88 60       	ori	r24, 0x08	; 8
    4a58:	8c 93       	st	X, r24
    4a5a:	07 c0       	rjmp	.+14     	; 0x4a6a <SevenSegment_Display+0x2fc>
		}
		else
		{
			CLR_BIT(DIO_u8_PORTC_REG, DIO_u8_PIN3);
    4a5c:	a5 e3       	ldi	r26, 0x35	; 53
    4a5e:	b0 e0       	ldi	r27, 0x00	; 0
    4a60:	e5 e3       	ldi	r30, 0x35	; 53
    4a62:	f0 e0       	ldi	r31, 0x00	; 0
    4a64:	80 81       	ld	r24, Z
    4a66:	87 7f       	andi	r24, 0xF7	; 247
    4a68:	8c 93       	st	X, r24
		}

		if (Copy_u8Pin4 == DIO_u8_HIGH)
    4a6a:	8e 81       	ldd	r24, Y+6	; 0x06
    4a6c:	81 30       	cpi	r24, 0x01	; 1
    4a6e:	41 f4       	brne	.+16     	; 0x4a80 <SevenSegment_Display+0x312>
		{
			SET_BIT(DIO_u8_PORTC_REG, DIO_u8_PIN4);
    4a70:	a5 e3       	ldi	r26, 0x35	; 53
    4a72:	b0 e0       	ldi	r27, 0x00	; 0
    4a74:	e5 e3       	ldi	r30, 0x35	; 53
    4a76:	f0 e0       	ldi	r31, 0x00	; 0
    4a78:	80 81       	ld	r24, Z
    4a7a:	80 61       	ori	r24, 0x10	; 16
    4a7c:	8c 93       	st	X, r24
    4a7e:	07 c0       	rjmp	.+14     	; 0x4a8e <SevenSegment_Display+0x320>
		}
		else
		{
			CLR_BIT(DIO_u8_PORTC_REG, DIO_u8_PIN4);
    4a80:	a5 e3       	ldi	r26, 0x35	; 53
    4a82:	b0 e0       	ldi	r27, 0x00	; 0
    4a84:	e5 e3       	ldi	r30, 0x35	; 53
    4a86:	f0 e0       	ldi	r31, 0x00	; 0
    4a88:	80 81       	ld	r24, Z
    4a8a:	8f 7e       	andi	r24, 0xEF	; 239
    4a8c:	8c 93       	st	X, r24
		}

		if (Copy_u8Pin5 == DIO_u8_HIGH)
    4a8e:	8f 81       	ldd	r24, Y+7	; 0x07
    4a90:	81 30       	cpi	r24, 0x01	; 1
    4a92:	41 f4       	brne	.+16     	; 0x4aa4 <SevenSegment_Display+0x336>
		{
			SET_BIT(DIO_u8_PORTC_REG, DIO_u8_PIN5);
    4a94:	a5 e3       	ldi	r26, 0x35	; 53
    4a96:	b0 e0       	ldi	r27, 0x00	; 0
    4a98:	e5 e3       	ldi	r30, 0x35	; 53
    4a9a:	f0 e0       	ldi	r31, 0x00	; 0
    4a9c:	80 81       	ld	r24, Z
    4a9e:	80 62       	ori	r24, 0x20	; 32
    4aa0:	8c 93       	st	X, r24
    4aa2:	07 c0       	rjmp	.+14     	; 0x4ab2 <SevenSegment_Display+0x344>
		}
		else
		{
			CLR_BIT(DIO_u8_PORTC_REG, DIO_u8_PIN5);
    4aa4:	a5 e3       	ldi	r26, 0x35	; 53
    4aa6:	b0 e0       	ldi	r27, 0x00	; 0
    4aa8:	e5 e3       	ldi	r30, 0x35	; 53
    4aaa:	f0 e0       	ldi	r31, 0x00	; 0
    4aac:	80 81       	ld	r24, Z
    4aae:	8f 7d       	andi	r24, 0xDF	; 223
    4ab0:	8c 93       	st	X, r24
		}

		if (Copy_u8Pin6 == DIO_u8_HIGH)
    4ab2:	88 85       	ldd	r24, Y+8	; 0x08
    4ab4:	81 30       	cpi	r24, 0x01	; 1
    4ab6:	41 f4       	brne	.+16     	; 0x4ac8 <SevenSegment_Display+0x35a>
		{
			SET_BIT(DIO_u8_PORTC_REG, DIO_u8_PIN6);
    4ab8:	a5 e3       	ldi	r26, 0x35	; 53
    4aba:	b0 e0       	ldi	r27, 0x00	; 0
    4abc:	e5 e3       	ldi	r30, 0x35	; 53
    4abe:	f0 e0       	ldi	r31, 0x00	; 0
    4ac0:	80 81       	ld	r24, Z
    4ac2:	80 64       	ori	r24, 0x40	; 64
    4ac4:	8c 93       	st	X, r24
    4ac6:	86 c0       	rjmp	.+268    	; 0x4bd4 <SevenSegment_Display+0x466>
		}
		else
		{
			CLR_BIT(DIO_u8_PORTC_REG, DIO_u8_PIN6);
    4ac8:	a5 e3       	ldi	r26, 0x35	; 53
    4aca:	b0 e0       	ldi	r27, 0x00	; 0
    4acc:	e5 e3       	ldi	r30, 0x35	; 53
    4ace:	f0 e0       	ldi	r31, 0x00	; 0
    4ad0:	80 81       	ld	r24, Z
    4ad2:	8f 7b       	andi	r24, 0xBF	; 191
    4ad4:	8c 93       	st	X, r24
    4ad6:	7e c0       	rjmp	.+252    	; 0x4bd4 <SevenSegment_Display+0x466>
		}
		break;

	case DIO_u8_PORTD:
		if (Copy_u8Pin0 == DIO_u8_HIGH)
    4ad8:	8a 81       	ldd	r24, Y+2	; 0x02
    4ada:	81 30       	cpi	r24, 0x01	; 1
    4adc:	41 f4       	brne	.+16     	; 0x4aee <SevenSegment_Display+0x380>
		{
			SET_BIT(DIO_u8_PORTD_REG, DIO_u8_PIN0);
    4ade:	a2 e3       	ldi	r26, 0x32	; 50
    4ae0:	b0 e0       	ldi	r27, 0x00	; 0
    4ae2:	e2 e3       	ldi	r30, 0x32	; 50
    4ae4:	f0 e0       	ldi	r31, 0x00	; 0
    4ae6:	80 81       	ld	r24, Z
    4ae8:	81 60       	ori	r24, 0x01	; 1
    4aea:	8c 93       	st	X, r24
    4aec:	07 c0       	rjmp	.+14     	; 0x4afc <SevenSegment_Display+0x38e>
		}
		else
		{
			CLR_BIT(DIO_u8_PORTD_REG, DIO_u8_PIN0);
    4aee:	a2 e3       	ldi	r26, 0x32	; 50
    4af0:	b0 e0       	ldi	r27, 0x00	; 0
    4af2:	e2 e3       	ldi	r30, 0x32	; 50
    4af4:	f0 e0       	ldi	r31, 0x00	; 0
    4af6:	80 81       	ld	r24, Z
    4af8:	8e 7f       	andi	r24, 0xFE	; 254
    4afa:	8c 93       	st	X, r24
		}

		if (Copy_u8Pin1 == DIO_u8_HIGH)
    4afc:	8b 81       	ldd	r24, Y+3	; 0x03
    4afe:	81 30       	cpi	r24, 0x01	; 1
    4b00:	41 f4       	brne	.+16     	; 0x4b12 <SevenSegment_Display+0x3a4>
		{
			SET_BIT(DIO_u8_PORTD_REG, DIO_u8_PIN1);
    4b02:	a2 e3       	ldi	r26, 0x32	; 50
    4b04:	b0 e0       	ldi	r27, 0x00	; 0
    4b06:	e2 e3       	ldi	r30, 0x32	; 50
    4b08:	f0 e0       	ldi	r31, 0x00	; 0
    4b0a:	80 81       	ld	r24, Z
    4b0c:	82 60       	ori	r24, 0x02	; 2
    4b0e:	8c 93       	st	X, r24
    4b10:	07 c0       	rjmp	.+14     	; 0x4b20 <SevenSegment_Display+0x3b2>
		}
		else
		{
			CLR_BIT(DIO_u8_PORTD_REG, DIO_u8_PIN1);
    4b12:	a2 e3       	ldi	r26, 0x32	; 50
    4b14:	b0 e0       	ldi	r27, 0x00	; 0
    4b16:	e2 e3       	ldi	r30, 0x32	; 50
    4b18:	f0 e0       	ldi	r31, 0x00	; 0
    4b1a:	80 81       	ld	r24, Z
    4b1c:	8d 7f       	andi	r24, 0xFD	; 253
    4b1e:	8c 93       	st	X, r24
		}

		if (Copy_u8Pin2 == DIO_u8_HIGH)
    4b20:	8c 81       	ldd	r24, Y+4	; 0x04
    4b22:	81 30       	cpi	r24, 0x01	; 1
    4b24:	41 f4       	brne	.+16     	; 0x4b36 <SevenSegment_Display+0x3c8>
		{
			SET_BIT(DIO_u8_PORTD_REG, DIO_u8_PIN2);
    4b26:	a2 e3       	ldi	r26, 0x32	; 50
    4b28:	b0 e0       	ldi	r27, 0x00	; 0
    4b2a:	e2 e3       	ldi	r30, 0x32	; 50
    4b2c:	f0 e0       	ldi	r31, 0x00	; 0
    4b2e:	80 81       	ld	r24, Z
    4b30:	84 60       	ori	r24, 0x04	; 4
    4b32:	8c 93       	st	X, r24
    4b34:	07 c0       	rjmp	.+14     	; 0x4b44 <SevenSegment_Display+0x3d6>
		}
		else
		{
			CLR_BIT(DIO_u8_PORTD_REG, DIO_u8_PIN2);
    4b36:	a2 e3       	ldi	r26, 0x32	; 50
    4b38:	b0 e0       	ldi	r27, 0x00	; 0
    4b3a:	e2 e3       	ldi	r30, 0x32	; 50
    4b3c:	f0 e0       	ldi	r31, 0x00	; 0
    4b3e:	80 81       	ld	r24, Z
    4b40:	8b 7f       	andi	r24, 0xFB	; 251
    4b42:	8c 93       	st	X, r24
		}

		if (Copy_u8Pin3 == DIO_u8_HIGH)
    4b44:	8d 81       	ldd	r24, Y+5	; 0x05
    4b46:	81 30       	cpi	r24, 0x01	; 1
    4b48:	41 f4       	brne	.+16     	; 0x4b5a <SevenSegment_Display+0x3ec>
		{
			SET_BIT(DIO_u8_PORTD_REG, DIO_u8_PIN3);
    4b4a:	a2 e3       	ldi	r26, 0x32	; 50
    4b4c:	b0 e0       	ldi	r27, 0x00	; 0
    4b4e:	e2 e3       	ldi	r30, 0x32	; 50
    4b50:	f0 e0       	ldi	r31, 0x00	; 0
    4b52:	80 81       	ld	r24, Z
    4b54:	88 60       	ori	r24, 0x08	; 8
    4b56:	8c 93       	st	X, r24
    4b58:	07 c0       	rjmp	.+14     	; 0x4b68 <SevenSegment_Display+0x3fa>
		}
		else
		{
			CLR_BIT(DIO_u8_PORTD_REG, DIO_u8_PIN3);
    4b5a:	a2 e3       	ldi	r26, 0x32	; 50
    4b5c:	b0 e0       	ldi	r27, 0x00	; 0
    4b5e:	e2 e3       	ldi	r30, 0x32	; 50
    4b60:	f0 e0       	ldi	r31, 0x00	; 0
    4b62:	80 81       	ld	r24, Z
    4b64:	87 7f       	andi	r24, 0xF7	; 247
    4b66:	8c 93       	st	X, r24
		}

		if (Copy_u8Pin4 == DIO_u8_HIGH)
    4b68:	8e 81       	ldd	r24, Y+6	; 0x06
    4b6a:	81 30       	cpi	r24, 0x01	; 1
    4b6c:	41 f4       	brne	.+16     	; 0x4b7e <SevenSegment_Display+0x410>
		{
			SET_BIT(DIO_u8_PORTD_REG, DIO_u8_PIN4);
    4b6e:	a2 e3       	ldi	r26, 0x32	; 50
    4b70:	b0 e0       	ldi	r27, 0x00	; 0
    4b72:	e2 e3       	ldi	r30, 0x32	; 50
    4b74:	f0 e0       	ldi	r31, 0x00	; 0
    4b76:	80 81       	ld	r24, Z
    4b78:	80 61       	ori	r24, 0x10	; 16
    4b7a:	8c 93       	st	X, r24
    4b7c:	07 c0       	rjmp	.+14     	; 0x4b8c <SevenSegment_Display+0x41e>
		}
		else
		{
			CLR_BIT(DIO_u8_PORTD_REG, DIO_u8_PIN4);
    4b7e:	a2 e3       	ldi	r26, 0x32	; 50
    4b80:	b0 e0       	ldi	r27, 0x00	; 0
    4b82:	e2 e3       	ldi	r30, 0x32	; 50
    4b84:	f0 e0       	ldi	r31, 0x00	; 0
    4b86:	80 81       	ld	r24, Z
    4b88:	8f 7e       	andi	r24, 0xEF	; 239
    4b8a:	8c 93       	st	X, r24
		}

		if (Copy_u8Pin5 == DIO_u8_HIGH)
    4b8c:	8f 81       	ldd	r24, Y+7	; 0x07
    4b8e:	81 30       	cpi	r24, 0x01	; 1
    4b90:	41 f4       	brne	.+16     	; 0x4ba2 <SevenSegment_Display+0x434>
		{
			SET_BIT(DIO_u8_PORTD_REG, DIO_u8_PIN5);
    4b92:	a2 e3       	ldi	r26, 0x32	; 50
    4b94:	b0 e0       	ldi	r27, 0x00	; 0
    4b96:	e2 e3       	ldi	r30, 0x32	; 50
    4b98:	f0 e0       	ldi	r31, 0x00	; 0
    4b9a:	80 81       	ld	r24, Z
    4b9c:	80 62       	ori	r24, 0x20	; 32
    4b9e:	8c 93       	st	X, r24
    4ba0:	07 c0       	rjmp	.+14     	; 0x4bb0 <SevenSegment_Display+0x442>
		}
		else
		{
			CLR_BIT(DIO_u8_PORTD_REG, DIO_u8_PIN5);
    4ba2:	a2 e3       	ldi	r26, 0x32	; 50
    4ba4:	b0 e0       	ldi	r27, 0x00	; 0
    4ba6:	e2 e3       	ldi	r30, 0x32	; 50
    4ba8:	f0 e0       	ldi	r31, 0x00	; 0
    4baa:	80 81       	ld	r24, Z
    4bac:	8f 7d       	andi	r24, 0xDF	; 223
    4bae:	8c 93       	st	X, r24
		}

		if (Copy_u8Pin6 == DIO_u8_HIGH)
    4bb0:	88 85       	ldd	r24, Y+8	; 0x08
    4bb2:	81 30       	cpi	r24, 0x01	; 1
    4bb4:	41 f4       	brne	.+16     	; 0x4bc6 <SevenSegment_Display+0x458>
		{
			SET_BIT(DIO_u8_PORTD_REG, DIO_u8_PIN6);
    4bb6:	a2 e3       	ldi	r26, 0x32	; 50
    4bb8:	b0 e0       	ldi	r27, 0x00	; 0
    4bba:	e2 e3       	ldi	r30, 0x32	; 50
    4bbc:	f0 e0       	ldi	r31, 0x00	; 0
    4bbe:	80 81       	ld	r24, Z
    4bc0:	80 64       	ori	r24, 0x40	; 64
    4bc2:	8c 93       	st	X, r24
    4bc4:	07 c0       	rjmp	.+14     	; 0x4bd4 <SevenSegment_Display+0x466>
		}
		else
		{
			CLR_BIT(DIO_u8_PORTD_REG, DIO_u8_PIN6);
    4bc6:	a2 e3       	ldi	r26, 0x32	; 50
    4bc8:	b0 e0       	ldi	r27, 0x00	; 0
    4bca:	e2 e3       	ldi	r30, 0x32	; 50
    4bcc:	f0 e0       	ldi	r31, 0x00	; 0
    4bce:	80 81       	ld	r24, Z
    4bd0:	8f 7b       	andi	r24, 0xBF	; 191
    4bd2:	8c 93       	st	X, r24
		}
		break;
	}
}
    4bd4:	2a 96       	adiw	r28, 0x0a	; 10
    4bd6:	0f b6       	in	r0, 0x3f	; 63
    4bd8:	f8 94       	cli
    4bda:	de bf       	out	0x3e, r29	; 62
    4bdc:	0f be       	out	0x3f, r0	; 63
    4bde:	cd bf       	out	0x3d, r28	; 61
    4be0:	cf 91       	pop	r28
    4be2:	df 91       	pop	r29
    4be4:	0f 91       	pop	r16
    4be6:	ef 90       	pop	r14
    4be8:	cf 90       	pop	r12
    4bea:	af 90       	pop	r10
    4bec:	08 95       	ret

00004bee <SevenSegment_From0To9>:

void SevenSegment_From0To9(u8 Copy_u8PortId){
    4bee:	af 92       	push	r10
    4bf0:	cf 92       	push	r12
    4bf2:	ef 92       	push	r14
    4bf4:	0f 93       	push	r16
    4bf6:	1f 93       	push	r17
    4bf8:	df 93       	push	r29
    4bfa:	cf 93       	push	r28
    4bfc:	cd b7       	in	r28, 0x3d	; 61
    4bfe:	de b7       	in	r29, 0x3e	; 62
    4c00:	cd 58       	subi	r28, 0x8D	; 141
    4c02:	d0 40       	sbci	r29, 0x00	; 0
    4c04:	0f b6       	in	r0, 0x3f	; 63
    4c06:	f8 94       	cli
    4c08:	de bf       	out	0x3e, r29	; 62
    4c0a:	0f be       	out	0x3f, r0	; 63
    4c0c:	cd bf       	out	0x3d, r28	; 61
    4c0e:	fe 01       	movw	r30, r28
    4c10:	e3 57       	subi	r30, 0x73	; 115
    4c12:	ff 4f       	sbci	r31, 0xFF	; 255
    4c14:	80 83       	st	Z, r24
	while(1){
		SevenSegment_Display(Copy_u8PortId, 1, 1, 1, 1, 1, 1, 0); // 0
    4c16:	fe 01       	movw	r30, r28
    4c18:	e3 57       	subi	r30, 0x73	; 115
    4c1a:	ff 4f       	sbci	r31, 0xFF	; 255
    4c1c:	80 81       	ld	r24, Z
    4c1e:	61 e0       	ldi	r22, 0x01	; 1
    4c20:	41 e0       	ldi	r20, 0x01	; 1
    4c22:	21 e0       	ldi	r18, 0x01	; 1
    4c24:	01 e0       	ldi	r16, 0x01	; 1
    4c26:	ee 24       	eor	r14, r14
    4c28:	e3 94       	inc	r14
    4c2a:	cc 24       	eor	r12, r12
    4c2c:	c3 94       	inc	r12
    4c2e:	aa 24       	eor	r10, r10
    4c30:	0e 94 b7 23 	call	0x476e	; 0x476e <SevenSegment_Display>
    4c34:	fe 01       	movw	r30, r28
    4c36:	e7 57       	subi	r30, 0x77	; 119
    4c38:	ff 4f       	sbci	r31, 0xFF	; 255
    4c3a:	80 e0       	ldi	r24, 0x00	; 0
    4c3c:	90 e0       	ldi	r25, 0x00	; 0
    4c3e:	a8 e4       	ldi	r26, 0x48	; 72
    4c40:	b2 e4       	ldi	r27, 0x42	; 66
    4c42:	80 83       	st	Z, r24
    4c44:	91 83       	std	Z+1, r25	; 0x01
    4c46:	a2 83       	std	Z+2, r26	; 0x02
    4c48:	b3 83       	std	Z+3, r27	; 0x03
 */
void
_delay_ms(double __ms)
{
	uint16_t __ticks;
	double __tmp = ((F_CPU) / 4e3) * __ms;
    4c4a:	8e 01       	movw	r16, r28
    4c4c:	0b 57       	subi	r16, 0x7B	; 123
    4c4e:	1f 4f       	sbci	r17, 0xFF	; 255
    4c50:	fe 01       	movw	r30, r28
    4c52:	e7 57       	subi	r30, 0x77	; 119
    4c54:	ff 4f       	sbci	r31, 0xFF	; 255
    4c56:	60 81       	ld	r22, Z
    4c58:	71 81       	ldd	r23, Z+1	; 0x01
    4c5a:	82 81       	ldd	r24, Z+2	; 0x02
    4c5c:	93 81       	ldd	r25, Z+3	; 0x03
    4c5e:	20 e0       	ldi	r18, 0x00	; 0
    4c60:	30 e0       	ldi	r19, 0x00	; 0
    4c62:	4a e7       	ldi	r20, 0x7A	; 122
    4c64:	55 e4       	ldi	r21, 0x45	; 69
    4c66:	0e 94 1f 02 	call	0x43e	; 0x43e <__mulsf3>
    4c6a:	dc 01       	movw	r26, r24
    4c6c:	cb 01       	movw	r24, r22
    4c6e:	f8 01       	movw	r30, r16
    4c70:	80 83       	st	Z, r24
    4c72:	91 83       	std	Z+1, r25	; 0x01
    4c74:	a2 83       	std	Z+2, r26	; 0x02
    4c76:	b3 83       	std	Z+3, r27	; 0x03
	if (__tmp < 1.0)
    4c78:	fe 01       	movw	r30, r28
    4c7a:	eb 57       	subi	r30, 0x7B	; 123
    4c7c:	ff 4f       	sbci	r31, 0xFF	; 255
    4c7e:	60 81       	ld	r22, Z
    4c80:	71 81       	ldd	r23, Z+1	; 0x01
    4c82:	82 81       	ldd	r24, Z+2	; 0x02
    4c84:	93 81       	ldd	r25, Z+3	; 0x03
    4c86:	20 e0       	ldi	r18, 0x00	; 0
    4c88:	30 e0       	ldi	r19, 0x00	; 0
    4c8a:	40 e8       	ldi	r20, 0x80	; 128
    4c8c:	5f e3       	ldi	r21, 0x3F	; 63
    4c8e:	0e 94 79 03 	call	0x6f2	; 0x6f2 <__ltsf2>
    4c92:	88 23       	and	r24, r24
    4c94:	44 f4       	brge	.+16     	; 0x4ca6 <SevenSegment_From0To9+0xb8>
		__ticks = 1;
    4c96:	fe 01       	movw	r30, r28
    4c98:	ed 57       	subi	r30, 0x7D	; 125
    4c9a:	ff 4f       	sbci	r31, 0xFF	; 255
    4c9c:	81 e0       	ldi	r24, 0x01	; 1
    4c9e:	90 e0       	ldi	r25, 0x00	; 0
    4ca0:	91 83       	std	Z+1, r25	; 0x01
    4ca2:	80 83       	st	Z, r24
    4ca4:	64 c0       	rjmp	.+200    	; 0x4d6e <SevenSegment_From0To9+0x180>
	else if (__tmp > 65535)
    4ca6:	fe 01       	movw	r30, r28
    4ca8:	eb 57       	subi	r30, 0x7B	; 123
    4caa:	ff 4f       	sbci	r31, 0xFF	; 255
    4cac:	60 81       	ld	r22, Z
    4cae:	71 81       	ldd	r23, Z+1	; 0x01
    4cb0:	82 81       	ldd	r24, Z+2	; 0x02
    4cb2:	93 81       	ldd	r25, Z+3	; 0x03
    4cb4:	20 e0       	ldi	r18, 0x00	; 0
    4cb6:	3f ef       	ldi	r19, 0xFF	; 255
    4cb8:	4f e7       	ldi	r20, 0x7F	; 127
    4cba:	57 e4       	ldi	r21, 0x47	; 71
    4cbc:	0e 94 19 03 	call	0x632	; 0x632 <__gtsf2>
    4cc0:	18 16       	cp	r1, r24
    4cc2:	0c f0       	brlt	.+2      	; 0x4cc6 <SevenSegment_From0To9+0xd8>
    4cc4:	43 c0       	rjmp	.+134    	; 0x4d4c <SevenSegment_From0To9+0x15e>
	{
		//	__ticks = requested delay in 1/10 ms
		__ticks = (uint16_t) (__ms * 10.0);
    4cc6:	fe 01       	movw	r30, r28
    4cc8:	e7 57       	subi	r30, 0x77	; 119
    4cca:	ff 4f       	sbci	r31, 0xFF	; 255
    4ccc:	60 81       	ld	r22, Z
    4cce:	71 81       	ldd	r23, Z+1	; 0x01
    4cd0:	82 81       	ldd	r24, Z+2	; 0x02
    4cd2:	93 81       	ldd	r25, Z+3	; 0x03
    4cd4:	20 e0       	ldi	r18, 0x00	; 0
    4cd6:	30 e0       	ldi	r19, 0x00	; 0
    4cd8:	40 e2       	ldi	r20, 0x20	; 32
    4cda:	51 e4       	ldi	r21, 0x41	; 65
    4cdc:	0e 94 1f 02 	call	0x43e	; 0x43e <__mulsf3>
    4ce0:	dc 01       	movw	r26, r24
    4ce2:	cb 01       	movw	r24, r22
    4ce4:	8e 01       	movw	r16, r28
    4ce6:	0d 57       	subi	r16, 0x7D	; 125
    4ce8:	1f 4f       	sbci	r17, 0xFF	; 255
    4cea:	bc 01       	movw	r22, r24
    4cec:	cd 01       	movw	r24, r26
    4cee:	0e 94 49 00 	call	0x92	; 0x92 <__fixunssfsi>
    4cf2:	dc 01       	movw	r26, r24
    4cf4:	cb 01       	movw	r24, r22
    4cf6:	f8 01       	movw	r30, r16
    4cf8:	91 83       	std	Z+1, r25	; 0x01
    4cfa:	80 83       	st	Z, r24
    4cfc:	1f c0       	rjmp	.+62     	; 0x4d3c <SevenSegment_From0To9+0x14e>
    4cfe:	fe 01       	movw	r30, r28
    4d00:	ef 57       	subi	r30, 0x7F	; 127
    4d02:	ff 4f       	sbci	r31, 0xFF	; 255
    4d04:	80 e9       	ldi	r24, 0x90	; 144
    4d06:	91 e0       	ldi	r25, 0x01	; 1
    4d08:	91 83       	std	Z+1, r25	; 0x01
    4d0a:	80 83       	st	Z, r24
    4d0c:	fe 01       	movw	r30, r28
    4d0e:	ef 57       	subi	r30, 0x7F	; 127
    4d10:	ff 4f       	sbci	r31, 0xFF	; 255
    4d12:	80 81       	ld	r24, Z
    4d14:	91 81       	ldd	r25, Z+1	; 0x01
    4d16:	01 97       	sbiw	r24, 0x01	; 1
    4d18:	f1 f7       	brne	.-4      	; 0x4d16 <SevenSegment_From0To9+0x128>
    4d1a:	fe 01       	movw	r30, r28
    4d1c:	ef 57       	subi	r30, 0x7F	; 127
    4d1e:	ff 4f       	sbci	r31, 0xFF	; 255
    4d20:	91 83       	std	Z+1, r25	; 0x01
    4d22:	80 83       	st	Z, r24
		while(__ticks)
		{
			// wait 1/10 ms
			_delay_loop_2(((F_CPU) / 4e3) / 10);
			__ticks --;
    4d24:	de 01       	movw	r26, r28
    4d26:	ad 57       	subi	r26, 0x7D	; 125
    4d28:	bf 4f       	sbci	r27, 0xFF	; 255
    4d2a:	fe 01       	movw	r30, r28
    4d2c:	ed 57       	subi	r30, 0x7D	; 125
    4d2e:	ff 4f       	sbci	r31, 0xFF	; 255
    4d30:	80 81       	ld	r24, Z
    4d32:	91 81       	ldd	r25, Z+1	; 0x01
    4d34:	01 97       	sbiw	r24, 0x01	; 1
    4d36:	11 96       	adiw	r26, 0x01	; 1
    4d38:	9c 93       	st	X, r25
    4d3a:	8e 93       	st	-X, r24
		__ticks = 1;
	else if (__tmp > 65535)
	{
		//	__ticks = requested delay in 1/10 ms
		__ticks = (uint16_t) (__ms * 10.0);
		while(__ticks)
    4d3c:	fe 01       	movw	r30, r28
    4d3e:	ed 57       	subi	r30, 0x7D	; 125
    4d40:	ff 4f       	sbci	r31, 0xFF	; 255
    4d42:	80 81       	ld	r24, Z
    4d44:	91 81       	ldd	r25, Z+1	; 0x01
    4d46:	00 97       	sbiw	r24, 0x00	; 0
    4d48:	d1 f6       	brne	.-76     	; 0x4cfe <SevenSegment_From0To9+0x110>
    4d4a:	27 c0       	rjmp	.+78     	; 0x4d9a <SevenSegment_From0To9+0x1ac>
			__ticks --;
		}
		return;
	}
	else
		__ticks = (uint16_t)__tmp;
    4d4c:	8e 01       	movw	r16, r28
    4d4e:	0d 57       	subi	r16, 0x7D	; 125
    4d50:	1f 4f       	sbci	r17, 0xFF	; 255
    4d52:	fe 01       	movw	r30, r28
    4d54:	eb 57       	subi	r30, 0x7B	; 123
    4d56:	ff 4f       	sbci	r31, 0xFF	; 255
    4d58:	60 81       	ld	r22, Z
    4d5a:	71 81       	ldd	r23, Z+1	; 0x01
    4d5c:	82 81       	ldd	r24, Z+2	; 0x02
    4d5e:	93 81       	ldd	r25, Z+3	; 0x03
    4d60:	0e 94 49 00 	call	0x92	; 0x92 <__fixunssfsi>
    4d64:	dc 01       	movw	r26, r24
    4d66:	cb 01       	movw	r24, r22
    4d68:	f8 01       	movw	r30, r16
    4d6a:	91 83       	std	Z+1, r25	; 0x01
    4d6c:	80 83       	st	Z, r24
    4d6e:	de 01       	movw	r26, r28
    4d70:	a1 58       	subi	r26, 0x81	; 129
    4d72:	bf 4f       	sbci	r27, 0xFF	; 255
    4d74:	fe 01       	movw	r30, r28
    4d76:	ed 57       	subi	r30, 0x7D	; 125
    4d78:	ff 4f       	sbci	r31, 0xFF	; 255
    4d7a:	80 81       	ld	r24, Z
    4d7c:	91 81       	ldd	r25, Z+1	; 0x01
    4d7e:	8d 93       	st	X+, r24
    4d80:	9c 93       	st	X, r25
    4d82:	fe 01       	movw	r30, r28
    4d84:	e1 58       	subi	r30, 0x81	; 129
    4d86:	ff 4f       	sbci	r31, 0xFF	; 255
    4d88:	80 81       	ld	r24, Z
    4d8a:	91 81       	ldd	r25, Z+1	; 0x01
    4d8c:	01 97       	sbiw	r24, 0x01	; 1
    4d8e:	f1 f7       	brne	.-4      	; 0x4d8c <SevenSegment_From0To9+0x19e>
    4d90:	fe 01       	movw	r30, r28
    4d92:	e1 58       	subi	r30, 0x81	; 129
    4d94:	ff 4f       	sbci	r31, 0xFF	; 255
    4d96:	91 83       	std	Z+1, r25	; 0x01
    4d98:	80 83       	st	Z, r24
		_delay_ms(50);
		SevenSegment_Display(Copy_u8PortId, 0, 1, 1, 0, 0, 0, 0); // 1
    4d9a:	fe 01       	movw	r30, r28
    4d9c:	e3 57       	subi	r30, 0x73	; 115
    4d9e:	ff 4f       	sbci	r31, 0xFF	; 255
    4da0:	80 81       	ld	r24, Z
    4da2:	60 e0       	ldi	r22, 0x00	; 0
    4da4:	41 e0       	ldi	r20, 0x01	; 1
    4da6:	21 e0       	ldi	r18, 0x01	; 1
    4da8:	00 e0       	ldi	r16, 0x00	; 0
    4daa:	ee 24       	eor	r14, r14
    4dac:	cc 24       	eor	r12, r12
    4dae:	aa 24       	eor	r10, r10
    4db0:	0e 94 b7 23 	call	0x476e	; 0x476e <SevenSegment_Display>
    4db4:	fe 01       	movw	r30, r28
    4db6:	e5 58       	subi	r30, 0x85	; 133
    4db8:	ff 4f       	sbci	r31, 0xFF	; 255
    4dba:	80 e0       	ldi	r24, 0x00	; 0
    4dbc:	90 e0       	ldi	r25, 0x00	; 0
    4dbe:	a8 e4       	ldi	r26, 0x48	; 72
    4dc0:	b2 e4       	ldi	r27, 0x42	; 66
    4dc2:	80 83       	st	Z, r24
    4dc4:	91 83       	std	Z+1, r25	; 0x01
    4dc6:	a2 83       	std	Z+2, r26	; 0x02
    4dc8:	b3 83       	std	Z+3, r27	; 0x03
 */
void
_delay_ms(double __ms)
{
	uint16_t __ticks;
	double __tmp = ((F_CPU) / 4e3) * __ms;
    4dca:	8e 01       	movw	r16, r28
    4dcc:	09 58       	subi	r16, 0x89	; 137
    4dce:	1f 4f       	sbci	r17, 0xFF	; 255
    4dd0:	fe 01       	movw	r30, r28
    4dd2:	e5 58       	subi	r30, 0x85	; 133
    4dd4:	ff 4f       	sbci	r31, 0xFF	; 255
    4dd6:	60 81       	ld	r22, Z
    4dd8:	71 81       	ldd	r23, Z+1	; 0x01
    4dda:	82 81       	ldd	r24, Z+2	; 0x02
    4ddc:	93 81       	ldd	r25, Z+3	; 0x03
    4dde:	20 e0       	ldi	r18, 0x00	; 0
    4de0:	30 e0       	ldi	r19, 0x00	; 0
    4de2:	4a e7       	ldi	r20, 0x7A	; 122
    4de4:	55 e4       	ldi	r21, 0x45	; 69
    4de6:	0e 94 1f 02 	call	0x43e	; 0x43e <__mulsf3>
    4dea:	dc 01       	movw	r26, r24
    4dec:	cb 01       	movw	r24, r22
    4dee:	f8 01       	movw	r30, r16
    4df0:	80 83       	st	Z, r24
    4df2:	91 83       	std	Z+1, r25	; 0x01
    4df4:	a2 83       	std	Z+2, r26	; 0x02
    4df6:	b3 83       	std	Z+3, r27	; 0x03
	if (__tmp < 1.0)
    4df8:	fe 01       	movw	r30, r28
    4dfa:	e9 58       	subi	r30, 0x89	; 137
    4dfc:	ff 4f       	sbci	r31, 0xFF	; 255
    4dfe:	60 81       	ld	r22, Z
    4e00:	71 81       	ldd	r23, Z+1	; 0x01
    4e02:	82 81       	ldd	r24, Z+2	; 0x02
    4e04:	93 81       	ldd	r25, Z+3	; 0x03
    4e06:	20 e0       	ldi	r18, 0x00	; 0
    4e08:	30 e0       	ldi	r19, 0x00	; 0
    4e0a:	40 e8       	ldi	r20, 0x80	; 128
    4e0c:	5f e3       	ldi	r21, 0x3F	; 63
    4e0e:	0e 94 79 03 	call	0x6f2	; 0x6f2 <__ltsf2>
    4e12:	88 23       	and	r24, r24
    4e14:	44 f4       	brge	.+16     	; 0x4e26 <SevenSegment_From0To9+0x238>
		__ticks = 1;
    4e16:	fe 01       	movw	r30, r28
    4e18:	eb 58       	subi	r30, 0x8B	; 139
    4e1a:	ff 4f       	sbci	r31, 0xFF	; 255
    4e1c:	81 e0       	ldi	r24, 0x01	; 1
    4e1e:	90 e0       	ldi	r25, 0x00	; 0
    4e20:	91 83       	std	Z+1, r25	; 0x01
    4e22:	80 83       	st	Z, r24
    4e24:	64 c0       	rjmp	.+200    	; 0x4eee <SevenSegment_From0To9+0x300>
	else if (__tmp > 65535)
    4e26:	fe 01       	movw	r30, r28
    4e28:	e9 58       	subi	r30, 0x89	; 137
    4e2a:	ff 4f       	sbci	r31, 0xFF	; 255
    4e2c:	60 81       	ld	r22, Z
    4e2e:	71 81       	ldd	r23, Z+1	; 0x01
    4e30:	82 81       	ldd	r24, Z+2	; 0x02
    4e32:	93 81       	ldd	r25, Z+3	; 0x03
    4e34:	20 e0       	ldi	r18, 0x00	; 0
    4e36:	3f ef       	ldi	r19, 0xFF	; 255
    4e38:	4f e7       	ldi	r20, 0x7F	; 127
    4e3a:	57 e4       	ldi	r21, 0x47	; 71
    4e3c:	0e 94 19 03 	call	0x632	; 0x632 <__gtsf2>
    4e40:	18 16       	cp	r1, r24
    4e42:	0c f0       	brlt	.+2      	; 0x4e46 <SevenSegment_From0To9+0x258>
    4e44:	43 c0       	rjmp	.+134    	; 0x4ecc <SevenSegment_From0To9+0x2de>
	{
		//	__ticks = requested delay in 1/10 ms
		__ticks = (uint16_t) (__ms * 10.0);
    4e46:	fe 01       	movw	r30, r28
    4e48:	e5 58       	subi	r30, 0x85	; 133
    4e4a:	ff 4f       	sbci	r31, 0xFF	; 255
    4e4c:	60 81       	ld	r22, Z
    4e4e:	71 81       	ldd	r23, Z+1	; 0x01
    4e50:	82 81       	ldd	r24, Z+2	; 0x02
    4e52:	93 81       	ldd	r25, Z+3	; 0x03
    4e54:	20 e0       	ldi	r18, 0x00	; 0
    4e56:	30 e0       	ldi	r19, 0x00	; 0
    4e58:	40 e2       	ldi	r20, 0x20	; 32
    4e5a:	51 e4       	ldi	r21, 0x41	; 65
    4e5c:	0e 94 1f 02 	call	0x43e	; 0x43e <__mulsf3>
    4e60:	dc 01       	movw	r26, r24
    4e62:	cb 01       	movw	r24, r22
    4e64:	8e 01       	movw	r16, r28
    4e66:	0b 58       	subi	r16, 0x8B	; 139
    4e68:	1f 4f       	sbci	r17, 0xFF	; 255
    4e6a:	bc 01       	movw	r22, r24
    4e6c:	cd 01       	movw	r24, r26
    4e6e:	0e 94 49 00 	call	0x92	; 0x92 <__fixunssfsi>
    4e72:	dc 01       	movw	r26, r24
    4e74:	cb 01       	movw	r24, r22
    4e76:	f8 01       	movw	r30, r16
    4e78:	91 83       	std	Z+1, r25	; 0x01
    4e7a:	80 83       	st	Z, r24
    4e7c:	1f c0       	rjmp	.+62     	; 0x4ebc <SevenSegment_From0To9+0x2ce>
    4e7e:	fe 01       	movw	r30, r28
    4e80:	ed 58       	subi	r30, 0x8D	; 141
    4e82:	ff 4f       	sbci	r31, 0xFF	; 255
    4e84:	80 e9       	ldi	r24, 0x90	; 144
    4e86:	91 e0       	ldi	r25, 0x01	; 1
    4e88:	91 83       	std	Z+1, r25	; 0x01
    4e8a:	80 83       	st	Z, r24
    4e8c:	fe 01       	movw	r30, r28
    4e8e:	ed 58       	subi	r30, 0x8D	; 141
    4e90:	ff 4f       	sbci	r31, 0xFF	; 255
    4e92:	80 81       	ld	r24, Z
    4e94:	91 81       	ldd	r25, Z+1	; 0x01
    4e96:	01 97       	sbiw	r24, 0x01	; 1
    4e98:	f1 f7       	brne	.-4      	; 0x4e96 <SevenSegment_From0To9+0x2a8>
    4e9a:	fe 01       	movw	r30, r28
    4e9c:	ed 58       	subi	r30, 0x8D	; 141
    4e9e:	ff 4f       	sbci	r31, 0xFF	; 255
    4ea0:	91 83       	std	Z+1, r25	; 0x01
    4ea2:	80 83       	st	Z, r24
		while(__ticks)
		{
			// wait 1/10 ms
			_delay_loop_2(((F_CPU) / 4e3) / 10);
			__ticks --;
    4ea4:	de 01       	movw	r26, r28
    4ea6:	ab 58       	subi	r26, 0x8B	; 139
    4ea8:	bf 4f       	sbci	r27, 0xFF	; 255
    4eaa:	fe 01       	movw	r30, r28
    4eac:	eb 58       	subi	r30, 0x8B	; 139
    4eae:	ff 4f       	sbci	r31, 0xFF	; 255
    4eb0:	80 81       	ld	r24, Z
    4eb2:	91 81       	ldd	r25, Z+1	; 0x01
    4eb4:	01 97       	sbiw	r24, 0x01	; 1
    4eb6:	11 96       	adiw	r26, 0x01	; 1
    4eb8:	9c 93       	st	X, r25
    4eba:	8e 93       	st	-X, r24
		__ticks = 1;
	else if (__tmp > 65535)
	{
		//	__ticks = requested delay in 1/10 ms
		__ticks = (uint16_t) (__ms * 10.0);
		while(__ticks)
    4ebc:	fe 01       	movw	r30, r28
    4ebe:	eb 58       	subi	r30, 0x8B	; 139
    4ec0:	ff 4f       	sbci	r31, 0xFF	; 255
    4ec2:	80 81       	ld	r24, Z
    4ec4:	91 81       	ldd	r25, Z+1	; 0x01
    4ec6:	00 97       	sbiw	r24, 0x00	; 0
    4ec8:	d1 f6       	brne	.-76     	; 0x4e7e <SevenSegment_From0To9+0x290>
    4eca:	27 c0       	rjmp	.+78     	; 0x4f1a <SevenSegment_From0To9+0x32c>
			__ticks --;
		}
		return;
	}
	else
		__ticks = (uint16_t)__tmp;
    4ecc:	8e 01       	movw	r16, r28
    4ece:	0b 58       	subi	r16, 0x8B	; 139
    4ed0:	1f 4f       	sbci	r17, 0xFF	; 255
    4ed2:	fe 01       	movw	r30, r28
    4ed4:	e9 58       	subi	r30, 0x89	; 137
    4ed6:	ff 4f       	sbci	r31, 0xFF	; 255
    4ed8:	60 81       	ld	r22, Z
    4eda:	71 81       	ldd	r23, Z+1	; 0x01
    4edc:	82 81       	ldd	r24, Z+2	; 0x02
    4ede:	93 81       	ldd	r25, Z+3	; 0x03
    4ee0:	0e 94 49 00 	call	0x92	; 0x92 <__fixunssfsi>
    4ee4:	dc 01       	movw	r26, r24
    4ee6:	cb 01       	movw	r24, r22
    4ee8:	f8 01       	movw	r30, r16
    4eea:	91 83       	std	Z+1, r25	; 0x01
    4eec:	80 83       	st	Z, r24
    4eee:	de 01       	movw	r26, r28
    4ef0:	af 58       	subi	r26, 0x8F	; 143
    4ef2:	bf 4f       	sbci	r27, 0xFF	; 255
    4ef4:	fe 01       	movw	r30, r28
    4ef6:	eb 58       	subi	r30, 0x8B	; 139
    4ef8:	ff 4f       	sbci	r31, 0xFF	; 255
    4efa:	80 81       	ld	r24, Z
    4efc:	91 81       	ldd	r25, Z+1	; 0x01
    4efe:	8d 93       	st	X+, r24
    4f00:	9c 93       	st	X, r25
    4f02:	fe 01       	movw	r30, r28
    4f04:	ef 58       	subi	r30, 0x8F	; 143
    4f06:	ff 4f       	sbci	r31, 0xFF	; 255
    4f08:	80 81       	ld	r24, Z
    4f0a:	91 81       	ldd	r25, Z+1	; 0x01
    4f0c:	01 97       	sbiw	r24, 0x01	; 1
    4f0e:	f1 f7       	brne	.-4      	; 0x4f0c <SevenSegment_From0To9+0x31e>
    4f10:	fe 01       	movw	r30, r28
    4f12:	ef 58       	subi	r30, 0x8F	; 143
    4f14:	ff 4f       	sbci	r31, 0xFF	; 255
    4f16:	91 83       	std	Z+1, r25	; 0x01
    4f18:	80 83       	st	Z, r24
		_delay_ms(50);
		SevenSegment_Display(Copy_u8PortId, 1, 1, 0, 1, 1, 0, 1); // 2
    4f1a:	fe 01       	movw	r30, r28
    4f1c:	e3 57       	subi	r30, 0x73	; 115
    4f1e:	ff 4f       	sbci	r31, 0xFF	; 255
    4f20:	80 81       	ld	r24, Z
    4f22:	61 e0       	ldi	r22, 0x01	; 1
    4f24:	41 e0       	ldi	r20, 0x01	; 1
    4f26:	20 e0       	ldi	r18, 0x00	; 0
    4f28:	01 e0       	ldi	r16, 0x01	; 1
    4f2a:	ee 24       	eor	r14, r14
    4f2c:	e3 94       	inc	r14
    4f2e:	cc 24       	eor	r12, r12
    4f30:	aa 24       	eor	r10, r10
    4f32:	a3 94       	inc	r10
    4f34:	0e 94 b7 23 	call	0x476e	; 0x476e <SevenSegment_Display>
    4f38:	fe 01       	movw	r30, r28
    4f3a:	e3 59       	subi	r30, 0x93	; 147
    4f3c:	ff 4f       	sbci	r31, 0xFF	; 255
    4f3e:	80 e0       	ldi	r24, 0x00	; 0
    4f40:	90 e0       	ldi	r25, 0x00	; 0
    4f42:	a8 e4       	ldi	r26, 0x48	; 72
    4f44:	b2 e4       	ldi	r27, 0x42	; 66
    4f46:	80 83       	st	Z, r24
    4f48:	91 83       	std	Z+1, r25	; 0x01
    4f4a:	a2 83       	std	Z+2, r26	; 0x02
    4f4c:	b3 83       	std	Z+3, r27	; 0x03
 */
void
_delay_ms(double __ms)
{
	uint16_t __ticks;
	double __tmp = ((F_CPU) / 4e3) * __ms;
    4f4e:	8e 01       	movw	r16, r28
    4f50:	07 59       	subi	r16, 0x97	; 151
    4f52:	1f 4f       	sbci	r17, 0xFF	; 255
    4f54:	fe 01       	movw	r30, r28
    4f56:	e3 59       	subi	r30, 0x93	; 147
    4f58:	ff 4f       	sbci	r31, 0xFF	; 255
    4f5a:	60 81       	ld	r22, Z
    4f5c:	71 81       	ldd	r23, Z+1	; 0x01
    4f5e:	82 81       	ldd	r24, Z+2	; 0x02
    4f60:	93 81       	ldd	r25, Z+3	; 0x03
    4f62:	20 e0       	ldi	r18, 0x00	; 0
    4f64:	30 e0       	ldi	r19, 0x00	; 0
    4f66:	4a e7       	ldi	r20, 0x7A	; 122
    4f68:	55 e4       	ldi	r21, 0x45	; 69
    4f6a:	0e 94 1f 02 	call	0x43e	; 0x43e <__mulsf3>
    4f6e:	dc 01       	movw	r26, r24
    4f70:	cb 01       	movw	r24, r22
    4f72:	f8 01       	movw	r30, r16
    4f74:	80 83       	st	Z, r24
    4f76:	91 83       	std	Z+1, r25	; 0x01
    4f78:	a2 83       	std	Z+2, r26	; 0x02
    4f7a:	b3 83       	std	Z+3, r27	; 0x03
	if (__tmp < 1.0)
    4f7c:	fe 01       	movw	r30, r28
    4f7e:	e7 59       	subi	r30, 0x97	; 151
    4f80:	ff 4f       	sbci	r31, 0xFF	; 255
    4f82:	60 81       	ld	r22, Z
    4f84:	71 81       	ldd	r23, Z+1	; 0x01
    4f86:	82 81       	ldd	r24, Z+2	; 0x02
    4f88:	93 81       	ldd	r25, Z+3	; 0x03
    4f8a:	20 e0       	ldi	r18, 0x00	; 0
    4f8c:	30 e0       	ldi	r19, 0x00	; 0
    4f8e:	40 e8       	ldi	r20, 0x80	; 128
    4f90:	5f e3       	ldi	r21, 0x3F	; 63
    4f92:	0e 94 79 03 	call	0x6f2	; 0x6f2 <__ltsf2>
    4f96:	88 23       	and	r24, r24
    4f98:	44 f4       	brge	.+16     	; 0x4faa <SevenSegment_From0To9+0x3bc>
		__ticks = 1;
    4f9a:	fe 01       	movw	r30, r28
    4f9c:	e9 59       	subi	r30, 0x99	; 153
    4f9e:	ff 4f       	sbci	r31, 0xFF	; 255
    4fa0:	81 e0       	ldi	r24, 0x01	; 1
    4fa2:	90 e0       	ldi	r25, 0x00	; 0
    4fa4:	91 83       	std	Z+1, r25	; 0x01
    4fa6:	80 83       	st	Z, r24
    4fa8:	64 c0       	rjmp	.+200    	; 0x5072 <SevenSegment_From0To9+0x484>
	else if (__tmp > 65535)
    4faa:	fe 01       	movw	r30, r28
    4fac:	e7 59       	subi	r30, 0x97	; 151
    4fae:	ff 4f       	sbci	r31, 0xFF	; 255
    4fb0:	60 81       	ld	r22, Z
    4fb2:	71 81       	ldd	r23, Z+1	; 0x01
    4fb4:	82 81       	ldd	r24, Z+2	; 0x02
    4fb6:	93 81       	ldd	r25, Z+3	; 0x03
    4fb8:	20 e0       	ldi	r18, 0x00	; 0
    4fba:	3f ef       	ldi	r19, 0xFF	; 255
    4fbc:	4f e7       	ldi	r20, 0x7F	; 127
    4fbe:	57 e4       	ldi	r21, 0x47	; 71
    4fc0:	0e 94 19 03 	call	0x632	; 0x632 <__gtsf2>
    4fc4:	18 16       	cp	r1, r24
    4fc6:	0c f0       	brlt	.+2      	; 0x4fca <SevenSegment_From0To9+0x3dc>
    4fc8:	43 c0       	rjmp	.+134    	; 0x5050 <SevenSegment_From0To9+0x462>
	{
		//	__ticks = requested delay in 1/10 ms
		__ticks = (uint16_t) (__ms * 10.0);
    4fca:	fe 01       	movw	r30, r28
    4fcc:	e3 59       	subi	r30, 0x93	; 147
    4fce:	ff 4f       	sbci	r31, 0xFF	; 255
    4fd0:	60 81       	ld	r22, Z
    4fd2:	71 81       	ldd	r23, Z+1	; 0x01
    4fd4:	82 81       	ldd	r24, Z+2	; 0x02
    4fd6:	93 81       	ldd	r25, Z+3	; 0x03
    4fd8:	20 e0       	ldi	r18, 0x00	; 0
    4fda:	30 e0       	ldi	r19, 0x00	; 0
    4fdc:	40 e2       	ldi	r20, 0x20	; 32
    4fde:	51 e4       	ldi	r21, 0x41	; 65
    4fe0:	0e 94 1f 02 	call	0x43e	; 0x43e <__mulsf3>
    4fe4:	dc 01       	movw	r26, r24
    4fe6:	cb 01       	movw	r24, r22
    4fe8:	8e 01       	movw	r16, r28
    4fea:	09 59       	subi	r16, 0x99	; 153
    4fec:	1f 4f       	sbci	r17, 0xFF	; 255
    4fee:	bc 01       	movw	r22, r24
    4ff0:	cd 01       	movw	r24, r26
    4ff2:	0e 94 49 00 	call	0x92	; 0x92 <__fixunssfsi>
    4ff6:	dc 01       	movw	r26, r24
    4ff8:	cb 01       	movw	r24, r22
    4ffa:	f8 01       	movw	r30, r16
    4ffc:	91 83       	std	Z+1, r25	; 0x01
    4ffe:	80 83       	st	Z, r24
    5000:	1f c0       	rjmp	.+62     	; 0x5040 <SevenSegment_From0To9+0x452>
    5002:	fe 01       	movw	r30, r28
    5004:	eb 59       	subi	r30, 0x9B	; 155
    5006:	ff 4f       	sbci	r31, 0xFF	; 255
    5008:	80 e9       	ldi	r24, 0x90	; 144
    500a:	91 e0       	ldi	r25, 0x01	; 1
    500c:	91 83       	std	Z+1, r25	; 0x01
    500e:	80 83       	st	Z, r24
    5010:	fe 01       	movw	r30, r28
    5012:	eb 59       	subi	r30, 0x9B	; 155
    5014:	ff 4f       	sbci	r31, 0xFF	; 255
    5016:	80 81       	ld	r24, Z
    5018:	91 81       	ldd	r25, Z+1	; 0x01
    501a:	01 97       	sbiw	r24, 0x01	; 1
    501c:	f1 f7       	brne	.-4      	; 0x501a <SevenSegment_From0To9+0x42c>
    501e:	fe 01       	movw	r30, r28
    5020:	eb 59       	subi	r30, 0x9B	; 155
    5022:	ff 4f       	sbci	r31, 0xFF	; 255
    5024:	91 83       	std	Z+1, r25	; 0x01
    5026:	80 83       	st	Z, r24
		while(__ticks)
		{
			// wait 1/10 ms
			_delay_loop_2(((F_CPU) / 4e3) / 10);
			__ticks --;
    5028:	de 01       	movw	r26, r28
    502a:	a9 59       	subi	r26, 0x99	; 153
    502c:	bf 4f       	sbci	r27, 0xFF	; 255
    502e:	fe 01       	movw	r30, r28
    5030:	e9 59       	subi	r30, 0x99	; 153
    5032:	ff 4f       	sbci	r31, 0xFF	; 255
    5034:	80 81       	ld	r24, Z
    5036:	91 81       	ldd	r25, Z+1	; 0x01
    5038:	01 97       	sbiw	r24, 0x01	; 1
    503a:	11 96       	adiw	r26, 0x01	; 1
    503c:	9c 93       	st	X, r25
    503e:	8e 93       	st	-X, r24
		__ticks = 1;
	else if (__tmp > 65535)
	{
		//	__ticks = requested delay in 1/10 ms
		__ticks = (uint16_t) (__ms * 10.0);
		while(__ticks)
    5040:	fe 01       	movw	r30, r28
    5042:	e9 59       	subi	r30, 0x99	; 153
    5044:	ff 4f       	sbci	r31, 0xFF	; 255
    5046:	80 81       	ld	r24, Z
    5048:	91 81       	ldd	r25, Z+1	; 0x01
    504a:	00 97       	sbiw	r24, 0x00	; 0
    504c:	d1 f6       	brne	.-76     	; 0x5002 <SevenSegment_From0To9+0x414>
    504e:	27 c0       	rjmp	.+78     	; 0x509e <SevenSegment_From0To9+0x4b0>
			__ticks --;
		}
		return;
	}
	else
		__ticks = (uint16_t)__tmp;
    5050:	8e 01       	movw	r16, r28
    5052:	09 59       	subi	r16, 0x99	; 153
    5054:	1f 4f       	sbci	r17, 0xFF	; 255
    5056:	fe 01       	movw	r30, r28
    5058:	e7 59       	subi	r30, 0x97	; 151
    505a:	ff 4f       	sbci	r31, 0xFF	; 255
    505c:	60 81       	ld	r22, Z
    505e:	71 81       	ldd	r23, Z+1	; 0x01
    5060:	82 81       	ldd	r24, Z+2	; 0x02
    5062:	93 81       	ldd	r25, Z+3	; 0x03
    5064:	0e 94 49 00 	call	0x92	; 0x92 <__fixunssfsi>
    5068:	dc 01       	movw	r26, r24
    506a:	cb 01       	movw	r24, r22
    506c:	f8 01       	movw	r30, r16
    506e:	91 83       	std	Z+1, r25	; 0x01
    5070:	80 83       	st	Z, r24
    5072:	de 01       	movw	r26, r28
    5074:	ad 59       	subi	r26, 0x9D	; 157
    5076:	bf 4f       	sbci	r27, 0xFF	; 255
    5078:	fe 01       	movw	r30, r28
    507a:	e9 59       	subi	r30, 0x99	; 153
    507c:	ff 4f       	sbci	r31, 0xFF	; 255
    507e:	80 81       	ld	r24, Z
    5080:	91 81       	ldd	r25, Z+1	; 0x01
    5082:	8d 93       	st	X+, r24
    5084:	9c 93       	st	X, r25
    5086:	fe 01       	movw	r30, r28
    5088:	ed 59       	subi	r30, 0x9D	; 157
    508a:	ff 4f       	sbci	r31, 0xFF	; 255
    508c:	80 81       	ld	r24, Z
    508e:	91 81       	ldd	r25, Z+1	; 0x01
    5090:	01 97       	sbiw	r24, 0x01	; 1
    5092:	f1 f7       	brne	.-4      	; 0x5090 <SevenSegment_From0To9+0x4a2>
    5094:	fe 01       	movw	r30, r28
    5096:	ed 59       	subi	r30, 0x9D	; 157
    5098:	ff 4f       	sbci	r31, 0xFF	; 255
    509a:	91 83       	std	Z+1, r25	; 0x01
    509c:	80 83       	st	Z, r24
		_delay_ms(50);
		SevenSegment_Display(Copy_u8PortId, 1, 1, 1, 1, 0, 0, 1); // 3
    509e:	fe 01       	movw	r30, r28
    50a0:	e3 57       	subi	r30, 0x73	; 115
    50a2:	ff 4f       	sbci	r31, 0xFF	; 255
    50a4:	80 81       	ld	r24, Z
    50a6:	61 e0       	ldi	r22, 0x01	; 1
    50a8:	41 e0       	ldi	r20, 0x01	; 1
    50aa:	21 e0       	ldi	r18, 0x01	; 1
    50ac:	01 e0       	ldi	r16, 0x01	; 1
    50ae:	ee 24       	eor	r14, r14
    50b0:	cc 24       	eor	r12, r12
    50b2:	aa 24       	eor	r10, r10
    50b4:	a3 94       	inc	r10
    50b6:	0e 94 b7 23 	call	0x476e	; 0x476e <SevenSegment_Display>
    50ba:	fe 01       	movw	r30, r28
    50bc:	e1 5a       	subi	r30, 0xA1	; 161
    50be:	ff 4f       	sbci	r31, 0xFF	; 255
    50c0:	80 e0       	ldi	r24, 0x00	; 0
    50c2:	90 e0       	ldi	r25, 0x00	; 0
    50c4:	a8 e4       	ldi	r26, 0x48	; 72
    50c6:	b2 e4       	ldi	r27, 0x42	; 66
    50c8:	80 83       	st	Z, r24
    50ca:	91 83       	std	Z+1, r25	; 0x01
    50cc:	a2 83       	std	Z+2, r26	; 0x02
    50ce:	b3 83       	std	Z+3, r27	; 0x03
 */
void
_delay_ms(double __ms)
{
	uint16_t __ticks;
	double __tmp = ((F_CPU) / 4e3) * __ms;
    50d0:	8e 01       	movw	r16, r28
    50d2:	05 5a       	subi	r16, 0xA5	; 165
    50d4:	1f 4f       	sbci	r17, 0xFF	; 255
    50d6:	fe 01       	movw	r30, r28
    50d8:	e1 5a       	subi	r30, 0xA1	; 161
    50da:	ff 4f       	sbci	r31, 0xFF	; 255
    50dc:	60 81       	ld	r22, Z
    50de:	71 81       	ldd	r23, Z+1	; 0x01
    50e0:	82 81       	ldd	r24, Z+2	; 0x02
    50e2:	93 81       	ldd	r25, Z+3	; 0x03
    50e4:	20 e0       	ldi	r18, 0x00	; 0
    50e6:	30 e0       	ldi	r19, 0x00	; 0
    50e8:	4a e7       	ldi	r20, 0x7A	; 122
    50ea:	55 e4       	ldi	r21, 0x45	; 69
    50ec:	0e 94 1f 02 	call	0x43e	; 0x43e <__mulsf3>
    50f0:	dc 01       	movw	r26, r24
    50f2:	cb 01       	movw	r24, r22
    50f4:	f8 01       	movw	r30, r16
    50f6:	80 83       	st	Z, r24
    50f8:	91 83       	std	Z+1, r25	; 0x01
    50fa:	a2 83       	std	Z+2, r26	; 0x02
    50fc:	b3 83       	std	Z+3, r27	; 0x03
	if (__tmp < 1.0)
    50fe:	fe 01       	movw	r30, r28
    5100:	e5 5a       	subi	r30, 0xA5	; 165
    5102:	ff 4f       	sbci	r31, 0xFF	; 255
    5104:	60 81       	ld	r22, Z
    5106:	71 81       	ldd	r23, Z+1	; 0x01
    5108:	82 81       	ldd	r24, Z+2	; 0x02
    510a:	93 81       	ldd	r25, Z+3	; 0x03
    510c:	20 e0       	ldi	r18, 0x00	; 0
    510e:	30 e0       	ldi	r19, 0x00	; 0
    5110:	40 e8       	ldi	r20, 0x80	; 128
    5112:	5f e3       	ldi	r21, 0x3F	; 63
    5114:	0e 94 79 03 	call	0x6f2	; 0x6f2 <__ltsf2>
    5118:	88 23       	and	r24, r24
    511a:	44 f4       	brge	.+16     	; 0x512c <SevenSegment_From0To9+0x53e>
		__ticks = 1;
    511c:	fe 01       	movw	r30, r28
    511e:	e7 5a       	subi	r30, 0xA7	; 167
    5120:	ff 4f       	sbci	r31, 0xFF	; 255
    5122:	81 e0       	ldi	r24, 0x01	; 1
    5124:	90 e0       	ldi	r25, 0x00	; 0
    5126:	91 83       	std	Z+1, r25	; 0x01
    5128:	80 83       	st	Z, r24
    512a:	64 c0       	rjmp	.+200    	; 0x51f4 <SevenSegment_From0To9+0x606>
	else if (__tmp > 65535)
    512c:	fe 01       	movw	r30, r28
    512e:	e5 5a       	subi	r30, 0xA5	; 165
    5130:	ff 4f       	sbci	r31, 0xFF	; 255
    5132:	60 81       	ld	r22, Z
    5134:	71 81       	ldd	r23, Z+1	; 0x01
    5136:	82 81       	ldd	r24, Z+2	; 0x02
    5138:	93 81       	ldd	r25, Z+3	; 0x03
    513a:	20 e0       	ldi	r18, 0x00	; 0
    513c:	3f ef       	ldi	r19, 0xFF	; 255
    513e:	4f e7       	ldi	r20, 0x7F	; 127
    5140:	57 e4       	ldi	r21, 0x47	; 71
    5142:	0e 94 19 03 	call	0x632	; 0x632 <__gtsf2>
    5146:	18 16       	cp	r1, r24
    5148:	0c f0       	brlt	.+2      	; 0x514c <SevenSegment_From0To9+0x55e>
    514a:	43 c0       	rjmp	.+134    	; 0x51d2 <SevenSegment_From0To9+0x5e4>
	{
		//	__ticks = requested delay in 1/10 ms
		__ticks = (uint16_t) (__ms * 10.0);
    514c:	fe 01       	movw	r30, r28
    514e:	e1 5a       	subi	r30, 0xA1	; 161
    5150:	ff 4f       	sbci	r31, 0xFF	; 255
    5152:	60 81       	ld	r22, Z
    5154:	71 81       	ldd	r23, Z+1	; 0x01
    5156:	82 81       	ldd	r24, Z+2	; 0x02
    5158:	93 81       	ldd	r25, Z+3	; 0x03
    515a:	20 e0       	ldi	r18, 0x00	; 0
    515c:	30 e0       	ldi	r19, 0x00	; 0
    515e:	40 e2       	ldi	r20, 0x20	; 32
    5160:	51 e4       	ldi	r21, 0x41	; 65
    5162:	0e 94 1f 02 	call	0x43e	; 0x43e <__mulsf3>
    5166:	dc 01       	movw	r26, r24
    5168:	cb 01       	movw	r24, r22
    516a:	8e 01       	movw	r16, r28
    516c:	07 5a       	subi	r16, 0xA7	; 167
    516e:	1f 4f       	sbci	r17, 0xFF	; 255
    5170:	bc 01       	movw	r22, r24
    5172:	cd 01       	movw	r24, r26
    5174:	0e 94 49 00 	call	0x92	; 0x92 <__fixunssfsi>
    5178:	dc 01       	movw	r26, r24
    517a:	cb 01       	movw	r24, r22
    517c:	f8 01       	movw	r30, r16
    517e:	91 83       	std	Z+1, r25	; 0x01
    5180:	80 83       	st	Z, r24
    5182:	1f c0       	rjmp	.+62     	; 0x51c2 <SevenSegment_From0To9+0x5d4>
    5184:	fe 01       	movw	r30, r28
    5186:	e9 5a       	subi	r30, 0xA9	; 169
    5188:	ff 4f       	sbci	r31, 0xFF	; 255
    518a:	80 e9       	ldi	r24, 0x90	; 144
    518c:	91 e0       	ldi	r25, 0x01	; 1
    518e:	91 83       	std	Z+1, r25	; 0x01
    5190:	80 83       	st	Z, r24
    5192:	fe 01       	movw	r30, r28
    5194:	e9 5a       	subi	r30, 0xA9	; 169
    5196:	ff 4f       	sbci	r31, 0xFF	; 255
    5198:	80 81       	ld	r24, Z
    519a:	91 81       	ldd	r25, Z+1	; 0x01
    519c:	01 97       	sbiw	r24, 0x01	; 1
    519e:	f1 f7       	brne	.-4      	; 0x519c <SevenSegment_From0To9+0x5ae>
    51a0:	fe 01       	movw	r30, r28
    51a2:	e9 5a       	subi	r30, 0xA9	; 169
    51a4:	ff 4f       	sbci	r31, 0xFF	; 255
    51a6:	91 83       	std	Z+1, r25	; 0x01
    51a8:	80 83       	st	Z, r24
		while(__ticks)
		{
			// wait 1/10 ms
			_delay_loop_2(((F_CPU) / 4e3) / 10);
			__ticks --;
    51aa:	de 01       	movw	r26, r28
    51ac:	a7 5a       	subi	r26, 0xA7	; 167
    51ae:	bf 4f       	sbci	r27, 0xFF	; 255
    51b0:	fe 01       	movw	r30, r28
    51b2:	e7 5a       	subi	r30, 0xA7	; 167
    51b4:	ff 4f       	sbci	r31, 0xFF	; 255
    51b6:	80 81       	ld	r24, Z
    51b8:	91 81       	ldd	r25, Z+1	; 0x01
    51ba:	01 97       	sbiw	r24, 0x01	; 1
    51bc:	11 96       	adiw	r26, 0x01	; 1
    51be:	9c 93       	st	X, r25
    51c0:	8e 93       	st	-X, r24
		__ticks = 1;
	else if (__tmp > 65535)
	{
		//	__ticks = requested delay in 1/10 ms
		__ticks = (uint16_t) (__ms * 10.0);
		while(__ticks)
    51c2:	fe 01       	movw	r30, r28
    51c4:	e7 5a       	subi	r30, 0xA7	; 167
    51c6:	ff 4f       	sbci	r31, 0xFF	; 255
    51c8:	80 81       	ld	r24, Z
    51ca:	91 81       	ldd	r25, Z+1	; 0x01
    51cc:	00 97       	sbiw	r24, 0x00	; 0
    51ce:	d1 f6       	brne	.-76     	; 0x5184 <SevenSegment_From0To9+0x596>
    51d0:	27 c0       	rjmp	.+78     	; 0x5220 <SevenSegment_From0To9+0x632>
			__ticks --;
		}
		return;
	}
	else
		__ticks = (uint16_t)__tmp;
    51d2:	8e 01       	movw	r16, r28
    51d4:	07 5a       	subi	r16, 0xA7	; 167
    51d6:	1f 4f       	sbci	r17, 0xFF	; 255
    51d8:	fe 01       	movw	r30, r28
    51da:	e5 5a       	subi	r30, 0xA5	; 165
    51dc:	ff 4f       	sbci	r31, 0xFF	; 255
    51de:	60 81       	ld	r22, Z
    51e0:	71 81       	ldd	r23, Z+1	; 0x01
    51e2:	82 81       	ldd	r24, Z+2	; 0x02
    51e4:	93 81       	ldd	r25, Z+3	; 0x03
    51e6:	0e 94 49 00 	call	0x92	; 0x92 <__fixunssfsi>
    51ea:	dc 01       	movw	r26, r24
    51ec:	cb 01       	movw	r24, r22
    51ee:	f8 01       	movw	r30, r16
    51f0:	91 83       	std	Z+1, r25	; 0x01
    51f2:	80 83       	st	Z, r24
    51f4:	de 01       	movw	r26, r28
    51f6:	ab 5a       	subi	r26, 0xAB	; 171
    51f8:	bf 4f       	sbci	r27, 0xFF	; 255
    51fa:	fe 01       	movw	r30, r28
    51fc:	e7 5a       	subi	r30, 0xA7	; 167
    51fe:	ff 4f       	sbci	r31, 0xFF	; 255
    5200:	80 81       	ld	r24, Z
    5202:	91 81       	ldd	r25, Z+1	; 0x01
    5204:	8d 93       	st	X+, r24
    5206:	9c 93       	st	X, r25
    5208:	fe 01       	movw	r30, r28
    520a:	eb 5a       	subi	r30, 0xAB	; 171
    520c:	ff 4f       	sbci	r31, 0xFF	; 255
    520e:	80 81       	ld	r24, Z
    5210:	91 81       	ldd	r25, Z+1	; 0x01
    5212:	01 97       	sbiw	r24, 0x01	; 1
    5214:	f1 f7       	brne	.-4      	; 0x5212 <SevenSegment_From0To9+0x624>
    5216:	fe 01       	movw	r30, r28
    5218:	eb 5a       	subi	r30, 0xAB	; 171
    521a:	ff 4f       	sbci	r31, 0xFF	; 255
    521c:	91 83       	std	Z+1, r25	; 0x01
    521e:	80 83       	st	Z, r24
		_delay_ms(50);
		SevenSegment_Display(Copy_u8PortId, 0, 1, 1, 0, 0, 1, 1); // 4
    5220:	fe 01       	movw	r30, r28
    5222:	e3 57       	subi	r30, 0x73	; 115
    5224:	ff 4f       	sbci	r31, 0xFF	; 255
    5226:	80 81       	ld	r24, Z
    5228:	60 e0       	ldi	r22, 0x00	; 0
    522a:	41 e0       	ldi	r20, 0x01	; 1
    522c:	21 e0       	ldi	r18, 0x01	; 1
    522e:	00 e0       	ldi	r16, 0x00	; 0
    5230:	ee 24       	eor	r14, r14
    5232:	cc 24       	eor	r12, r12
    5234:	c3 94       	inc	r12
    5236:	aa 24       	eor	r10, r10
    5238:	a3 94       	inc	r10
    523a:	0e 94 b7 23 	call	0x476e	; 0x476e <SevenSegment_Display>
    523e:	fe 01       	movw	r30, r28
    5240:	ef 5a       	subi	r30, 0xAF	; 175
    5242:	ff 4f       	sbci	r31, 0xFF	; 255
    5244:	80 e0       	ldi	r24, 0x00	; 0
    5246:	90 e0       	ldi	r25, 0x00	; 0
    5248:	a8 e4       	ldi	r26, 0x48	; 72
    524a:	b2 e4       	ldi	r27, 0x42	; 66
    524c:	80 83       	st	Z, r24
    524e:	91 83       	std	Z+1, r25	; 0x01
    5250:	a2 83       	std	Z+2, r26	; 0x02
    5252:	b3 83       	std	Z+3, r27	; 0x03
 */
void
_delay_ms(double __ms)
{
	uint16_t __ticks;
	double __tmp = ((F_CPU) / 4e3) * __ms;
    5254:	8e 01       	movw	r16, r28
    5256:	03 5b       	subi	r16, 0xB3	; 179
    5258:	1f 4f       	sbci	r17, 0xFF	; 255
    525a:	fe 01       	movw	r30, r28
    525c:	ef 5a       	subi	r30, 0xAF	; 175
    525e:	ff 4f       	sbci	r31, 0xFF	; 255
    5260:	60 81       	ld	r22, Z
    5262:	71 81       	ldd	r23, Z+1	; 0x01
    5264:	82 81       	ldd	r24, Z+2	; 0x02
    5266:	93 81       	ldd	r25, Z+3	; 0x03
    5268:	20 e0       	ldi	r18, 0x00	; 0
    526a:	30 e0       	ldi	r19, 0x00	; 0
    526c:	4a e7       	ldi	r20, 0x7A	; 122
    526e:	55 e4       	ldi	r21, 0x45	; 69
    5270:	0e 94 1f 02 	call	0x43e	; 0x43e <__mulsf3>
    5274:	dc 01       	movw	r26, r24
    5276:	cb 01       	movw	r24, r22
    5278:	f8 01       	movw	r30, r16
    527a:	80 83       	st	Z, r24
    527c:	91 83       	std	Z+1, r25	; 0x01
    527e:	a2 83       	std	Z+2, r26	; 0x02
    5280:	b3 83       	std	Z+3, r27	; 0x03
	if (__tmp < 1.0)
    5282:	fe 01       	movw	r30, r28
    5284:	e3 5b       	subi	r30, 0xB3	; 179
    5286:	ff 4f       	sbci	r31, 0xFF	; 255
    5288:	60 81       	ld	r22, Z
    528a:	71 81       	ldd	r23, Z+1	; 0x01
    528c:	82 81       	ldd	r24, Z+2	; 0x02
    528e:	93 81       	ldd	r25, Z+3	; 0x03
    5290:	20 e0       	ldi	r18, 0x00	; 0
    5292:	30 e0       	ldi	r19, 0x00	; 0
    5294:	40 e8       	ldi	r20, 0x80	; 128
    5296:	5f e3       	ldi	r21, 0x3F	; 63
    5298:	0e 94 79 03 	call	0x6f2	; 0x6f2 <__ltsf2>
    529c:	88 23       	and	r24, r24
    529e:	44 f4       	brge	.+16     	; 0x52b0 <SevenSegment_From0To9+0x6c2>
		__ticks = 1;
    52a0:	fe 01       	movw	r30, r28
    52a2:	e5 5b       	subi	r30, 0xB5	; 181
    52a4:	ff 4f       	sbci	r31, 0xFF	; 255
    52a6:	81 e0       	ldi	r24, 0x01	; 1
    52a8:	90 e0       	ldi	r25, 0x00	; 0
    52aa:	91 83       	std	Z+1, r25	; 0x01
    52ac:	80 83       	st	Z, r24
    52ae:	64 c0       	rjmp	.+200    	; 0x5378 <SevenSegment_From0To9+0x78a>
	else if (__tmp > 65535)
    52b0:	fe 01       	movw	r30, r28
    52b2:	e3 5b       	subi	r30, 0xB3	; 179
    52b4:	ff 4f       	sbci	r31, 0xFF	; 255
    52b6:	60 81       	ld	r22, Z
    52b8:	71 81       	ldd	r23, Z+1	; 0x01
    52ba:	82 81       	ldd	r24, Z+2	; 0x02
    52bc:	93 81       	ldd	r25, Z+3	; 0x03
    52be:	20 e0       	ldi	r18, 0x00	; 0
    52c0:	3f ef       	ldi	r19, 0xFF	; 255
    52c2:	4f e7       	ldi	r20, 0x7F	; 127
    52c4:	57 e4       	ldi	r21, 0x47	; 71
    52c6:	0e 94 19 03 	call	0x632	; 0x632 <__gtsf2>
    52ca:	18 16       	cp	r1, r24
    52cc:	0c f0       	brlt	.+2      	; 0x52d0 <SevenSegment_From0To9+0x6e2>
    52ce:	43 c0       	rjmp	.+134    	; 0x5356 <SevenSegment_From0To9+0x768>
	{
		//	__ticks = requested delay in 1/10 ms
		__ticks = (uint16_t) (__ms * 10.0);
    52d0:	fe 01       	movw	r30, r28
    52d2:	ef 5a       	subi	r30, 0xAF	; 175
    52d4:	ff 4f       	sbci	r31, 0xFF	; 255
    52d6:	60 81       	ld	r22, Z
    52d8:	71 81       	ldd	r23, Z+1	; 0x01
    52da:	82 81       	ldd	r24, Z+2	; 0x02
    52dc:	93 81       	ldd	r25, Z+3	; 0x03
    52de:	20 e0       	ldi	r18, 0x00	; 0
    52e0:	30 e0       	ldi	r19, 0x00	; 0
    52e2:	40 e2       	ldi	r20, 0x20	; 32
    52e4:	51 e4       	ldi	r21, 0x41	; 65
    52e6:	0e 94 1f 02 	call	0x43e	; 0x43e <__mulsf3>
    52ea:	dc 01       	movw	r26, r24
    52ec:	cb 01       	movw	r24, r22
    52ee:	8e 01       	movw	r16, r28
    52f0:	05 5b       	subi	r16, 0xB5	; 181
    52f2:	1f 4f       	sbci	r17, 0xFF	; 255
    52f4:	bc 01       	movw	r22, r24
    52f6:	cd 01       	movw	r24, r26
    52f8:	0e 94 49 00 	call	0x92	; 0x92 <__fixunssfsi>
    52fc:	dc 01       	movw	r26, r24
    52fe:	cb 01       	movw	r24, r22
    5300:	f8 01       	movw	r30, r16
    5302:	91 83       	std	Z+1, r25	; 0x01
    5304:	80 83       	st	Z, r24
    5306:	1f c0       	rjmp	.+62     	; 0x5346 <SevenSegment_From0To9+0x758>
    5308:	fe 01       	movw	r30, r28
    530a:	e7 5b       	subi	r30, 0xB7	; 183
    530c:	ff 4f       	sbci	r31, 0xFF	; 255
    530e:	80 e9       	ldi	r24, 0x90	; 144
    5310:	91 e0       	ldi	r25, 0x01	; 1
    5312:	91 83       	std	Z+1, r25	; 0x01
    5314:	80 83       	st	Z, r24
    5316:	fe 01       	movw	r30, r28
    5318:	e7 5b       	subi	r30, 0xB7	; 183
    531a:	ff 4f       	sbci	r31, 0xFF	; 255
    531c:	80 81       	ld	r24, Z
    531e:	91 81       	ldd	r25, Z+1	; 0x01
    5320:	01 97       	sbiw	r24, 0x01	; 1
    5322:	f1 f7       	brne	.-4      	; 0x5320 <SevenSegment_From0To9+0x732>
    5324:	fe 01       	movw	r30, r28
    5326:	e7 5b       	subi	r30, 0xB7	; 183
    5328:	ff 4f       	sbci	r31, 0xFF	; 255
    532a:	91 83       	std	Z+1, r25	; 0x01
    532c:	80 83       	st	Z, r24
		while(__ticks)
		{
			// wait 1/10 ms
			_delay_loop_2(((F_CPU) / 4e3) / 10);
			__ticks --;
    532e:	de 01       	movw	r26, r28
    5330:	a5 5b       	subi	r26, 0xB5	; 181
    5332:	bf 4f       	sbci	r27, 0xFF	; 255
    5334:	fe 01       	movw	r30, r28
    5336:	e5 5b       	subi	r30, 0xB5	; 181
    5338:	ff 4f       	sbci	r31, 0xFF	; 255
    533a:	80 81       	ld	r24, Z
    533c:	91 81       	ldd	r25, Z+1	; 0x01
    533e:	01 97       	sbiw	r24, 0x01	; 1
    5340:	11 96       	adiw	r26, 0x01	; 1
    5342:	9c 93       	st	X, r25
    5344:	8e 93       	st	-X, r24
		__ticks = 1;
	else if (__tmp > 65535)
	{
		//	__ticks = requested delay in 1/10 ms
		__ticks = (uint16_t) (__ms * 10.0);
		while(__ticks)
    5346:	fe 01       	movw	r30, r28
    5348:	e5 5b       	subi	r30, 0xB5	; 181
    534a:	ff 4f       	sbci	r31, 0xFF	; 255
    534c:	80 81       	ld	r24, Z
    534e:	91 81       	ldd	r25, Z+1	; 0x01
    5350:	00 97       	sbiw	r24, 0x00	; 0
    5352:	d1 f6       	brne	.-76     	; 0x5308 <SevenSegment_From0To9+0x71a>
    5354:	27 c0       	rjmp	.+78     	; 0x53a4 <SevenSegment_From0To9+0x7b6>
			__ticks --;
		}
		return;
	}
	else
		__ticks = (uint16_t)__tmp;
    5356:	8e 01       	movw	r16, r28
    5358:	05 5b       	subi	r16, 0xB5	; 181
    535a:	1f 4f       	sbci	r17, 0xFF	; 255
    535c:	fe 01       	movw	r30, r28
    535e:	e3 5b       	subi	r30, 0xB3	; 179
    5360:	ff 4f       	sbci	r31, 0xFF	; 255
    5362:	60 81       	ld	r22, Z
    5364:	71 81       	ldd	r23, Z+1	; 0x01
    5366:	82 81       	ldd	r24, Z+2	; 0x02
    5368:	93 81       	ldd	r25, Z+3	; 0x03
    536a:	0e 94 49 00 	call	0x92	; 0x92 <__fixunssfsi>
    536e:	dc 01       	movw	r26, r24
    5370:	cb 01       	movw	r24, r22
    5372:	f8 01       	movw	r30, r16
    5374:	91 83       	std	Z+1, r25	; 0x01
    5376:	80 83       	st	Z, r24
    5378:	de 01       	movw	r26, r28
    537a:	a9 5b       	subi	r26, 0xB9	; 185
    537c:	bf 4f       	sbci	r27, 0xFF	; 255
    537e:	fe 01       	movw	r30, r28
    5380:	e5 5b       	subi	r30, 0xB5	; 181
    5382:	ff 4f       	sbci	r31, 0xFF	; 255
    5384:	80 81       	ld	r24, Z
    5386:	91 81       	ldd	r25, Z+1	; 0x01
    5388:	8d 93       	st	X+, r24
    538a:	9c 93       	st	X, r25
    538c:	fe 01       	movw	r30, r28
    538e:	e9 5b       	subi	r30, 0xB9	; 185
    5390:	ff 4f       	sbci	r31, 0xFF	; 255
    5392:	80 81       	ld	r24, Z
    5394:	91 81       	ldd	r25, Z+1	; 0x01
    5396:	01 97       	sbiw	r24, 0x01	; 1
    5398:	f1 f7       	brne	.-4      	; 0x5396 <SevenSegment_From0To9+0x7a8>
    539a:	fe 01       	movw	r30, r28
    539c:	e9 5b       	subi	r30, 0xB9	; 185
    539e:	ff 4f       	sbci	r31, 0xFF	; 255
    53a0:	91 83       	std	Z+1, r25	; 0x01
    53a2:	80 83       	st	Z, r24
		_delay_ms(50);
		SevenSegment_Display(Copy_u8PortId, 1, 0, 1, 1, 0, 1, 1); // 5
    53a4:	fe 01       	movw	r30, r28
    53a6:	e3 57       	subi	r30, 0x73	; 115
    53a8:	ff 4f       	sbci	r31, 0xFF	; 255
    53aa:	80 81       	ld	r24, Z
    53ac:	61 e0       	ldi	r22, 0x01	; 1
    53ae:	40 e0       	ldi	r20, 0x00	; 0
    53b0:	21 e0       	ldi	r18, 0x01	; 1
    53b2:	01 e0       	ldi	r16, 0x01	; 1
    53b4:	ee 24       	eor	r14, r14
    53b6:	cc 24       	eor	r12, r12
    53b8:	c3 94       	inc	r12
    53ba:	aa 24       	eor	r10, r10
    53bc:	a3 94       	inc	r10
    53be:	0e 94 b7 23 	call	0x476e	; 0x476e <SevenSegment_Display>
    53c2:	fe 01       	movw	r30, r28
    53c4:	ed 5b       	subi	r30, 0xBD	; 189
    53c6:	ff 4f       	sbci	r31, 0xFF	; 255
    53c8:	80 e0       	ldi	r24, 0x00	; 0
    53ca:	90 e0       	ldi	r25, 0x00	; 0
    53cc:	a8 e4       	ldi	r26, 0x48	; 72
    53ce:	b2 e4       	ldi	r27, 0x42	; 66
    53d0:	80 83       	st	Z, r24
    53d2:	91 83       	std	Z+1, r25	; 0x01
    53d4:	a2 83       	std	Z+2, r26	; 0x02
    53d6:	b3 83       	std	Z+3, r27	; 0x03
 */
void
_delay_ms(double __ms)
{
	uint16_t __ticks;
	double __tmp = ((F_CPU) / 4e3) * __ms;
    53d8:	8e 01       	movw	r16, r28
    53da:	01 5c       	subi	r16, 0xC1	; 193
    53dc:	1f 4f       	sbci	r17, 0xFF	; 255
    53de:	fe 01       	movw	r30, r28
    53e0:	ed 5b       	subi	r30, 0xBD	; 189
    53e2:	ff 4f       	sbci	r31, 0xFF	; 255
    53e4:	60 81       	ld	r22, Z
    53e6:	71 81       	ldd	r23, Z+1	; 0x01
    53e8:	82 81       	ldd	r24, Z+2	; 0x02
    53ea:	93 81       	ldd	r25, Z+3	; 0x03
    53ec:	20 e0       	ldi	r18, 0x00	; 0
    53ee:	30 e0       	ldi	r19, 0x00	; 0
    53f0:	4a e7       	ldi	r20, 0x7A	; 122
    53f2:	55 e4       	ldi	r21, 0x45	; 69
    53f4:	0e 94 1f 02 	call	0x43e	; 0x43e <__mulsf3>
    53f8:	dc 01       	movw	r26, r24
    53fa:	cb 01       	movw	r24, r22
    53fc:	f8 01       	movw	r30, r16
    53fe:	80 83       	st	Z, r24
    5400:	91 83       	std	Z+1, r25	; 0x01
    5402:	a2 83       	std	Z+2, r26	; 0x02
    5404:	b3 83       	std	Z+3, r27	; 0x03
	if (__tmp < 1.0)
    5406:	fe 01       	movw	r30, r28
    5408:	ff 96       	adiw	r30, 0x3f	; 63
    540a:	60 81       	ld	r22, Z
    540c:	71 81       	ldd	r23, Z+1	; 0x01
    540e:	82 81       	ldd	r24, Z+2	; 0x02
    5410:	93 81       	ldd	r25, Z+3	; 0x03
    5412:	20 e0       	ldi	r18, 0x00	; 0
    5414:	30 e0       	ldi	r19, 0x00	; 0
    5416:	40 e8       	ldi	r20, 0x80	; 128
    5418:	5f e3       	ldi	r21, 0x3F	; 63
    541a:	0e 94 79 03 	call	0x6f2	; 0x6f2 <__ltsf2>
    541e:	88 23       	and	r24, r24
    5420:	2c f4       	brge	.+10     	; 0x542c <SevenSegment_From0To9+0x83e>
		__ticks = 1;
    5422:	81 e0       	ldi	r24, 0x01	; 1
    5424:	90 e0       	ldi	r25, 0x00	; 0
    5426:	9e af       	std	Y+62, r25	; 0x3e
    5428:	8d af       	std	Y+61, r24	; 0x3d
    542a:	46 c0       	rjmp	.+140    	; 0x54b8 <SevenSegment_From0To9+0x8ca>
	else if (__tmp > 65535)
    542c:	fe 01       	movw	r30, r28
    542e:	ff 96       	adiw	r30, 0x3f	; 63
    5430:	60 81       	ld	r22, Z
    5432:	71 81       	ldd	r23, Z+1	; 0x01
    5434:	82 81       	ldd	r24, Z+2	; 0x02
    5436:	93 81       	ldd	r25, Z+3	; 0x03
    5438:	20 e0       	ldi	r18, 0x00	; 0
    543a:	3f ef       	ldi	r19, 0xFF	; 255
    543c:	4f e7       	ldi	r20, 0x7F	; 127
    543e:	57 e4       	ldi	r21, 0x47	; 71
    5440:	0e 94 19 03 	call	0x632	; 0x632 <__gtsf2>
    5444:	18 16       	cp	r1, r24
    5446:	64 f5       	brge	.+88     	; 0x54a0 <SevenSegment_From0To9+0x8b2>
	{
		//	__ticks = requested delay in 1/10 ms
		__ticks = (uint16_t) (__ms * 10.0);
    5448:	fe 01       	movw	r30, r28
    544a:	ed 5b       	subi	r30, 0xBD	; 189
    544c:	ff 4f       	sbci	r31, 0xFF	; 255
    544e:	60 81       	ld	r22, Z
    5450:	71 81       	ldd	r23, Z+1	; 0x01
    5452:	82 81       	ldd	r24, Z+2	; 0x02
    5454:	93 81       	ldd	r25, Z+3	; 0x03
    5456:	20 e0       	ldi	r18, 0x00	; 0
    5458:	30 e0       	ldi	r19, 0x00	; 0
    545a:	40 e2       	ldi	r20, 0x20	; 32
    545c:	51 e4       	ldi	r21, 0x41	; 65
    545e:	0e 94 1f 02 	call	0x43e	; 0x43e <__mulsf3>
    5462:	dc 01       	movw	r26, r24
    5464:	cb 01       	movw	r24, r22
    5466:	bc 01       	movw	r22, r24
    5468:	cd 01       	movw	r24, r26
    546a:	0e 94 49 00 	call	0x92	; 0x92 <__fixunssfsi>
    546e:	dc 01       	movw	r26, r24
    5470:	cb 01       	movw	r24, r22
    5472:	9e af       	std	Y+62, r25	; 0x3e
    5474:	8d af       	std	Y+61, r24	; 0x3d
    5476:	0f c0       	rjmp	.+30     	; 0x5496 <SevenSegment_From0To9+0x8a8>
    5478:	80 e9       	ldi	r24, 0x90	; 144
    547a:	91 e0       	ldi	r25, 0x01	; 1
    547c:	9c af       	std	Y+60, r25	; 0x3c
    547e:	8b af       	std	Y+59, r24	; 0x3b
    5480:	8b ad       	ldd	r24, Y+59	; 0x3b
    5482:	9c ad       	ldd	r25, Y+60	; 0x3c
    5484:	01 97       	sbiw	r24, 0x01	; 1
    5486:	f1 f7       	brne	.-4      	; 0x5484 <SevenSegment_From0To9+0x896>
    5488:	9c af       	std	Y+60, r25	; 0x3c
    548a:	8b af       	std	Y+59, r24	; 0x3b
		while(__ticks)
		{
			// wait 1/10 ms
			_delay_loop_2(((F_CPU) / 4e3) / 10);
			__ticks --;
    548c:	8d ad       	ldd	r24, Y+61	; 0x3d
    548e:	9e ad       	ldd	r25, Y+62	; 0x3e
    5490:	01 97       	sbiw	r24, 0x01	; 1
    5492:	9e af       	std	Y+62, r25	; 0x3e
    5494:	8d af       	std	Y+61, r24	; 0x3d
		__ticks = 1;
	else if (__tmp > 65535)
	{
		//	__ticks = requested delay in 1/10 ms
		__ticks = (uint16_t) (__ms * 10.0);
		while(__ticks)
    5496:	8d ad       	ldd	r24, Y+61	; 0x3d
    5498:	9e ad       	ldd	r25, Y+62	; 0x3e
    549a:	00 97       	sbiw	r24, 0x00	; 0
    549c:	69 f7       	brne	.-38     	; 0x5478 <SevenSegment_From0To9+0x88a>
    549e:	16 c0       	rjmp	.+44     	; 0x54cc <SevenSegment_From0To9+0x8de>
			__ticks --;
		}
		return;
	}
	else
		__ticks = (uint16_t)__tmp;
    54a0:	fe 01       	movw	r30, r28
    54a2:	ff 96       	adiw	r30, 0x3f	; 63
    54a4:	60 81       	ld	r22, Z
    54a6:	71 81       	ldd	r23, Z+1	; 0x01
    54a8:	82 81       	ldd	r24, Z+2	; 0x02
    54aa:	93 81       	ldd	r25, Z+3	; 0x03
    54ac:	0e 94 49 00 	call	0x92	; 0x92 <__fixunssfsi>
    54b0:	dc 01       	movw	r26, r24
    54b2:	cb 01       	movw	r24, r22
    54b4:	9e af       	std	Y+62, r25	; 0x3e
    54b6:	8d af       	std	Y+61, r24	; 0x3d
    54b8:	8d ad       	ldd	r24, Y+61	; 0x3d
    54ba:	9e ad       	ldd	r25, Y+62	; 0x3e
    54bc:	9a af       	std	Y+58, r25	; 0x3a
    54be:	89 af       	std	Y+57, r24	; 0x39
    54c0:	89 ad       	ldd	r24, Y+57	; 0x39
    54c2:	9a ad       	ldd	r25, Y+58	; 0x3a
    54c4:	01 97       	sbiw	r24, 0x01	; 1
    54c6:	f1 f7       	brne	.-4      	; 0x54c4 <SevenSegment_From0To9+0x8d6>
    54c8:	9a af       	std	Y+58, r25	; 0x3a
    54ca:	89 af       	std	Y+57, r24	; 0x39
		_delay_ms(50);
		SevenSegment_Display(Copy_u8PortId, 1, 0, 1, 1, 1, 1, 1); // 6
    54cc:	fe 01       	movw	r30, r28
    54ce:	e3 57       	subi	r30, 0x73	; 115
    54d0:	ff 4f       	sbci	r31, 0xFF	; 255
    54d2:	80 81       	ld	r24, Z
    54d4:	61 e0       	ldi	r22, 0x01	; 1
    54d6:	40 e0       	ldi	r20, 0x00	; 0
    54d8:	21 e0       	ldi	r18, 0x01	; 1
    54da:	01 e0       	ldi	r16, 0x01	; 1
    54dc:	ee 24       	eor	r14, r14
    54de:	e3 94       	inc	r14
    54e0:	cc 24       	eor	r12, r12
    54e2:	c3 94       	inc	r12
    54e4:	aa 24       	eor	r10, r10
    54e6:	a3 94       	inc	r10
    54e8:	0e 94 b7 23 	call	0x476e	; 0x476e <SevenSegment_Display>
    54ec:	80 e0       	ldi	r24, 0x00	; 0
    54ee:	90 e0       	ldi	r25, 0x00	; 0
    54f0:	a8 e4       	ldi	r26, 0x48	; 72
    54f2:	b2 e4       	ldi	r27, 0x42	; 66
    54f4:	8d ab       	std	Y+53, r24	; 0x35
    54f6:	9e ab       	std	Y+54, r25	; 0x36
    54f8:	af ab       	std	Y+55, r26	; 0x37
    54fa:	b8 af       	std	Y+56, r27	; 0x38
 */
void
_delay_ms(double __ms)
{
	uint16_t __ticks;
	double __tmp = ((F_CPU) / 4e3) * __ms;
    54fc:	6d a9       	ldd	r22, Y+53	; 0x35
    54fe:	7e a9       	ldd	r23, Y+54	; 0x36
    5500:	8f a9       	ldd	r24, Y+55	; 0x37
    5502:	98 ad       	ldd	r25, Y+56	; 0x38
    5504:	20 e0       	ldi	r18, 0x00	; 0
    5506:	30 e0       	ldi	r19, 0x00	; 0
    5508:	4a e7       	ldi	r20, 0x7A	; 122
    550a:	55 e4       	ldi	r21, 0x45	; 69
    550c:	0e 94 1f 02 	call	0x43e	; 0x43e <__mulsf3>
    5510:	dc 01       	movw	r26, r24
    5512:	cb 01       	movw	r24, r22
    5514:	89 ab       	std	Y+49, r24	; 0x31
    5516:	9a ab       	std	Y+50, r25	; 0x32
    5518:	ab ab       	std	Y+51, r26	; 0x33
    551a:	bc ab       	std	Y+52, r27	; 0x34
	if (__tmp < 1.0)
    551c:	69 a9       	ldd	r22, Y+49	; 0x31
    551e:	7a a9       	ldd	r23, Y+50	; 0x32
    5520:	8b a9       	ldd	r24, Y+51	; 0x33
    5522:	9c a9       	ldd	r25, Y+52	; 0x34
    5524:	20 e0       	ldi	r18, 0x00	; 0
    5526:	30 e0       	ldi	r19, 0x00	; 0
    5528:	40 e8       	ldi	r20, 0x80	; 128
    552a:	5f e3       	ldi	r21, 0x3F	; 63
    552c:	0e 94 79 03 	call	0x6f2	; 0x6f2 <__ltsf2>
    5530:	88 23       	and	r24, r24
    5532:	2c f4       	brge	.+10     	; 0x553e <SevenSegment_From0To9+0x950>
		__ticks = 1;
    5534:	81 e0       	ldi	r24, 0x01	; 1
    5536:	90 e0       	ldi	r25, 0x00	; 0
    5538:	98 ab       	std	Y+48, r25	; 0x30
    553a:	8f a7       	std	Y+47, r24	; 0x2f
    553c:	3f c0       	rjmp	.+126    	; 0x55bc <SevenSegment_From0To9+0x9ce>
	else if (__tmp > 65535)
    553e:	69 a9       	ldd	r22, Y+49	; 0x31
    5540:	7a a9       	ldd	r23, Y+50	; 0x32
    5542:	8b a9       	ldd	r24, Y+51	; 0x33
    5544:	9c a9       	ldd	r25, Y+52	; 0x34
    5546:	20 e0       	ldi	r18, 0x00	; 0
    5548:	3f ef       	ldi	r19, 0xFF	; 255
    554a:	4f e7       	ldi	r20, 0x7F	; 127
    554c:	57 e4       	ldi	r21, 0x47	; 71
    554e:	0e 94 19 03 	call	0x632	; 0x632 <__gtsf2>
    5552:	18 16       	cp	r1, r24
    5554:	4c f5       	brge	.+82     	; 0x55a8 <SevenSegment_From0To9+0x9ba>
	{
		//	__ticks = requested delay in 1/10 ms
		__ticks = (uint16_t) (__ms * 10.0);
    5556:	6d a9       	ldd	r22, Y+53	; 0x35
    5558:	7e a9       	ldd	r23, Y+54	; 0x36
    555a:	8f a9       	ldd	r24, Y+55	; 0x37
    555c:	98 ad       	ldd	r25, Y+56	; 0x38
    555e:	20 e0       	ldi	r18, 0x00	; 0
    5560:	30 e0       	ldi	r19, 0x00	; 0
    5562:	40 e2       	ldi	r20, 0x20	; 32
    5564:	51 e4       	ldi	r21, 0x41	; 65
    5566:	0e 94 1f 02 	call	0x43e	; 0x43e <__mulsf3>
    556a:	dc 01       	movw	r26, r24
    556c:	cb 01       	movw	r24, r22
    556e:	bc 01       	movw	r22, r24
    5570:	cd 01       	movw	r24, r26
    5572:	0e 94 49 00 	call	0x92	; 0x92 <__fixunssfsi>
    5576:	dc 01       	movw	r26, r24
    5578:	cb 01       	movw	r24, r22
    557a:	98 ab       	std	Y+48, r25	; 0x30
    557c:	8f a7       	std	Y+47, r24	; 0x2f
    557e:	0f c0       	rjmp	.+30     	; 0x559e <SevenSegment_From0To9+0x9b0>
    5580:	80 e9       	ldi	r24, 0x90	; 144
    5582:	91 e0       	ldi	r25, 0x01	; 1
    5584:	9e a7       	std	Y+46, r25	; 0x2e
    5586:	8d a7       	std	Y+45, r24	; 0x2d
    5588:	8d a5       	ldd	r24, Y+45	; 0x2d
    558a:	9e a5       	ldd	r25, Y+46	; 0x2e
    558c:	01 97       	sbiw	r24, 0x01	; 1
    558e:	f1 f7       	brne	.-4      	; 0x558c <SevenSegment_From0To9+0x99e>
    5590:	9e a7       	std	Y+46, r25	; 0x2e
    5592:	8d a7       	std	Y+45, r24	; 0x2d
		while(__ticks)
		{
			// wait 1/10 ms
			_delay_loop_2(((F_CPU) / 4e3) / 10);
			__ticks --;
    5594:	8f a5       	ldd	r24, Y+47	; 0x2f
    5596:	98 a9       	ldd	r25, Y+48	; 0x30
    5598:	01 97       	sbiw	r24, 0x01	; 1
    559a:	98 ab       	std	Y+48, r25	; 0x30
    559c:	8f a7       	std	Y+47, r24	; 0x2f
		__ticks = 1;
	else if (__tmp > 65535)
	{
		//	__ticks = requested delay in 1/10 ms
		__ticks = (uint16_t) (__ms * 10.0);
		while(__ticks)
    559e:	8f a5       	ldd	r24, Y+47	; 0x2f
    55a0:	98 a9       	ldd	r25, Y+48	; 0x30
    55a2:	00 97       	sbiw	r24, 0x00	; 0
    55a4:	69 f7       	brne	.-38     	; 0x5580 <SevenSegment_From0To9+0x992>
    55a6:	14 c0       	rjmp	.+40     	; 0x55d0 <SevenSegment_From0To9+0x9e2>
			__ticks --;
		}
		return;
	}
	else
		__ticks = (uint16_t)__tmp;
    55a8:	69 a9       	ldd	r22, Y+49	; 0x31
    55aa:	7a a9       	ldd	r23, Y+50	; 0x32
    55ac:	8b a9       	ldd	r24, Y+51	; 0x33
    55ae:	9c a9       	ldd	r25, Y+52	; 0x34
    55b0:	0e 94 49 00 	call	0x92	; 0x92 <__fixunssfsi>
    55b4:	dc 01       	movw	r26, r24
    55b6:	cb 01       	movw	r24, r22
    55b8:	98 ab       	std	Y+48, r25	; 0x30
    55ba:	8f a7       	std	Y+47, r24	; 0x2f
    55bc:	8f a5       	ldd	r24, Y+47	; 0x2f
    55be:	98 a9       	ldd	r25, Y+48	; 0x30
    55c0:	9c a7       	std	Y+44, r25	; 0x2c
    55c2:	8b a7       	std	Y+43, r24	; 0x2b
    55c4:	8b a5       	ldd	r24, Y+43	; 0x2b
    55c6:	9c a5       	ldd	r25, Y+44	; 0x2c
    55c8:	01 97       	sbiw	r24, 0x01	; 1
    55ca:	f1 f7       	brne	.-4      	; 0x55c8 <SevenSegment_From0To9+0x9da>
    55cc:	9c a7       	std	Y+44, r25	; 0x2c
    55ce:	8b a7       	std	Y+43, r24	; 0x2b
		_delay_ms(50);
		SevenSegment_Display(Copy_u8PortId, 1, 1, 1, 0, 0, 0, 0); // 7
    55d0:	fe 01       	movw	r30, r28
    55d2:	e3 57       	subi	r30, 0x73	; 115
    55d4:	ff 4f       	sbci	r31, 0xFF	; 255
    55d6:	80 81       	ld	r24, Z
    55d8:	61 e0       	ldi	r22, 0x01	; 1
    55da:	41 e0       	ldi	r20, 0x01	; 1
    55dc:	21 e0       	ldi	r18, 0x01	; 1
    55de:	00 e0       	ldi	r16, 0x00	; 0
    55e0:	ee 24       	eor	r14, r14
    55e2:	cc 24       	eor	r12, r12
    55e4:	aa 24       	eor	r10, r10
    55e6:	0e 94 b7 23 	call	0x476e	; 0x476e <SevenSegment_Display>
    55ea:	80 e0       	ldi	r24, 0x00	; 0
    55ec:	90 e0       	ldi	r25, 0x00	; 0
    55ee:	a8 e4       	ldi	r26, 0x48	; 72
    55f0:	b2 e4       	ldi	r27, 0x42	; 66
    55f2:	8f a3       	std	Y+39, r24	; 0x27
    55f4:	98 a7       	std	Y+40, r25	; 0x28
    55f6:	a9 a7       	std	Y+41, r26	; 0x29
    55f8:	ba a7       	std	Y+42, r27	; 0x2a
 */
void
_delay_ms(double __ms)
{
	uint16_t __ticks;
	double __tmp = ((F_CPU) / 4e3) * __ms;
    55fa:	6f a1       	ldd	r22, Y+39	; 0x27
    55fc:	78 a5       	ldd	r23, Y+40	; 0x28
    55fe:	89 a5       	ldd	r24, Y+41	; 0x29
    5600:	9a a5       	ldd	r25, Y+42	; 0x2a
    5602:	20 e0       	ldi	r18, 0x00	; 0
    5604:	30 e0       	ldi	r19, 0x00	; 0
    5606:	4a e7       	ldi	r20, 0x7A	; 122
    5608:	55 e4       	ldi	r21, 0x45	; 69
    560a:	0e 94 1f 02 	call	0x43e	; 0x43e <__mulsf3>
    560e:	dc 01       	movw	r26, r24
    5610:	cb 01       	movw	r24, r22
    5612:	8b a3       	std	Y+35, r24	; 0x23
    5614:	9c a3       	std	Y+36, r25	; 0x24
    5616:	ad a3       	std	Y+37, r26	; 0x25
    5618:	be a3       	std	Y+38, r27	; 0x26
	if (__tmp < 1.0)
    561a:	6b a1       	ldd	r22, Y+35	; 0x23
    561c:	7c a1       	ldd	r23, Y+36	; 0x24
    561e:	8d a1       	ldd	r24, Y+37	; 0x25
    5620:	9e a1       	ldd	r25, Y+38	; 0x26
    5622:	20 e0       	ldi	r18, 0x00	; 0
    5624:	30 e0       	ldi	r19, 0x00	; 0
    5626:	40 e8       	ldi	r20, 0x80	; 128
    5628:	5f e3       	ldi	r21, 0x3F	; 63
    562a:	0e 94 79 03 	call	0x6f2	; 0x6f2 <__ltsf2>
    562e:	88 23       	and	r24, r24
    5630:	2c f4       	brge	.+10     	; 0x563c <SevenSegment_From0To9+0xa4e>
		__ticks = 1;
    5632:	81 e0       	ldi	r24, 0x01	; 1
    5634:	90 e0       	ldi	r25, 0x00	; 0
    5636:	9a a3       	std	Y+34, r25	; 0x22
    5638:	89 a3       	std	Y+33, r24	; 0x21
    563a:	3f c0       	rjmp	.+126    	; 0x56ba <SevenSegment_From0To9+0xacc>
	else if (__tmp > 65535)
    563c:	6b a1       	ldd	r22, Y+35	; 0x23
    563e:	7c a1       	ldd	r23, Y+36	; 0x24
    5640:	8d a1       	ldd	r24, Y+37	; 0x25
    5642:	9e a1       	ldd	r25, Y+38	; 0x26
    5644:	20 e0       	ldi	r18, 0x00	; 0
    5646:	3f ef       	ldi	r19, 0xFF	; 255
    5648:	4f e7       	ldi	r20, 0x7F	; 127
    564a:	57 e4       	ldi	r21, 0x47	; 71
    564c:	0e 94 19 03 	call	0x632	; 0x632 <__gtsf2>
    5650:	18 16       	cp	r1, r24
    5652:	4c f5       	brge	.+82     	; 0x56a6 <SevenSegment_From0To9+0xab8>
	{
		//	__ticks = requested delay in 1/10 ms
		__ticks = (uint16_t) (__ms * 10.0);
    5654:	6f a1       	ldd	r22, Y+39	; 0x27
    5656:	78 a5       	ldd	r23, Y+40	; 0x28
    5658:	89 a5       	ldd	r24, Y+41	; 0x29
    565a:	9a a5       	ldd	r25, Y+42	; 0x2a
    565c:	20 e0       	ldi	r18, 0x00	; 0
    565e:	30 e0       	ldi	r19, 0x00	; 0
    5660:	40 e2       	ldi	r20, 0x20	; 32
    5662:	51 e4       	ldi	r21, 0x41	; 65
    5664:	0e 94 1f 02 	call	0x43e	; 0x43e <__mulsf3>
    5668:	dc 01       	movw	r26, r24
    566a:	cb 01       	movw	r24, r22
    566c:	bc 01       	movw	r22, r24
    566e:	cd 01       	movw	r24, r26
    5670:	0e 94 49 00 	call	0x92	; 0x92 <__fixunssfsi>
    5674:	dc 01       	movw	r26, r24
    5676:	cb 01       	movw	r24, r22
    5678:	9a a3       	std	Y+34, r25	; 0x22
    567a:	89 a3       	std	Y+33, r24	; 0x21
    567c:	0f c0       	rjmp	.+30     	; 0x569c <SevenSegment_From0To9+0xaae>
    567e:	80 e9       	ldi	r24, 0x90	; 144
    5680:	91 e0       	ldi	r25, 0x01	; 1
    5682:	98 a3       	std	Y+32, r25	; 0x20
    5684:	8f 8f       	std	Y+31, r24	; 0x1f
    5686:	8f 8d       	ldd	r24, Y+31	; 0x1f
    5688:	98 a1       	ldd	r25, Y+32	; 0x20
    568a:	01 97       	sbiw	r24, 0x01	; 1
    568c:	f1 f7       	brne	.-4      	; 0x568a <SevenSegment_From0To9+0xa9c>
    568e:	98 a3       	std	Y+32, r25	; 0x20
    5690:	8f 8f       	std	Y+31, r24	; 0x1f
		while(__ticks)
		{
			// wait 1/10 ms
			_delay_loop_2(((F_CPU) / 4e3) / 10);
			__ticks --;
    5692:	89 a1       	ldd	r24, Y+33	; 0x21
    5694:	9a a1       	ldd	r25, Y+34	; 0x22
    5696:	01 97       	sbiw	r24, 0x01	; 1
    5698:	9a a3       	std	Y+34, r25	; 0x22
    569a:	89 a3       	std	Y+33, r24	; 0x21
		__ticks = 1;
	else if (__tmp > 65535)
	{
		//	__ticks = requested delay in 1/10 ms
		__ticks = (uint16_t) (__ms * 10.0);
		while(__ticks)
    569c:	89 a1       	ldd	r24, Y+33	; 0x21
    569e:	9a a1       	ldd	r25, Y+34	; 0x22
    56a0:	00 97       	sbiw	r24, 0x00	; 0
    56a2:	69 f7       	brne	.-38     	; 0x567e <SevenSegment_From0To9+0xa90>
    56a4:	14 c0       	rjmp	.+40     	; 0x56ce <SevenSegment_From0To9+0xae0>
			__ticks --;
		}
		return;
	}
	else
		__ticks = (uint16_t)__tmp;
    56a6:	6b a1       	ldd	r22, Y+35	; 0x23
    56a8:	7c a1       	ldd	r23, Y+36	; 0x24
    56aa:	8d a1       	ldd	r24, Y+37	; 0x25
    56ac:	9e a1       	ldd	r25, Y+38	; 0x26
    56ae:	0e 94 49 00 	call	0x92	; 0x92 <__fixunssfsi>
    56b2:	dc 01       	movw	r26, r24
    56b4:	cb 01       	movw	r24, r22
    56b6:	9a a3       	std	Y+34, r25	; 0x22
    56b8:	89 a3       	std	Y+33, r24	; 0x21
    56ba:	89 a1       	ldd	r24, Y+33	; 0x21
    56bc:	9a a1       	ldd	r25, Y+34	; 0x22
    56be:	9e 8f       	std	Y+30, r25	; 0x1e
    56c0:	8d 8f       	std	Y+29, r24	; 0x1d
    56c2:	8d 8d       	ldd	r24, Y+29	; 0x1d
    56c4:	9e 8d       	ldd	r25, Y+30	; 0x1e
    56c6:	01 97       	sbiw	r24, 0x01	; 1
    56c8:	f1 f7       	brne	.-4      	; 0x56c6 <SevenSegment_From0To9+0xad8>
    56ca:	9e 8f       	std	Y+30, r25	; 0x1e
    56cc:	8d 8f       	std	Y+29, r24	; 0x1d
		_delay_ms(50);
		SevenSegment_Display(Copy_u8PortId, 1, 1, 1, 1, 1, 1, 1); // 8
    56ce:	fe 01       	movw	r30, r28
    56d0:	e3 57       	subi	r30, 0x73	; 115
    56d2:	ff 4f       	sbci	r31, 0xFF	; 255
    56d4:	80 81       	ld	r24, Z
    56d6:	61 e0       	ldi	r22, 0x01	; 1
    56d8:	41 e0       	ldi	r20, 0x01	; 1
    56da:	21 e0       	ldi	r18, 0x01	; 1
    56dc:	01 e0       	ldi	r16, 0x01	; 1
    56de:	ee 24       	eor	r14, r14
    56e0:	e3 94       	inc	r14
    56e2:	cc 24       	eor	r12, r12
    56e4:	c3 94       	inc	r12
    56e6:	aa 24       	eor	r10, r10
    56e8:	a3 94       	inc	r10
    56ea:	0e 94 b7 23 	call	0x476e	; 0x476e <SevenSegment_Display>
    56ee:	80 e0       	ldi	r24, 0x00	; 0
    56f0:	90 e0       	ldi	r25, 0x00	; 0
    56f2:	a8 e4       	ldi	r26, 0x48	; 72
    56f4:	b2 e4       	ldi	r27, 0x42	; 66
    56f6:	89 8f       	std	Y+25, r24	; 0x19
    56f8:	9a 8f       	std	Y+26, r25	; 0x1a
    56fa:	ab 8f       	std	Y+27, r26	; 0x1b
    56fc:	bc 8f       	std	Y+28, r27	; 0x1c
 */
void
_delay_ms(double __ms)
{
	uint16_t __ticks;
	double __tmp = ((F_CPU) / 4e3) * __ms;
    56fe:	69 8d       	ldd	r22, Y+25	; 0x19
    5700:	7a 8d       	ldd	r23, Y+26	; 0x1a
    5702:	8b 8d       	ldd	r24, Y+27	; 0x1b
    5704:	9c 8d       	ldd	r25, Y+28	; 0x1c
    5706:	20 e0       	ldi	r18, 0x00	; 0
    5708:	30 e0       	ldi	r19, 0x00	; 0
    570a:	4a e7       	ldi	r20, 0x7A	; 122
    570c:	55 e4       	ldi	r21, 0x45	; 69
    570e:	0e 94 1f 02 	call	0x43e	; 0x43e <__mulsf3>
    5712:	dc 01       	movw	r26, r24
    5714:	cb 01       	movw	r24, r22
    5716:	8d 8b       	std	Y+21, r24	; 0x15
    5718:	9e 8b       	std	Y+22, r25	; 0x16
    571a:	af 8b       	std	Y+23, r26	; 0x17
    571c:	b8 8f       	std	Y+24, r27	; 0x18
	if (__tmp < 1.0)
    571e:	6d 89       	ldd	r22, Y+21	; 0x15
    5720:	7e 89       	ldd	r23, Y+22	; 0x16
    5722:	8f 89       	ldd	r24, Y+23	; 0x17
    5724:	98 8d       	ldd	r25, Y+24	; 0x18
    5726:	20 e0       	ldi	r18, 0x00	; 0
    5728:	30 e0       	ldi	r19, 0x00	; 0
    572a:	40 e8       	ldi	r20, 0x80	; 128
    572c:	5f e3       	ldi	r21, 0x3F	; 63
    572e:	0e 94 79 03 	call	0x6f2	; 0x6f2 <__ltsf2>
    5732:	88 23       	and	r24, r24
    5734:	2c f4       	brge	.+10     	; 0x5740 <SevenSegment_From0To9+0xb52>
		__ticks = 1;
    5736:	81 e0       	ldi	r24, 0x01	; 1
    5738:	90 e0       	ldi	r25, 0x00	; 0
    573a:	9c 8b       	std	Y+20, r25	; 0x14
    573c:	8b 8b       	std	Y+19, r24	; 0x13
    573e:	3f c0       	rjmp	.+126    	; 0x57be <SevenSegment_From0To9+0xbd0>
	else if (__tmp > 65535)
    5740:	6d 89       	ldd	r22, Y+21	; 0x15
    5742:	7e 89       	ldd	r23, Y+22	; 0x16
    5744:	8f 89       	ldd	r24, Y+23	; 0x17
    5746:	98 8d       	ldd	r25, Y+24	; 0x18
    5748:	20 e0       	ldi	r18, 0x00	; 0
    574a:	3f ef       	ldi	r19, 0xFF	; 255
    574c:	4f e7       	ldi	r20, 0x7F	; 127
    574e:	57 e4       	ldi	r21, 0x47	; 71
    5750:	0e 94 19 03 	call	0x632	; 0x632 <__gtsf2>
    5754:	18 16       	cp	r1, r24
    5756:	4c f5       	brge	.+82     	; 0x57aa <SevenSegment_From0To9+0xbbc>
	{
		//	__ticks = requested delay in 1/10 ms
		__ticks = (uint16_t) (__ms * 10.0);
    5758:	69 8d       	ldd	r22, Y+25	; 0x19
    575a:	7a 8d       	ldd	r23, Y+26	; 0x1a
    575c:	8b 8d       	ldd	r24, Y+27	; 0x1b
    575e:	9c 8d       	ldd	r25, Y+28	; 0x1c
    5760:	20 e0       	ldi	r18, 0x00	; 0
    5762:	30 e0       	ldi	r19, 0x00	; 0
    5764:	40 e2       	ldi	r20, 0x20	; 32
    5766:	51 e4       	ldi	r21, 0x41	; 65
    5768:	0e 94 1f 02 	call	0x43e	; 0x43e <__mulsf3>
    576c:	dc 01       	movw	r26, r24
    576e:	cb 01       	movw	r24, r22
    5770:	bc 01       	movw	r22, r24
    5772:	cd 01       	movw	r24, r26
    5774:	0e 94 49 00 	call	0x92	; 0x92 <__fixunssfsi>
    5778:	dc 01       	movw	r26, r24
    577a:	cb 01       	movw	r24, r22
    577c:	9c 8b       	std	Y+20, r25	; 0x14
    577e:	8b 8b       	std	Y+19, r24	; 0x13
    5780:	0f c0       	rjmp	.+30     	; 0x57a0 <SevenSegment_From0To9+0xbb2>
    5782:	80 e9       	ldi	r24, 0x90	; 144
    5784:	91 e0       	ldi	r25, 0x01	; 1
    5786:	9a 8b       	std	Y+18, r25	; 0x12
    5788:	89 8b       	std	Y+17, r24	; 0x11
    578a:	89 89       	ldd	r24, Y+17	; 0x11
    578c:	9a 89       	ldd	r25, Y+18	; 0x12
    578e:	01 97       	sbiw	r24, 0x01	; 1
    5790:	f1 f7       	brne	.-4      	; 0x578e <SevenSegment_From0To9+0xba0>
    5792:	9a 8b       	std	Y+18, r25	; 0x12
    5794:	89 8b       	std	Y+17, r24	; 0x11
		while(__ticks)
		{
			// wait 1/10 ms
			_delay_loop_2(((F_CPU) / 4e3) / 10);
			__ticks --;
    5796:	8b 89       	ldd	r24, Y+19	; 0x13
    5798:	9c 89       	ldd	r25, Y+20	; 0x14
    579a:	01 97       	sbiw	r24, 0x01	; 1
    579c:	9c 8b       	std	Y+20, r25	; 0x14
    579e:	8b 8b       	std	Y+19, r24	; 0x13
		__ticks = 1;
	else if (__tmp > 65535)
	{
		//	__ticks = requested delay in 1/10 ms
		__ticks = (uint16_t) (__ms * 10.0);
		while(__ticks)
    57a0:	8b 89       	ldd	r24, Y+19	; 0x13
    57a2:	9c 89       	ldd	r25, Y+20	; 0x14
    57a4:	00 97       	sbiw	r24, 0x00	; 0
    57a6:	69 f7       	brne	.-38     	; 0x5782 <SevenSegment_From0To9+0xb94>
    57a8:	14 c0       	rjmp	.+40     	; 0x57d2 <SevenSegment_From0To9+0xbe4>
			__ticks --;
		}
		return;
	}
	else
		__ticks = (uint16_t)__tmp;
    57aa:	6d 89       	ldd	r22, Y+21	; 0x15
    57ac:	7e 89       	ldd	r23, Y+22	; 0x16
    57ae:	8f 89       	ldd	r24, Y+23	; 0x17
    57b0:	98 8d       	ldd	r25, Y+24	; 0x18
    57b2:	0e 94 49 00 	call	0x92	; 0x92 <__fixunssfsi>
    57b6:	dc 01       	movw	r26, r24
    57b8:	cb 01       	movw	r24, r22
    57ba:	9c 8b       	std	Y+20, r25	; 0x14
    57bc:	8b 8b       	std	Y+19, r24	; 0x13
    57be:	8b 89       	ldd	r24, Y+19	; 0x13
    57c0:	9c 89       	ldd	r25, Y+20	; 0x14
    57c2:	98 8b       	std	Y+16, r25	; 0x10
    57c4:	8f 87       	std	Y+15, r24	; 0x0f
    57c6:	8f 85       	ldd	r24, Y+15	; 0x0f
    57c8:	98 89       	ldd	r25, Y+16	; 0x10
    57ca:	01 97       	sbiw	r24, 0x01	; 1
    57cc:	f1 f7       	brne	.-4      	; 0x57ca <SevenSegment_From0To9+0xbdc>
    57ce:	98 8b       	std	Y+16, r25	; 0x10
    57d0:	8f 87       	std	Y+15, r24	; 0x0f
		_delay_ms(50);
		SevenSegment_Display(Copy_u8PortId, 1, 1, 1, 1, 0, 1, 1); // 9
    57d2:	fe 01       	movw	r30, r28
    57d4:	e3 57       	subi	r30, 0x73	; 115
    57d6:	ff 4f       	sbci	r31, 0xFF	; 255
    57d8:	80 81       	ld	r24, Z
    57da:	61 e0       	ldi	r22, 0x01	; 1
    57dc:	41 e0       	ldi	r20, 0x01	; 1
    57de:	21 e0       	ldi	r18, 0x01	; 1
    57e0:	01 e0       	ldi	r16, 0x01	; 1
    57e2:	ee 24       	eor	r14, r14
    57e4:	cc 24       	eor	r12, r12
    57e6:	c3 94       	inc	r12
    57e8:	aa 24       	eor	r10, r10
    57ea:	a3 94       	inc	r10
    57ec:	0e 94 b7 23 	call	0x476e	; 0x476e <SevenSegment_Display>
    57f0:	80 e0       	ldi	r24, 0x00	; 0
    57f2:	90 e0       	ldi	r25, 0x00	; 0
    57f4:	a8 e4       	ldi	r26, 0x48	; 72
    57f6:	b2 e4       	ldi	r27, 0x42	; 66
    57f8:	8b 87       	std	Y+11, r24	; 0x0b
    57fa:	9c 87       	std	Y+12, r25	; 0x0c
    57fc:	ad 87       	std	Y+13, r26	; 0x0d
    57fe:	be 87       	std	Y+14, r27	; 0x0e
 */
void
_delay_ms(double __ms)
{
	uint16_t __ticks;
	double __tmp = ((F_CPU) / 4e3) * __ms;
    5800:	6b 85       	ldd	r22, Y+11	; 0x0b
    5802:	7c 85       	ldd	r23, Y+12	; 0x0c
    5804:	8d 85       	ldd	r24, Y+13	; 0x0d
    5806:	9e 85       	ldd	r25, Y+14	; 0x0e
    5808:	20 e0       	ldi	r18, 0x00	; 0
    580a:	30 e0       	ldi	r19, 0x00	; 0
    580c:	4a e7       	ldi	r20, 0x7A	; 122
    580e:	55 e4       	ldi	r21, 0x45	; 69
    5810:	0e 94 1f 02 	call	0x43e	; 0x43e <__mulsf3>
    5814:	dc 01       	movw	r26, r24
    5816:	cb 01       	movw	r24, r22
    5818:	8f 83       	std	Y+7, r24	; 0x07
    581a:	98 87       	std	Y+8, r25	; 0x08
    581c:	a9 87       	std	Y+9, r26	; 0x09
    581e:	ba 87       	std	Y+10, r27	; 0x0a
	if (__tmp < 1.0)
    5820:	6f 81       	ldd	r22, Y+7	; 0x07
    5822:	78 85       	ldd	r23, Y+8	; 0x08
    5824:	89 85       	ldd	r24, Y+9	; 0x09
    5826:	9a 85       	ldd	r25, Y+10	; 0x0a
    5828:	20 e0       	ldi	r18, 0x00	; 0
    582a:	30 e0       	ldi	r19, 0x00	; 0
    582c:	40 e8       	ldi	r20, 0x80	; 128
    582e:	5f e3       	ldi	r21, 0x3F	; 63
    5830:	0e 94 79 03 	call	0x6f2	; 0x6f2 <__ltsf2>
    5834:	88 23       	and	r24, r24
    5836:	2c f4       	brge	.+10     	; 0x5842 <SevenSegment_From0To9+0xc54>
		__ticks = 1;
    5838:	81 e0       	ldi	r24, 0x01	; 1
    583a:	90 e0       	ldi	r25, 0x00	; 0
    583c:	9e 83       	std	Y+6, r25	; 0x06
    583e:	8d 83       	std	Y+5, r24	; 0x05
    5840:	3f c0       	rjmp	.+126    	; 0x58c0 <SevenSegment_From0To9+0xcd2>
	else if (__tmp > 65535)
    5842:	6f 81       	ldd	r22, Y+7	; 0x07
    5844:	78 85       	ldd	r23, Y+8	; 0x08
    5846:	89 85       	ldd	r24, Y+9	; 0x09
    5848:	9a 85       	ldd	r25, Y+10	; 0x0a
    584a:	20 e0       	ldi	r18, 0x00	; 0
    584c:	3f ef       	ldi	r19, 0xFF	; 255
    584e:	4f e7       	ldi	r20, 0x7F	; 127
    5850:	57 e4       	ldi	r21, 0x47	; 71
    5852:	0e 94 19 03 	call	0x632	; 0x632 <__gtsf2>
    5856:	18 16       	cp	r1, r24
    5858:	4c f5       	brge	.+82     	; 0x58ac <SevenSegment_From0To9+0xcbe>
	{
		//	__ticks = requested delay in 1/10 ms
		__ticks = (uint16_t) (__ms * 10.0);
    585a:	6b 85       	ldd	r22, Y+11	; 0x0b
    585c:	7c 85       	ldd	r23, Y+12	; 0x0c
    585e:	8d 85       	ldd	r24, Y+13	; 0x0d
    5860:	9e 85       	ldd	r25, Y+14	; 0x0e
    5862:	20 e0       	ldi	r18, 0x00	; 0
    5864:	30 e0       	ldi	r19, 0x00	; 0
    5866:	40 e2       	ldi	r20, 0x20	; 32
    5868:	51 e4       	ldi	r21, 0x41	; 65
    586a:	0e 94 1f 02 	call	0x43e	; 0x43e <__mulsf3>
    586e:	dc 01       	movw	r26, r24
    5870:	cb 01       	movw	r24, r22
    5872:	bc 01       	movw	r22, r24
    5874:	cd 01       	movw	r24, r26
    5876:	0e 94 49 00 	call	0x92	; 0x92 <__fixunssfsi>
    587a:	dc 01       	movw	r26, r24
    587c:	cb 01       	movw	r24, r22
    587e:	9e 83       	std	Y+6, r25	; 0x06
    5880:	8d 83       	std	Y+5, r24	; 0x05
    5882:	0f c0       	rjmp	.+30     	; 0x58a2 <SevenSegment_From0To9+0xcb4>
    5884:	80 e9       	ldi	r24, 0x90	; 144
    5886:	91 e0       	ldi	r25, 0x01	; 1
    5888:	9c 83       	std	Y+4, r25	; 0x04
    588a:	8b 83       	std	Y+3, r24	; 0x03
    588c:	8b 81       	ldd	r24, Y+3	; 0x03
    588e:	9c 81       	ldd	r25, Y+4	; 0x04
    5890:	01 97       	sbiw	r24, 0x01	; 1
    5892:	f1 f7       	brne	.-4      	; 0x5890 <SevenSegment_From0To9+0xca2>
    5894:	9c 83       	std	Y+4, r25	; 0x04
    5896:	8b 83       	std	Y+3, r24	; 0x03
		while(__ticks)
		{
			// wait 1/10 ms
			_delay_loop_2(((F_CPU) / 4e3) / 10);
			__ticks --;
    5898:	8d 81       	ldd	r24, Y+5	; 0x05
    589a:	9e 81       	ldd	r25, Y+6	; 0x06
    589c:	01 97       	sbiw	r24, 0x01	; 1
    589e:	9e 83       	std	Y+6, r25	; 0x06
    58a0:	8d 83       	std	Y+5, r24	; 0x05
		__ticks = 1;
	else if (__tmp > 65535)
	{
		//	__ticks = requested delay in 1/10 ms
		__ticks = (uint16_t) (__ms * 10.0);
		while(__ticks)
    58a2:	8d 81       	ldd	r24, Y+5	; 0x05
    58a4:	9e 81       	ldd	r25, Y+6	; 0x06
    58a6:	00 97       	sbiw	r24, 0x00	; 0
    58a8:	69 f7       	brne	.-38     	; 0x5884 <SevenSegment_From0To9+0xc96>
    58aa:	b5 c9       	rjmp	.-3222   	; 0x4c16 <SevenSegment_From0To9+0x28>
			__ticks --;
		}
		return;
	}
	else
		__ticks = (uint16_t)__tmp;
    58ac:	6f 81       	ldd	r22, Y+7	; 0x07
    58ae:	78 85       	ldd	r23, Y+8	; 0x08
    58b0:	89 85       	ldd	r24, Y+9	; 0x09
    58b2:	9a 85       	ldd	r25, Y+10	; 0x0a
    58b4:	0e 94 49 00 	call	0x92	; 0x92 <__fixunssfsi>
    58b8:	dc 01       	movw	r26, r24
    58ba:	cb 01       	movw	r24, r22
    58bc:	9e 83       	std	Y+6, r25	; 0x06
    58be:	8d 83       	std	Y+5, r24	; 0x05
    58c0:	8d 81       	ldd	r24, Y+5	; 0x05
    58c2:	9e 81       	ldd	r25, Y+6	; 0x06
    58c4:	9a 83       	std	Y+2, r25	; 0x02
    58c6:	89 83       	std	Y+1, r24	; 0x01
    58c8:	89 81       	ldd	r24, Y+1	; 0x01
    58ca:	9a 81       	ldd	r25, Y+2	; 0x02
    58cc:	01 97       	sbiw	r24, 0x01	; 1
    58ce:	f1 f7       	brne	.-4      	; 0x58cc <SevenSegment_From0To9+0xcde>
    58d0:	9a 83       	std	Y+2, r25	; 0x02
    58d2:	89 83       	std	Y+1, r24	; 0x01
    58d4:	a0 c9       	rjmp	.-3264   	; 0x4c16 <SevenSegment_From0To9+0x28>

000058d6 <SevenSegment_FromAToH>:
		_delay_ms(50);
	}
}

void SevenSegment_FromAToH(u8 Copy_u8PortId){
    58d6:	af 92       	push	r10
    58d8:	cf 92       	push	r12
    58da:	ef 92       	push	r14
    58dc:	0f 93       	push	r16
    58de:	1f 93       	push	r17
    58e0:	df 93       	push	r29
    58e2:	cf 93       	push	r28
    58e4:	cd b7       	in	r28, 0x3d	; 61
    58e6:	de b7       	in	r29, 0x3e	; 62
    58e8:	c1 57       	subi	r28, 0x71	; 113
    58ea:	d0 40       	sbci	r29, 0x00	; 0
    58ec:	0f b6       	in	r0, 0x3f	; 63
    58ee:	f8 94       	cli
    58f0:	de bf       	out	0x3e, r29	; 62
    58f2:	0f be       	out	0x3f, r0	; 63
    58f4:	cd bf       	out	0x3d, r28	; 61
    58f6:	fe 01       	movw	r30, r28
    58f8:	ef 58       	subi	r30, 0x8F	; 143
    58fa:	ff 4f       	sbci	r31, 0xFF	; 255
    58fc:	80 83       	st	Z, r24
	while(1){
		SevenSegment_Display(Copy_u8PortId, 1, 1, 1, 0, 1, 1, 1); // A
    58fe:	fe 01       	movw	r30, r28
    5900:	ef 58       	subi	r30, 0x8F	; 143
    5902:	ff 4f       	sbci	r31, 0xFF	; 255
    5904:	80 81       	ld	r24, Z
    5906:	61 e0       	ldi	r22, 0x01	; 1
    5908:	41 e0       	ldi	r20, 0x01	; 1
    590a:	21 e0       	ldi	r18, 0x01	; 1
    590c:	00 e0       	ldi	r16, 0x00	; 0
    590e:	ee 24       	eor	r14, r14
    5910:	e3 94       	inc	r14
    5912:	cc 24       	eor	r12, r12
    5914:	c3 94       	inc	r12
    5916:	aa 24       	eor	r10, r10
    5918:	a3 94       	inc	r10
    591a:	0e 94 b7 23 	call	0x476e	; 0x476e <SevenSegment_Display>
    591e:	fe 01       	movw	r30, r28
    5920:	e3 59       	subi	r30, 0x93	; 147
    5922:	ff 4f       	sbci	r31, 0xFF	; 255
    5924:	80 e0       	ldi	r24, 0x00	; 0
    5926:	90 e0       	ldi	r25, 0x00	; 0
    5928:	a8 e4       	ldi	r26, 0x48	; 72
    592a:	b2 e4       	ldi	r27, 0x42	; 66
    592c:	80 83       	st	Z, r24
    592e:	91 83       	std	Z+1, r25	; 0x01
    5930:	a2 83       	std	Z+2, r26	; 0x02
    5932:	b3 83       	std	Z+3, r27	; 0x03
 */
void
_delay_ms(double __ms)
{
	uint16_t __ticks;
	double __tmp = ((F_CPU) / 4e3) * __ms;
    5934:	8e 01       	movw	r16, r28
    5936:	07 59       	subi	r16, 0x97	; 151
    5938:	1f 4f       	sbci	r17, 0xFF	; 255
    593a:	fe 01       	movw	r30, r28
    593c:	e3 59       	subi	r30, 0x93	; 147
    593e:	ff 4f       	sbci	r31, 0xFF	; 255
    5940:	60 81       	ld	r22, Z
    5942:	71 81       	ldd	r23, Z+1	; 0x01
    5944:	82 81       	ldd	r24, Z+2	; 0x02
    5946:	93 81       	ldd	r25, Z+3	; 0x03
    5948:	20 e0       	ldi	r18, 0x00	; 0
    594a:	30 e0       	ldi	r19, 0x00	; 0
    594c:	4a e7       	ldi	r20, 0x7A	; 122
    594e:	55 e4       	ldi	r21, 0x45	; 69
    5950:	0e 94 1f 02 	call	0x43e	; 0x43e <__mulsf3>
    5954:	dc 01       	movw	r26, r24
    5956:	cb 01       	movw	r24, r22
    5958:	f8 01       	movw	r30, r16
    595a:	80 83       	st	Z, r24
    595c:	91 83       	std	Z+1, r25	; 0x01
    595e:	a2 83       	std	Z+2, r26	; 0x02
    5960:	b3 83       	std	Z+3, r27	; 0x03
	if (__tmp < 1.0)
    5962:	fe 01       	movw	r30, r28
    5964:	e7 59       	subi	r30, 0x97	; 151
    5966:	ff 4f       	sbci	r31, 0xFF	; 255
    5968:	60 81       	ld	r22, Z
    596a:	71 81       	ldd	r23, Z+1	; 0x01
    596c:	82 81       	ldd	r24, Z+2	; 0x02
    596e:	93 81       	ldd	r25, Z+3	; 0x03
    5970:	20 e0       	ldi	r18, 0x00	; 0
    5972:	30 e0       	ldi	r19, 0x00	; 0
    5974:	40 e8       	ldi	r20, 0x80	; 128
    5976:	5f e3       	ldi	r21, 0x3F	; 63
    5978:	0e 94 79 03 	call	0x6f2	; 0x6f2 <__ltsf2>
    597c:	88 23       	and	r24, r24
    597e:	44 f4       	brge	.+16     	; 0x5990 <SevenSegment_FromAToH+0xba>
		__ticks = 1;
    5980:	fe 01       	movw	r30, r28
    5982:	e9 59       	subi	r30, 0x99	; 153
    5984:	ff 4f       	sbci	r31, 0xFF	; 255
    5986:	81 e0       	ldi	r24, 0x01	; 1
    5988:	90 e0       	ldi	r25, 0x00	; 0
    598a:	91 83       	std	Z+1, r25	; 0x01
    598c:	80 83       	st	Z, r24
    598e:	64 c0       	rjmp	.+200    	; 0x5a58 <SevenSegment_FromAToH+0x182>
	else if (__tmp > 65535)
    5990:	fe 01       	movw	r30, r28
    5992:	e7 59       	subi	r30, 0x97	; 151
    5994:	ff 4f       	sbci	r31, 0xFF	; 255
    5996:	60 81       	ld	r22, Z
    5998:	71 81       	ldd	r23, Z+1	; 0x01
    599a:	82 81       	ldd	r24, Z+2	; 0x02
    599c:	93 81       	ldd	r25, Z+3	; 0x03
    599e:	20 e0       	ldi	r18, 0x00	; 0
    59a0:	3f ef       	ldi	r19, 0xFF	; 255
    59a2:	4f e7       	ldi	r20, 0x7F	; 127
    59a4:	57 e4       	ldi	r21, 0x47	; 71
    59a6:	0e 94 19 03 	call	0x632	; 0x632 <__gtsf2>
    59aa:	18 16       	cp	r1, r24
    59ac:	0c f0       	brlt	.+2      	; 0x59b0 <SevenSegment_FromAToH+0xda>
    59ae:	43 c0       	rjmp	.+134    	; 0x5a36 <SevenSegment_FromAToH+0x160>
	{
		//	__ticks = requested delay in 1/10 ms
		__ticks = (uint16_t) (__ms * 10.0);
    59b0:	fe 01       	movw	r30, r28
    59b2:	e3 59       	subi	r30, 0x93	; 147
    59b4:	ff 4f       	sbci	r31, 0xFF	; 255
    59b6:	60 81       	ld	r22, Z
    59b8:	71 81       	ldd	r23, Z+1	; 0x01
    59ba:	82 81       	ldd	r24, Z+2	; 0x02
    59bc:	93 81       	ldd	r25, Z+3	; 0x03
    59be:	20 e0       	ldi	r18, 0x00	; 0
    59c0:	30 e0       	ldi	r19, 0x00	; 0
    59c2:	40 e2       	ldi	r20, 0x20	; 32
    59c4:	51 e4       	ldi	r21, 0x41	; 65
    59c6:	0e 94 1f 02 	call	0x43e	; 0x43e <__mulsf3>
    59ca:	dc 01       	movw	r26, r24
    59cc:	cb 01       	movw	r24, r22
    59ce:	8e 01       	movw	r16, r28
    59d0:	09 59       	subi	r16, 0x99	; 153
    59d2:	1f 4f       	sbci	r17, 0xFF	; 255
    59d4:	bc 01       	movw	r22, r24
    59d6:	cd 01       	movw	r24, r26
    59d8:	0e 94 49 00 	call	0x92	; 0x92 <__fixunssfsi>
    59dc:	dc 01       	movw	r26, r24
    59de:	cb 01       	movw	r24, r22
    59e0:	f8 01       	movw	r30, r16
    59e2:	91 83       	std	Z+1, r25	; 0x01
    59e4:	80 83       	st	Z, r24
    59e6:	1f c0       	rjmp	.+62     	; 0x5a26 <SevenSegment_FromAToH+0x150>
    59e8:	fe 01       	movw	r30, r28
    59ea:	eb 59       	subi	r30, 0x9B	; 155
    59ec:	ff 4f       	sbci	r31, 0xFF	; 255
    59ee:	80 e9       	ldi	r24, 0x90	; 144
    59f0:	91 e0       	ldi	r25, 0x01	; 1
    59f2:	91 83       	std	Z+1, r25	; 0x01
    59f4:	80 83       	st	Z, r24
    59f6:	fe 01       	movw	r30, r28
    59f8:	eb 59       	subi	r30, 0x9B	; 155
    59fa:	ff 4f       	sbci	r31, 0xFF	; 255
    59fc:	80 81       	ld	r24, Z
    59fe:	91 81       	ldd	r25, Z+1	; 0x01
    5a00:	01 97       	sbiw	r24, 0x01	; 1
    5a02:	f1 f7       	brne	.-4      	; 0x5a00 <SevenSegment_FromAToH+0x12a>
    5a04:	fe 01       	movw	r30, r28
    5a06:	eb 59       	subi	r30, 0x9B	; 155
    5a08:	ff 4f       	sbci	r31, 0xFF	; 255
    5a0a:	91 83       	std	Z+1, r25	; 0x01
    5a0c:	80 83       	st	Z, r24
		while(__ticks)
		{
			// wait 1/10 ms
			_delay_loop_2(((F_CPU) / 4e3) / 10);
			__ticks --;
    5a0e:	de 01       	movw	r26, r28
    5a10:	a9 59       	subi	r26, 0x99	; 153
    5a12:	bf 4f       	sbci	r27, 0xFF	; 255
    5a14:	fe 01       	movw	r30, r28
    5a16:	e9 59       	subi	r30, 0x99	; 153
    5a18:	ff 4f       	sbci	r31, 0xFF	; 255
    5a1a:	80 81       	ld	r24, Z
    5a1c:	91 81       	ldd	r25, Z+1	; 0x01
    5a1e:	01 97       	sbiw	r24, 0x01	; 1
    5a20:	11 96       	adiw	r26, 0x01	; 1
    5a22:	9c 93       	st	X, r25
    5a24:	8e 93       	st	-X, r24
		__ticks = 1;
	else if (__tmp > 65535)
	{
		//	__ticks = requested delay in 1/10 ms
		__ticks = (uint16_t) (__ms * 10.0);
		while(__ticks)
    5a26:	fe 01       	movw	r30, r28
    5a28:	e9 59       	subi	r30, 0x99	; 153
    5a2a:	ff 4f       	sbci	r31, 0xFF	; 255
    5a2c:	80 81       	ld	r24, Z
    5a2e:	91 81       	ldd	r25, Z+1	; 0x01
    5a30:	00 97       	sbiw	r24, 0x00	; 0
    5a32:	d1 f6       	brne	.-76     	; 0x59e8 <SevenSegment_FromAToH+0x112>
    5a34:	27 c0       	rjmp	.+78     	; 0x5a84 <SevenSegment_FromAToH+0x1ae>
			__ticks --;
		}
		return;
	}
	else
		__ticks = (uint16_t)__tmp;
    5a36:	8e 01       	movw	r16, r28
    5a38:	09 59       	subi	r16, 0x99	; 153
    5a3a:	1f 4f       	sbci	r17, 0xFF	; 255
    5a3c:	fe 01       	movw	r30, r28
    5a3e:	e7 59       	subi	r30, 0x97	; 151
    5a40:	ff 4f       	sbci	r31, 0xFF	; 255
    5a42:	60 81       	ld	r22, Z
    5a44:	71 81       	ldd	r23, Z+1	; 0x01
    5a46:	82 81       	ldd	r24, Z+2	; 0x02
    5a48:	93 81       	ldd	r25, Z+3	; 0x03
    5a4a:	0e 94 49 00 	call	0x92	; 0x92 <__fixunssfsi>
    5a4e:	dc 01       	movw	r26, r24
    5a50:	cb 01       	movw	r24, r22
    5a52:	f8 01       	movw	r30, r16
    5a54:	91 83       	std	Z+1, r25	; 0x01
    5a56:	80 83       	st	Z, r24
    5a58:	de 01       	movw	r26, r28
    5a5a:	ad 59       	subi	r26, 0x9D	; 157
    5a5c:	bf 4f       	sbci	r27, 0xFF	; 255
    5a5e:	fe 01       	movw	r30, r28
    5a60:	e9 59       	subi	r30, 0x99	; 153
    5a62:	ff 4f       	sbci	r31, 0xFF	; 255
    5a64:	80 81       	ld	r24, Z
    5a66:	91 81       	ldd	r25, Z+1	; 0x01
    5a68:	8d 93       	st	X+, r24
    5a6a:	9c 93       	st	X, r25
    5a6c:	fe 01       	movw	r30, r28
    5a6e:	ed 59       	subi	r30, 0x9D	; 157
    5a70:	ff 4f       	sbci	r31, 0xFF	; 255
    5a72:	80 81       	ld	r24, Z
    5a74:	91 81       	ldd	r25, Z+1	; 0x01
    5a76:	01 97       	sbiw	r24, 0x01	; 1
    5a78:	f1 f7       	brne	.-4      	; 0x5a76 <SevenSegment_FromAToH+0x1a0>
    5a7a:	fe 01       	movw	r30, r28
    5a7c:	ed 59       	subi	r30, 0x9D	; 157
    5a7e:	ff 4f       	sbci	r31, 0xFF	; 255
    5a80:	91 83       	std	Z+1, r25	; 0x01
    5a82:	80 83       	st	Z, r24
		_delay_ms(50);
		SevenSegment_Display(Copy_u8PortId, 0, 0, 1, 1, 1, 1, 1); // B
    5a84:	fe 01       	movw	r30, r28
    5a86:	ef 58       	subi	r30, 0x8F	; 143
    5a88:	ff 4f       	sbci	r31, 0xFF	; 255
    5a8a:	80 81       	ld	r24, Z
    5a8c:	60 e0       	ldi	r22, 0x00	; 0
    5a8e:	40 e0       	ldi	r20, 0x00	; 0
    5a90:	21 e0       	ldi	r18, 0x01	; 1
    5a92:	01 e0       	ldi	r16, 0x01	; 1
    5a94:	ee 24       	eor	r14, r14
    5a96:	e3 94       	inc	r14
    5a98:	cc 24       	eor	r12, r12
    5a9a:	c3 94       	inc	r12
    5a9c:	aa 24       	eor	r10, r10
    5a9e:	a3 94       	inc	r10
    5aa0:	0e 94 b7 23 	call	0x476e	; 0x476e <SevenSegment_Display>
    5aa4:	fe 01       	movw	r30, r28
    5aa6:	e1 5a       	subi	r30, 0xA1	; 161
    5aa8:	ff 4f       	sbci	r31, 0xFF	; 255
    5aaa:	80 e0       	ldi	r24, 0x00	; 0
    5aac:	90 e0       	ldi	r25, 0x00	; 0
    5aae:	a8 e4       	ldi	r26, 0x48	; 72
    5ab0:	b2 e4       	ldi	r27, 0x42	; 66
    5ab2:	80 83       	st	Z, r24
    5ab4:	91 83       	std	Z+1, r25	; 0x01
    5ab6:	a2 83       	std	Z+2, r26	; 0x02
    5ab8:	b3 83       	std	Z+3, r27	; 0x03
 */
void
_delay_ms(double __ms)
{
	uint16_t __ticks;
	double __tmp = ((F_CPU) / 4e3) * __ms;
    5aba:	8e 01       	movw	r16, r28
    5abc:	05 5a       	subi	r16, 0xA5	; 165
    5abe:	1f 4f       	sbci	r17, 0xFF	; 255
    5ac0:	fe 01       	movw	r30, r28
    5ac2:	e1 5a       	subi	r30, 0xA1	; 161
    5ac4:	ff 4f       	sbci	r31, 0xFF	; 255
    5ac6:	60 81       	ld	r22, Z
    5ac8:	71 81       	ldd	r23, Z+1	; 0x01
    5aca:	82 81       	ldd	r24, Z+2	; 0x02
    5acc:	93 81       	ldd	r25, Z+3	; 0x03
    5ace:	20 e0       	ldi	r18, 0x00	; 0
    5ad0:	30 e0       	ldi	r19, 0x00	; 0
    5ad2:	4a e7       	ldi	r20, 0x7A	; 122
    5ad4:	55 e4       	ldi	r21, 0x45	; 69
    5ad6:	0e 94 1f 02 	call	0x43e	; 0x43e <__mulsf3>
    5ada:	dc 01       	movw	r26, r24
    5adc:	cb 01       	movw	r24, r22
    5ade:	f8 01       	movw	r30, r16
    5ae0:	80 83       	st	Z, r24
    5ae2:	91 83       	std	Z+1, r25	; 0x01
    5ae4:	a2 83       	std	Z+2, r26	; 0x02
    5ae6:	b3 83       	std	Z+3, r27	; 0x03
	if (__tmp < 1.0)
    5ae8:	fe 01       	movw	r30, r28
    5aea:	e5 5a       	subi	r30, 0xA5	; 165
    5aec:	ff 4f       	sbci	r31, 0xFF	; 255
    5aee:	60 81       	ld	r22, Z
    5af0:	71 81       	ldd	r23, Z+1	; 0x01
    5af2:	82 81       	ldd	r24, Z+2	; 0x02
    5af4:	93 81       	ldd	r25, Z+3	; 0x03
    5af6:	20 e0       	ldi	r18, 0x00	; 0
    5af8:	30 e0       	ldi	r19, 0x00	; 0
    5afa:	40 e8       	ldi	r20, 0x80	; 128
    5afc:	5f e3       	ldi	r21, 0x3F	; 63
    5afe:	0e 94 79 03 	call	0x6f2	; 0x6f2 <__ltsf2>
    5b02:	88 23       	and	r24, r24
    5b04:	44 f4       	brge	.+16     	; 0x5b16 <SevenSegment_FromAToH+0x240>
		__ticks = 1;
    5b06:	fe 01       	movw	r30, r28
    5b08:	e7 5a       	subi	r30, 0xA7	; 167
    5b0a:	ff 4f       	sbci	r31, 0xFF	; 255
    5b0c:	81 e0       	ldi	r24, 0x01	; 1
    5b0e:	90 e0       	ldi	r25, 0x00	; 0
    5b10:	91 83       	std	Z+1, r25	; 0x01
    5b12:	80 83       	st	Z, r24
    5b14:	64 c0       	rjmp	.+200    	; 0x5bde <SevenSegment_FromAToH+0x308>
	else if (__tmp > 65535)
    5b16:	fe 01       	movw	r30, r28
    5b18:	e5 5a       	subi	r30, 0xA5	; 165
    5b1a:	ff 4f       	sbci	r31, 0xFF	; 255
    5b1c:	60 81       	ld	r22, Z
    5b1e:	71 81       	ldd	r23, Z+1	; 0x01
    5b20:	82 81       	ldd	r24, Z+2	; 0x02
    5b22:	93 81       	ldd	r25, Z+3	; 0x03
    5b24:	20 e0       	ldi	r18, 0x00	; 0
    5b26:	3f ef       	ldi	r19, 0xFF	; 255
    5b28:	4f e7       	ldi	r20, 0x7F	; 127
    5b2a:	57 e4       	ldi	r21, 0x47	; 71
    5b2c:	0e 94 19 03 	call	0x632	; 0x632 <__gtsf2>
    5b30:	18 16       	cp	r1, r24
    5b32:	0c f0       	brlt	.+2      	; 0x5b36 <SevenSegment_FromAToH+0x260>
    5b34:	43 c0       	rjmp	.+134    	; 0x5bbc <SevenSegment_FromAToH+0x2e6>
	{
		//	__ticks = requested delay in 1/10 ms
		__ticks = (uint16_t) (__ms * 10.0);
    5b36:	fe 01       	movw	r30, r28
    5b38:	e1 5a       	subi	r30, 0xA1	; 161
    5b3a:	ff 4f       	sbci	r31, 0xFF	; 255
    5b3c:	60 81       	ld	r22, Z
    5b3e:	71 81       	ldd	r23, Z+1	; 0x01
    5b40:	82 81       	ldd	r24, Z+2	; 0x02
    5b42:	93 81       	ldd	r25, Z+3	; 0x03
    5b44:	20 e0       	ldi	r18, 0x00	; 0
    5b46:	30 e0       	ldi	r19, 0x00	; 0
    5b48:	40 e2       	ldi	r20, 0x20	; 32
    5b4a:	51 e4       	ldi	r21, 0x41	; 65
    5b4c:	0e 94 1f 02 	call	0x43e	; 0x43e <__mulsf3>
    5b50:	dc 01       	movw	r26, r24
    5b52:	cb 01       	movw	r24, r22
    5b54:	8e 01       	movw	r16, r28
    5b56:	07 5a       	subi	r16, 0xA7	; 167
    5b58:	1f 4f       	sbci	r17, 0xFF	; 255
    5b5a:	bc 01       	movw	r22, r24
    5b5c:	cd 01       	movw	r24, r26
    5b5e:	0e 94 49 00 	call	0x92	; 0x92 <__fixunssfsi>
    5b62:	dc 01       	movw	r26, r24
    5b64:	cb 01       	movw	r24, r22
    5b66:	f8 01       	movw	r30, r16
    5b68:	91 83       	std	Z+1, r25	; 0x01
    5b6a:	80 83       	st	Z, r24
    5b6c:	1f c0       	rjmp	.+62     	; 0x5bac <SevenSegment_FromAToH+0x2d6>
    5b6e:	fe 01       	movw	r30, r28
    5b70:	e9 5a       	subi	r30, 0xA9	; 169
    5b72:	ff 4f       	sbci	r31, 0xFF	; 255
    5b74:	80 e9       	ldi	r24, 0x90	; 144
    5b76:	91 e0       	ldi	r25, 0x01	; 1
    5b78:	91 83       	std	Z+1, r25	; 0x01
    5b7a:	80 83       	st	Z, r24
    5b7c:	fe 01       	movw	r30, r28
    5b7e:	e9 5a       	subi	r30, 0xA9	; 169
    5b80:	ff 4f       	sbci	r31, 0xFF	; 255
    5b82:	80 81       	ld	r24, Z
    5b84:	91 81       	ldd	r25, Z+1	; 0x01
    5b86:	01 97       	sbiw	r24, 0x01	; 1
    5b88:	f1 f7       	brne	.-4      	; 0x5b86 <SevenSegment_FromAToH+0x2b0>
    5b8a:	fe 01       	movw	r30, r28
    5b8c:	e9 5a       	subi	r30, 0xA9	; 169
    5b8e:	ff 4f       	sbci	r31, 0xFF	; 255
    5b90:	91 83       	std	Z+1, r25	; 0x01
    5b92:	80 83       	st	Z, r24
		while(__ticks)
		{
			// wait 1/10 ms
			_delay_loop_2(((F_CPU) / 4e3) / 10);
			__ticks --;
    5b94:	de 01       	movw	r26, r28
    5b96:	a7 5a       	subi	r26, 0xA7	; 167
    5b98:	bf 4f       	sbci	r27, 0xFF	; 255
    5b9a:	fe 01       	movw	r30, r28
    5b9c:	e7 5a       	subi	r30, 0xA7	; 167
    5b9e:	ff 4f       	sbci	r31, 0xFF	; 255
    5ba0:	80 81       	ld	r24, Z
    5ba2:	91 81       	ldd	r25, Z+1	; 0x01
    5ba4:	01 97       	sbiw	r24, 0x01	; 1
    5ba6:	11 96       	adiw	r26, 0x01	; 1
    5ba8:	9c 93       	st	X, r25
    5baa:	8e 93       	st	-X, r24
		__ticks = 1;
	else if (__tmp > 65535)
	{
		//	__ticks = requested delay in 1/10 ms
		__ticks = (uint16_t) (__ms * 10.0);
		while(__ticks)
    5bac:	fe 01       	movw	r30, r28
    5bae:	e7 5a       	subi	r30, 0xA7	; 167
    5bb0:	ff 4f       	sbci	r31, 0xFF	; 255
    5bb2:	80 81       	ld	r24, Z
    5bb4:	91 81       	ldd	r25, Z+1	; 0x01
    5bb6:	00 97       	sbiw	r24, 0x00	; 0
    5bb8:	d1 f6       	brne	.-76     	; 0x5b6e <SevenSegment_FromAToH+0x298>
    5bba:	27 c0       	rjmp	.+78     	; 0x5c0a <SevenSegment_FromAToH+0x334>
			__ticks --;
		}
		return;
	}
	else
		__ticks = (uint16_t)__tmp;
    5bbc:	8e 01       	movw	r16, r28
    5bbe:	07 5a       	subi	r16, 0xA7	; 167
    5bc0:	1f 4f       	sbci	r17, 0xFF	; 255
    5bc2:	fe 01       	movw	r30, r28
    5bc4:	e5 5a       	subi	r30, 0xA5	; 165
    5bc6:	ff 4f       	sbci	r31, 0xFF	; 255
    5bc8:	60 81       	ld	r22, Z
    5bca:	71 81       	ldd	r23, Z+1	; 0x01
    5bcc:	82 81       	ldd	r24, Z+2	; 0x02
    5bce:	93 81       	ldd	r25, Z+3	; 0x03
    5bd0:	0e 94 49 00 	call	0x92	; 0x92 <__fixunssfsi>
    5bd4:	dc 01       	movw	r26, r24
    5bd6:	cb 01       	movw	r24, r22
    5bd8:	f8 01       	movw	r30, r16
    5bda:	91 83       	std	Z+1, r25	; 0x01
    5bdc:	80 83       	st	Z, r24
    5bde:	de 01       	movw	r26, r28
    5be0:	ab 5a       	subi	r26, 0xAB	; 171
    5be2:	bf 4f       	sbci	r27, 0xFF	; 255
    5be4:	fe 01       	movw	r30, r28
    5be6:	e7 5a       	subi	r30, 0xA7	; 167
    5be8:	ff 4f       	sbci	r31, 0xFF	; 255
    5bea:	80 81       	ld	r24, Z
    5bec:	91 81       	ldd	r25, Z+1	; 0x01
    5bee:	8d 93       	st	X+, r24
    5bf0:	9c 93       	st	X, r25
    5bf2:	fe 01       	movw	r30, r28
    5bf4:	eb 5a       	subi	r30, 0xAB	; 171
    5bf6:	ff 4f       	sbci	r31, 0xFF	; 255
    5bf8:	80 81       	ld	r24, Z
    5bfa:	91 81       	ldd	r25, Z+1	; 0x01
    5bfc:	01 97       	sbiw	r24, 0x01	; 1
    5bfe:	f1 f7       	brne	.-4      	; 0x5bfc <SevenSegment_FromAToH+0x326>
    5c00:	fe 01       	movw	r30, r28
    5c02:	eb 5a       	subi	r30, 0xAB	; 171
    5c04:	ff 4f       	sbci	r31, 0xFF	; 255
    5c06:	91 83       	std	Z+1, r25	; 0x01
    5c08:	80 83       	st	Z, r24
		_delay_ms(50);
		SevenSegment_Display(Copy_u8PortId, 1, 0, 0, 1, 1, 1, 0); // C
    5c0a:	fe 01       	movw	r30, r28
    5c0c:	ef 58       	subi	r30, 0x8F	; 143
    5c0e:	ff 4f       	sbci	r31, 0xFF	; 255
    5c10:	80 81       	ld	r24, Z
    5c12:	61 e0       	ldi	r22, 0x01	; 1
    5c14:	40 e0       	ldi	r20, 0x00	; 0
    5c16:	20 e0       	ldi	r18, 0x00	; 0
    5c18:	01 e0       	ldi	r16, 0x01	; 1
    5c1a:	ee 24       	eor	r14, r14
    5c1c:	e3 94       	inc	r14
    5c1e:	cc 24       	eor	r12, r12
    5c20:	c3 94       	inc	r12
    5c22:	aa 24       	eor	r10, r10
    5c24:	0e 94 b7 23 	call	0x476e	; 0x476e <SevenSegment_Display>
    5c28:	fe 01       	movw	r30, r28
    5c2a:	ef 5a       	subi	r30, 0xAF	; 175
    5c2c:	ff 4f       	sbci	r31, 0xFF	; 255
    5c2e:	80 e0       	ldi	r24, 0x00	; 0
    5c30:	90 e0       	ldi	r25, 0x00	; 0
    5c32:	a8 e4       	ldi	r26, 0x48	; 72
    5c34:	b2 e4       	ldi	r27, 0x42	; 66
    5c36:	80 83       	st	Z, r24
    5c38:	91 83       	std	Z+1, r25	; 0x01
    5c3a:	a2 83       	std	Z+2, r26	; 0x02
    5c3c:	b3 83       	std	Z+3, r27	; 0x03
 */
void
_delay_ms(double __ms)
{
	uint16_t __ticks;
	double __tmp = ((F_CPU) / 4e3) * __ms;
    5c3e:	8e 01       	movw	r16, r28
    5c40:	03 5b       	subi	r16, 0xB3	; 179
    5c42:	1f 4f       	sbci	r17, 0xFF	; 255
    5c44:	fe 01       	movw	r30, r28
    5c46:	ef 5a       	subi	r30, 0xAF	; 175
    5c48:	ff 4f       	sbci	r31, 0xFF	; 255
    5c4a:	60 81       	ld	r22, Z
    5c4c:	71 81       	ldd	r23, Z+1	; 0x01
    5c4e:	82 81       	ldd	r24, Z+2	; 0x02
    5c50:	93 81       	ldd	r25, Z+3	; 0x03
    5c52:	20 e0       	ldi	r18, 0x00	; 0
    5c54:	30 e0       	ldi	r19, 0x00	; 0
    5c56:	4a e7       	ldi	r20, 0x7A	; 122
    5c58:	55 e4       	ldi	r21, 0x45	; 69
    5c5a:	0e 94 1f 02 	call	0x43e	; 0x43e <__mulsf3>
    5c5e:	dc 01       	movw	r26, r24
    5c60:	cb 01       	movw	r24, r22
    5c62:	f8 01       	movw	r30, r16
    5c64:	80 83       	st	Z, r24
    5c66:	91 83       	std	Z+1, r25	; 0x01
    5c68:	a2 83       	std	Z+2, r26	; 0x02
    5c6a:	b3 83       	std	Z+3, r27	; 0x03
	if (__tmp < 1.0)
    5c6c:	fe 01       	movw	r30, r28
    5c6e:	e3 5b       	subi	r30, 0xB3	; 179
    5c70:	ff 4f       	sbci	r31, 0xFF	; 255
    5c72:	60 81       	ld	r22, Z
    5c74:	71 81       	ldd	r23, Z+1	; 0x01
    5c76:	82 81       	ldd	r24, Z+2	; 0x02
    5c78:	93 81       	ldd	r25, Z+3	; 0x03
    5c7a:	20 e0       	ldi	r18, 0x00	; 0
    5c7c:	30 e0       	ldi	r19, 0x00	; 0
    5c7e:	40 e8       	ldi	r20, 0x80	; 128
    5c80:	5f e3       	ldi	r21, 0x3F	; 63
    5c82:	0e 94 79 03 	call	0x6f2	; 0x6f2 <__ltsf2>
    5c86:	88 23       	and	r24, r24
    5c88:	44 f4       	brge	.+16     	; 0x5c9a <SevenSegment_FromAToH+0x3c4>
		__ticks = 1;
    5c8a:	fe 01       	movw	r30, r28
    5c8c:	e5 5b       	subi	r30, 0xB5	; 181
    5c8e:	ff 4f       	sbci	r31, 0xFF	; 255
    5c90:	81 e0       	ldi	r24, 0x01	; 1
    5c92:	90 e0       	ldi	r25, 0x00	; 0
    5c94:	91 83       	std	Z+1, r25	; 0x01
    5c96:	80 83       	st	Z, r24
    5c98:	64 c0       	rjmp	.+200    	; 0x5d62 <SevenSegment_FromAToH+0x48c>
	else if (__tmp > 65535)
    5c9a:	fe 01       	movw	r30, r28
    5c9c:	e3 5b       	subi	r30, 0xB3	; 179
    5c9e:	ff 4f       	sbci	r31, 0xFF	; 255
    5ca0:	60 81       	ld	r22, Z
    5ca2:	71 81       	ldd	r23, Z+1	; 0x01
    5ca4:	82 81       	ldd	r24, Z+2	; 0x02
    5ca6:	93 81       	ldd	r25, Z+3	; 0x03
    5ca8:	20 e0       	ldi	r18, 0x00	; 0
    5caa:	3f ef       	ldi	r19, 0xFF	; 255
    5cac:	4f e7       	ldi	r20, 0x7F	; 127
    5cae:	57 e4       	ldi	r21, 0x47	; 71
    5cb0:	0e 94 19 03 	call	0x632	; 0x632 <__gtsf2>
    5cb4:	18 16       	cp	r1, r24
    5cb6:	0c f0       	brlt	.+2      	; 0x5cba <SevenSegment_FromAToH+0x3e4>
    5cb8:	43 c0       	rjmp	.+134    	; 0x5d40 <SevenSegment_FromAToH+0x46a>
	{
		//	__ticks = requested delay in 1/10 ms
		__ticks = (uint16_t) (__ms * 10.0);
    5cba:	fe 01       	movw	r30, r28
    5cbc:	ef 5a       	subi	r30, 0xAF	; 175
    5cbe:	ff 4f       	sbci	r31, 0xFF	; 255
    5cc0:	60 81       	ld	r22, Z
    5cc2:	71 81       	ldd	r23, Z+1	; 0x01
    5cc4:	82 81       	ldd	r24, Z+2	; 0x02
    5cc6:	93 81       	ldd	r25, Z+3	; 0x03
    5cc8:	20 e0       	ldi	r18, 0x00	; 0
    5cca:	30 e0       	ldi	r19, 0x00	; 0
    5ccc:	40 e2       	ldi	r20, 0x20	; 32
    5cce:	51 e4       	ldi	r21, 0x41	; 65
    5cd0:	0e 94 1f 02 	call	0x43e	; 0x43e <__mulsf3>
    5cd4:	dc 01       	movw	r26, r24
    5cd6:	cb 01       	movw	r24, r22
    5cd8:	8e 01       	movw	r16, r28
    5cda:	05 5b       	subi	r16, 0xB5	; 181
    5cdc:	1f 4f       	sbci	r17, 0xFF	; 255
    5cde:	bc 01       	movw	r22, r24
    5ce0:	cd 01       	movw	r24, r26
    5ce2:	0e 94 49 00 	call	0x92	; 0x92 <__fixunssfsi>
    5ce6:	dc 01       	movw	r26, r24
    5ce8:	cb 01       	movw	r24, r22
    5cea:	f8 01       	movw	r30, r16
    5cec:	91 83       	std	Z+1, r25	; 0x01
    5cee:	80 83       	st	Z, r24
    5cf0:	1f c0       	rjmp	.+62     	; 0x5d30 <SevenSegment_FromAToH+0x45a>
    5cf2:	fe 01       	movw	r30, r28
    5cf4:	e7 5b       	subi	r30, 0xB7	; 183
    5cf6:	ff 4f       	sbci	r31, 0xFF	; 255
    5cf8:	80 e9       	ldi	r24, 0x90	; 144
    5cfa:	91 e0       	ldi	r25, 0x01	; 1
    5cfc:	91 83       	std	Z+1, r25	; 0x01
    5cfe:	80 83       	st	Z, r24
    5d00:	fe 01       	movw	r30, r28
    5d02:	e7 5b       	subi	r30, 0xB7	; 183
    5d04:	ff 4f       	sbci	r31, 0xFF	; 255
    5d06:	80 81       	ld	r24, Z
    5d08:	91 81       	ldd	r25, Z+1	; 0x01
    5d0a:	01 97       	sbiw	r24, 0x01	; 1
    5d0c:	f1 f7       	brne	.-4      	; 0x5d0a <SevenSegment_FromAToH+0x434>
    5d0e:	fe 01       	movw	r30, r28
    5d10:	e7 5b       	subi	r30, 0xB7	; 183
    5d12:	ff 4f       	sbci	r31, 0xFF	; 255
    5d14:	91 83       	std	Z+1, r25	; 0x01
    5d16:	80 83       	st	Z, r24
		while(__ticks)
		{
			// wait 1/10 ms
			_delay_loop_2(((F_CPU) / 4e3) / 10);
			__ticks --;
    5d18:	de 01       	movw	r26, r28
    5d1a:	a5 5b       	subi	r26, 0xB5	; 181
    5d1c:	bf 4f       	sbci	r27, 0xFF	; 255
    5d1e:	fe 01       	movw	r30, r28
    5d20:	e5 5b       	subi	r30, 0xB5	; 181
    5d22:	ff 4f       	sbci	r31, 0xFF	; 255
    5d24:	80 81       	ld	r24, Z
    5d26:	91 81       	ldd	r25, Z+1	; 0x01
    5d28:	01 97       	sbiw	r24, 0x01	; 1
    5d2a:	11 96       	adiw	r26, 0x01	; 1
    5d2c:	9c 93       	st	X, r25
    5d2e:	8e 93       	st	-X, r24
		__ticks = 1;
	else if (__tmp > 65535)
	{
		//	__ticks = requested delay in 1/10 ms
		__ticks = (uint16_t) (__ms * 10.0);
		while(__ticks)
    5d30:	fe 01       	movw	r30, r28
    5d32:	e5 5b       	subi	r30, 0xB5	; 181
    5d34:	ff 4f       	sbci	r31, 0xFF	; 255
    5d36:	80 81       	ld	r24, Z
    5d38:	91 81       	ldd	r25, Z+1	; 0x01
    5d3a:	00 97       	sbiw	r24, 0x00	; 0
    5d3c:	d1 f6       	brne	.-76     	; 0x5cf2 <SevenSegment_FromAToH+0x41c>
    5d3e:	27 c0       	rjmp	.+78     	; 0x5d8e <SevenSegment_FromAToH+0x4b8>
			__ticks --;
		}
		return;
	}
	else
		__ticks = (uint16_t)__tmp;
    5d40:	8e 01       	movw	r16, r28
    5d42:	05 5b       	subi	r16, 0xB5	; 181
    5d44:	1f 4f       	sbci	r17, 0xFF	; 255
    5d46:	fe 01       	movw	r30, r28
    5d48:	e3 5b       	subi	r30, 0xB3	; 179
    5d4a:	ff 4f       	sbci	r31, 0xFF	; 255
    5d4c:	60 81       	ld	r22, Z
    5d4e:	71 81       	ldd	r23, Z+1	; 0x01
    5d50:	82 81       	ldd	r24, Z+2	; 0x02
    5d52:	93 81       	ldd	r25, Z+3	; 0x03
    5d54:	0e 94 49 00 	call	0x92	; 0x92 <__fixunssfsi>
    5d58:	dc 01       	movw	r26, r24
    5d5a:	cb 01       	movw	r24, r22
    5d5c:	f8 01       	movw	r30, r16
    5d5e:	91 83       	std	Z+1, r25	; 0x01
    5d60:	80 83       	st	Z, r24
    5d62:	de 01       	movw	r26, r28
    5d64:	a9 5b       	subi	r26, 0xB9	; 185
    5d66:	bf 4f       	sbci	r27, 0xFF	; 255
    5d68:	fe 01       	movw	r30, r28
    5d6a:	e5 5b       	subi	r30, 0xB5	; 181
    5d6c:	ff 4f       	sbci	r31, 0xFF	; 255
    5d6e:	80 81       	ld	r24, Z
    5d70:	91 81       	ldd	r25, Z+1	; 0x01
    5d72:	8d 93       	st	X+, r24
    5d74:	9c 93       	st	X, r25
    5d76:	fe 01       	movw	r30, r28
    5d78:	e9 5b       	subi	r30, 0xB9	; 185
    5d7a:	ff 4f       	sbci	r31, 0xFF	; 255
    5d7c:	80 81       	ld	r24, Z
    5d7e:	91 81       	ldd	r25, Z+1	; 0x01
    5d80:	01 97       	sbiw	r24, 0x01	; 1
    5d82:	f1 f7       	brne	.-4      	; 0x5d80 <SevenSegment_FromAToH+0x4aa>
    5d84:	fe 01       	movw	r30, r28
    5d86:	e9 5b       	subi	r30, 0xB9	; 185
    5d88:	ff 4f       	sbci	r31, 0xFF	; 255
    5d8a:	91 83       	std	Z+1, r25	; 0x01
    5d8c:	80 83       	st	Z, r24
		_delay_ms(50);
		SevenSegment_Display(Copy_u8PortId, 0, 1, 1, 1, 1, 0, 1); // D
    5d8e:	fe 01       	movw	r30, r28
    5d90:	ef 58       	subi	r30, 0x8F	; 143
    5d92:	ff 4f       	sbci	r31, 0xFF	; 255
    5d94:	80 81       	ld	r24, Z
    5d96:	60 e0       	ldi	r22, 0x00	; 0
    5d98:	41 e0       	ldi	r20, 0x01	; 1
    5d9a:	21 e0       	ldi	r18, 0x01	; 1
    5d9c:	01 e0       	ldi	r16, 0x01	; 1
    5d9e:	ee 24       	eor	r14, r14
    5da0:	e3 94       	inc	r14
    5da2:	cc 24       	eor	r12, r12
    5da4:	aa 24       	eor	r10, r10
    5da6:	a3 94       	inc	r10
    5da8:	0e 94 b7 23 	call	0x476e	; 0x476e <SevenSegment_Display>
    5dac:	fe 01       	movw	r30, r28
    5dae:	ed 5b       	subi	r30, 0xBD	; 189
    5db0:	ff 4f       	sbci	r31, 0xFF	; 255
    5db2:	80 e0       	ldi	r24, 0x00	; 0
    5db4:	90 e0       	ldi	r25, 0x00	; 0
    5db6:	a8 e4       	ldi	r26, 0x48	; 72
    5db8:	b2 e4       	ldi	r27, 0x42	; 66
    5dba:	80 83       	st	Z, r24
    5dbc:	91 83       	std	Z+1, r25	; 0x01
    5dbe:	a2 83       	std	Z+2, r26	; 0x02
    5dc0:	b3 83       	std	Z+3, r27	; 0x03
 */
void
_delay_ms(double __ms)
{
	uint16_t __ticks;
	double __tmp = ((F_CPU) / 4e3) * __ms;
    5dc2:	8e 01       	movw	r16, r28
    5dc4:	01 5c       	subi	r16, 0xC1	; 193
    5dc6:	1f 4f       	sbci	r17, 0xFF	; 255
    5dc8:	fe 01       	movw	r30, r28
    5dca:	ed 5b       	subi	r30, 0xBD	; 189
    5dcc:	ff 4f       	sbci	r31, 0xFF	; 255
    5dce:	60 81       	ld	r22, Z
    5dd0:	71 81       	ldd	r23, Z+1	; 0x01
    5dd2:	82 81       	ldd	r24, Z+2	; 0x02
    5dd4:	93 81       	ldd	r25, Z+3	; 0x03
    5dd6:	20 e0       	ldi	r18, 0x00	; 0
    5dd8:	30 e0       	ldi	r19, 0x00	; 0
    5dda:	4a e7       	ldi	r20, 0x7A	; 122
    5ddc:	55 e4       	ldi	r21, 0x45	; 69
    5dde:	0e 94 1f 02 	call	0x43e	; 0x43e <__mulsf3>
    5de2:	dc 01       	movw	r26, r24
    5de4:	cb 01       	movw	r24, r22
    5de6:	f8 01       	movw	r30, r16
    5de8:	80 83       	st	Z, r24
    5dea:	91 83       	std	Z+1, r25	; 0x01
    5dec:	a2 83       	std	Z+2, r26	; 0x02
    5dee:	b3 83       	std	Z+3, r27	; 0x03
	if (__tmp < 1.0)
    5df0:	fe 01       	movw	r30, r28
    5df2:	ff 96       	adiw	r30, 0x3f	; 63
    5df4:	60 81       	ld	r22, Z
    5df6:	71 81       	ldd	r23, Z+1	; 0x01
    5df8:	82 81       	ldd	r24, Z+2	; 0x02
    5dfa:	93 81       	ldd	r25, Z+3	; 0x03
    5dfc:	20 e0       	ldi	r18, 0x00	; 0
    5dfe:	30 e0       	ldi	r19, 0x00	; 0
    5e00:	40 e8       	ldi	r20, 0x80	; 128
    5e02:	5f e3       	ldi	r21, 0x3F	; 63
    5e04:	0e 94 79 03 	call	0x6f2	; 0x6f2 <__ltsf2>
    5e08:	88 23       	and	r24, r24
    5e0a:	2c f4       	brge	.+10     	; 0x5e16 <SevenSegment_FromAToH+0x540>
		__ticks = 1;
    5e0c:	81 e0       	ldi	r24, 0x01	; 1
    5e0e:	90 e0       	ldi	r25, 0x00	; 0
    5e10:	9e af       	std	Y+62, r25	; 0x3e
    5e12:	8d af       	std	Y+61, r24	; 0x3d
    5e14:	46 c0       	rjmp	.+140    	; 0x5ea2 <SevenSegment_FromAToH+0x5cc>
	else if (__tmp > 65535)
    5e16:	fe 01       	movw	r30, r28
    5e18:	ff 96       	adiw	r30, 0x3f	; 63
    5e1a:	60 81       	ld	r22, Z
    5e1c:	71 81       	ldd	r23, Z+1	; 0x01
    5e1e:	82 81       	ldd	r24, Z+2	; 0x02
    5e20:	93 81       	ldd	r25, Z+3	; 0x03
    5e22:	20 e0       	ldi	r18, 0x00	; 0
    5e24:	3f ef       	ldi	r19, 0xFF	; 255
    5e26:	4f e7       	ldi	r20, 0x7F	; 127
    5e28:	57 e4       	ldi	r21, 0x47	; 71
    5e2a:	0e 94 19 03 	call	0x632	; 0x632 <__gtsf2>
    5e2e:	18 16       	cp	r1, r24
    5e30:	64 f5       	brge	.+88     	; 0x5e8a <SevenSegment_FromAToH+0x5b4>
	{
		//	__ticks = requested delay in 1/10 ms
		__ticks = (uint16_t) (__ms * 10.0);
    5e32:	fe 01       	movw	r30, r28
    5e34:	ed 5b       	subi	r30, 0xBD	; 189
    5e36:	ff 4f       	sbci	r31, 0xFF	; 255
    5e38:	60 81       	ld	r22, Z
    5e3a:	71 81       	ldd	r23, Z+1	; 0x01
    5e3c:	82 81       	ldd	r24, Z+2	; 0x02
    5e3e:	93 81       	ldd	r25, Z+3	; 0x03
    5e40:	20 e0       	ldi	r18, 0x00	; 0
    5e42:	30 e0       	ldi	r19, 0x00	; 0
    5e44:	40 e2       	ldi	r20, 0x20	; 32
    5e46:	51 e4       	ldi	r21, 0x41	; 65
    5e48:	0e 94 1f 02 	call	0x43e	; 0x43e <__mulsf3>
    5e4c:	dc 01       	movw	r26, r24
    5e4e:	cb 01       	movw	r24, r22
    5e50:	bc 01       	movw	r22, r24
    5e52:	cd 01       	movw	r24, r26
    5e54:	0e 94 49 00 	call	0x92	; 0x92 <__fixunssfsi>
    5e58:	dc 01       	movw	r26, r24
    5e5a:	cb 01       	movw	r24, r22
    5e5c:	9e af       	std	Y+62, r25	; 0x3e
    5e5e:	8d af       	std	Y+61, r24	; 0x3d
    5e60:	0f c0       	rjmp	.+30     	; 0x5e80 <SevenSegment_FromAToH+0x5aa>
    5e62:	80 e9       	ldi	r24, 0x90	; 144
    5e64:	91 e0       	ldi	r25, 0x01	; 1
    5e66:	9c af       	std	Y+60, r25	; 0x3c
    5e68:	8b af       	std	Y+59, r24	; 0x3b
    5e6a:	8b ad       	ldd	r24, Y+59	; 0x3b
    5e6c:	9c ad       	ldd	r25, Y+60	; 0x3c
    5e6e:	01 97       	sbiw	r24, 0x01	; 1
    5e70:	f1 f7       	brne	.-4      	; 0x5e6e <SevenSegment_FromAToH+0x598>
    5e72:	9c af       	std	Y+60, r25	; 0x3c
    5e74:	8b af       	std	Y+59, r24	; 0x3b
		while(__ticks)
		{
			// wait 1/10 ms
			_delay_loop_2(((F_CPU) / 4e3) / 10);
			__ticks --;
    5e76:	8d ad       	ldd	r24, Y+61	; 0x3d
    5e78:	9e ad       	ldd	r25, Y+62	; 0x3e
    5e7a:	01 97       	sbiw	r24, 0x01	; 1
    5e7c:	9e af       	std	Y+62, r25	; 0x3e
    5e7e:	8d af       	std	Y+61, r24	; 0x3d
		__ticks = 1;
	else if (__tmp > 65535)
	{
		//	__ticks = requested delay in 1/10 ms
		__ticks = (uint16_t) (__ms * 10.0);
		while(__ticks)
    5e80:	8d ad       	ldd	r24, Y+61	; 0x3d
    5e82:	9e ad       	ldd	r25, Y+62	; 0x3e
    5e84:	00 97       	sbiw	r24, 0x00	; 0
    5e86:	69 f7       	brne	.-38     	; 0x5e62 <SevenSegment_FromAToH+0x58c>
    5e88:	16 c0       	rjmp	.+44     	; 0x5eb6 <SevenSegment_FromAToH+0x5e0>
			__ticks --;
		}
		return;
	}
	else
		__ticks = (uint16_t)__tmp;
    5e8a:	fe 01       	movw	r30, r28
    5e8c:	ff 96       	adiw	r30, 0x3f	; 63
    5e8e:	60 81       	ld	r22, Z
    5e90:	71 81       	ldd	r23, Z+1	; 0x01
    5e92:	82 81       	ldd	r24, Z+2	; 0x02
    5e94:	93 81       	ldd	r25, Z+3	; 0x03
    5e96:	0e 94 49 00 	call	0x92	; 0x92 <__fixunssfsi>
    5e9a:	dc 01       	movw	r26, r24
    5e9c:	cb 01       	movw	r24, r22
    5e9e:	9e af       	std	Y+62, r25	; 0x3e
    5ea0:	8d af       	std	Y+61, r24	; 0x3d
    5ea2:	8d ad       	ldd	r24, Y+61	; 0x3d
    5ea4:	9e ad       	ldd	r25, Y+62	; 0x3e
    5ea6:	9a af       	std	Y+58, r25	; 0x3a
    5ea8:	89 af       	std	Y+57, r24	; 0x39
    5eaa:	89 ad       	ldd	r24, Y+57	; 0x39
    5eac:	9a ad       	ldd	r25, Y+58	; 0x3a
    5eae:	01 97       	sbiw	r24, 0x01	; 1
    5eb0:	f1 f7       	brne	.-4      	; 0x5eae <SevenSegment_FromAToH+0x5d8>
    5eb2:	9a af       	std	Y+58, r25	; 0x3a
    5eb4:	89 af       	std	Y+57, r24	; 0x39
		_delay_ms(50);
		SevenSegment_Display(Copy_u8PortId, 1, 0, 0, 1, 1, 1, 1); // E
    5eb6:	fe 01       	movw	r30, r28
    5eb8:	ef 58       	subi	r30, 0x8F	; 143
    5eba:	ff 4f       	sbci	r31, 0xFF	; 255
    5ebc:	80 81       	ld	r24, Z
    5ebe:	61 e0       	ldi	r22, 0x01	; 1
    5ec0:	40 e0       	ldi	r20, 0x00	; 0
    5ec2:	20 e0       	ldi	r18, 0x00	; 0
    5ec4:	01 e0       	ldi	r16, 0x01	; 1
    5ec6:	ee 24       	eor	r14, r14
    5ec8:	e3 94       	inc	r14
    5eca:	cc 24       	eor	r12, r12
    5ecc:	c3 94       	inc	r12
    5ece:	aa 24       	eor	r10, r10
    5ed0:	a3 94       	inc	r10
    5ed2:	0e 94 b7 23 	call	0x476e	; 0x476e <SevenSegment_Display>
    5ed6:	80 e0       	ldi	r24, 0x00	; 0
    5ed8:	90 e0       	ldi	r25, 0x00	; 0
    5eda:	a8 e4       	ldi	r26, 0x48	; 72
    5edc:	b2 e4       	ldi	r27, 0x42	; 66
    5ede:	8d ab       	std	Y+53, r24	; 0x35
    5ee0:	9e ab       	std	Y+54, r25	; 0x36
    5ee2:	af ab       	std	Y+55, r26	; 0x37
    5ee4:	b8 af       	std	Y+56, r27	; 0x38
 */
void
_delay_ms(double __ms)
{
	uint16_t __ticks;
	double __tmp = ((F_CPU) / 4e3) * __ms;
    5ee6:	6d a9       	ldd	r22, Y+53	; 0x35
    5ee8:	7e a9       	ldd	r23, Y+54	; 0x36
    5eea:	8f a9       	ldd	r24, Y+55	; 0x37
    5eec:	98 ad       	ldd	r25, Y+56	; 0x38
    5eee:	20 e0       	ldi	r18, 0x00	; 0
    5ef0:	30 e0       	ldi	r19, 0x00	; 0
    5ef2:	4a e7       	ldi	r20, 0x7A	; 122
    5ef4:	55 e4       	ldi	r21, 0x45	; 69
    5ef6:	0e 94 1f 02 	call	0x43e	; 0x43e <__mulsf3>
    5efa:	dc 01       	movw	r26, r24
    5efc:	cb 01       	movw	r24, r22
    5efe:	89 ab       	std	Y+49, r24	; 0x31
    5f00:	9a ab       	std	Y+50, r25	; 0x32
    5f02:	ab ab       	std	Y+51, r26	; 0x33
    5f04:	bc ab       	std	Y+52, r27	; 0x34
	if (__tmp < 1.0)
    5f06:	69 a9       	ldd	r22, Y+49	; 0x31
    5f08:	7a a9       	ldd	r23, Y+50	; 0x32
    5f0a:	8b a9       	ldd	r24, Y+51	; 0x33
    5f0c:	9c a9       	ldd	r25, Y+52	; 0x34
    5f0e:	20 e0       	ldi	r18, 0x00	; 0
    5f10:	30 e0       	ldi	r19, 0x00	; 0
    5f12:	40 e8       	ldi	r20, 0x80	; 128
    5f14:	5f e3       	ldi	r21, 0x3F	; 63
    5f16:	0e 94 79 03 	call	0x6f2	; 0x6f2 <__ltsf2>
    5f1a:	88 23       	and	r24, r24
    5f1c:	2c f4       	brge	.+10     	; 0x5f28 <SevenSegment_FromAToH+0x652>
		__ticks = 1;
    5f1e:	81 e0       	ldi	r24, 0x01	; 1
    5f20:	90 e0       	ldi	r25, 0x00	; 0
    5f22:	98 ab       	std	Y+48, r25	; 0x30
    5f24:	8f a7       	std	Y+47, r24	; 0x2f
    5f26:	3f c0       	rjmp	.+126    	; 0x5fa6 <SevenSegment_FromAToH+0x6d0>
	else if (__tmp > 65535)
    5f28:	69 a9       	ldd	r22, Y+49	; 0x31
    5f2a:	7a a9       	ldd	r23, Y+50	; 0x32
    5f2c:	8b a9       	ldd	r24, Y+51	; 0x33
    5f2e:	9c a9       	ldd	r25, Y+52	; 0x34
    5f30:	20 e0       	ldi	r18, 0x00	; 0
    5f32:	3f ef       	ldi	r19, 0xFF	; 255
    5f34:	4f e7       	ldi	r20, 0x7F	; 127
    5f36:	57 e4       	ldi	r21, 0x47	; 71
    5f38:	0e 94 19 03 	call	0x632	; 0x632 <__gtsf2>
    5f3c:	18 16       	cp	r1, r24
    5f3e:	4c f5       	brge	.+82     	; 0x5f92 <SevenSegment_FromAToH+0x6bc>
	{
		//	__ticks = requested delay in 1/10 ms
		__ticks = (uint16_t) (__ms * 10.0);
    5f40:	6d a9       	ldd	r22, Y+53	; 0x35
    5f42:	7e a9       	ldd	r23, Y+54	; 0x36
    5f44:	8f a9       	ldd	r24, Y+55	; 0x37
    5f46:	98 ad       	ldd	r25, Y+56	; 0x38
    5f48:	20 e0       	ldi	r18, 0x00	; 0
    5f4a:	30 e0       	ldi	r19, 0x00	; 0
    5f4c:	40 e2       	ldi	r20, 0x20	; 32
    5f4e:	51 e4       	ldi	r21, 0x41	; 65
    5f50:	0e 94 1f 02 	call	0x43e	; 0x43e <__mulsf3>
    5f54:	dc 01       	movw	r26, r24
    5f56:	cb 01       	movw	r24, r22
    5f58:	bc 01       	movw	r22, r24
    5f5a:	cd 01       	movw	r24, r26
    5f5c:	0e 94 49 00 	call	0x92	; 0x92 <__fixunssfsi>
    5f60:	dc 01       	movw	r26, r24
    5f62:	cb 01       	movw	r24, r22
    5f64:	98 ab       	std	Y+48, r25	; 0x30
    5f66:	8f a7       	std	Y+47, r24	; 0x2f
    5f68:	0f c0       	rjmp	.+30     	; 0x5f88 <SevenSegment_FromAToH+0x6b2>
    5f6a:	80 e9       	ldi	r24, 0x90	; 144
    5f6c:	91 e0       	ldi	r25, 0x01	; 1
    5f6e:	9e a7       	std	Y+46, r25	; 0x2e
    5f70:	8d a7       	std	Y+45, r24	; 0x2d
    5f72:	8d a5       	ldd	r24, Y+45	; 0x2d
    5f74:	9e a5       	ldd	r25, Y+46	; 0x2e
    5f76:	01 97       	sbiw	r24, 0x01	; 1
    5f78:	f1 f7       	brne	.-4      	; 0x5f76 <SevenSegment_FromAToH+0x6a0>
    5f7a:	9e a7       	std	Y+46, r25	; 0x2e
    5f7c:	8d a7       	std	Y+45, r24	; 0x2d
		while(__ticks)
		{
			// wait 1/10 ms
			_delay_loop_2(((F_CPU) / 4e3) / 10);
			__ticks --;
    5f7e:	8f a5       	ldd	r24, Y+47	; 0x2f
    5f80:	98 a9       	ldd	r25, Y+48	; 0x30
    5f82:	01 97       	sbiw	r24, 0x01	; 1
    5f84:	98 ab       	std	Y+48, r25	; 0x30
    5f86:	8f a7       	std	Y+47, r24	; 0x2f
		__ticks = 1;
	else if (__tmp > 65535)
	{
		//	__ticks = requested delay in 1/10 ms
		__ticks = (uint16_t) (__ms * 10.0);
		while(__ticks)
    5f88:	8f a5       	ldd	r24, Y+47	; 0x2f
    5f8a:	98 a9       	ldd	r25, Y+48	; 0x30
    5f8c:	00 97       	sbiw	r24, 0x00	; 0
    5f8e:	69 f7       	brne	.-38     	; 0x5f6a <SevenSegment_FromAToH+0x694>
    5f90:	14 c0       	rjmp	.+40     	; 0x5fba <SevenSegment_FromAToH+0x6e4>
			__ticks --;
		}
		return;
	}
	else
		__ticks = (uint16_t)__tmp;
    5f92:	69 a9       	ldd	r22, Y+49	; 0x31
    5f94:	7a a9       	ldd	r23, Y+50	; 0x32
    5f96:	8b a9       	ldd	r24, Y+51	; 0x33
    5f98:	9c a9       	ldd	r25, Y+52	; 0x34
    5f9a:	0e 94 49 00 	call	0x92	; 0x92 <__fixunssfsi>
    5f9e:	dc 01       	movw	r26, r24
    5fa0:	cb 01       	movw	r24, r22
    5fa2:	98 ab       	std	Y+48, r25	; 0x30
    5fa4:	8f a7       	std	Y+47, r24	; 0x2f
    5fa6:	8f a5       	ldd	r24, Y+47	; 0x2f
    5fa8:	98 a9       	ldd	r25, Y+48	; 0x30
    5faa:	9c a7       	std	Y+44, r25	; 0x2c
    5fac:	8b a7       	std	Y+43, r24	; 0x2b
    5fae:	8b a5       	ldd	r24, Y+43	; 0x2b
    5fb0:	9c a5       	ldd	r25, Y+44	; 0x2c
    5fb2:	01 97       	sbiw	r24, 0x01	; 1
    5fb4:	f1 f7       	brne	.-4      	; 0x5fb2 <SevenSegment_FromAToH+0x6dc>
    5fb6:	9c a7       	std	Y+44, r25	; 0x2c
    5fb8:	8b a7       	std	Y+43, r24	; 0x2b
		_delay_ms(50);
		SevenSegment_Display(Copy_u8PortId, 1, 0, 0, 0, 1, 1, 1); // F
    5fba:	fe 01       	movw	r30, r28
    5fbc:	ef 58       	subi	r30, 0x8F	; 143
    5fbe:	ff 4f       	sbci	r31, 0xFF	; 255
    5fc0:	80 81       	ld	r24, Z
    5fc2:	61 e0       	ldi	r22, 0x01	; 1
    5fc4:	40 e0       	ldi	r20, 0x00	; 0
    5fc6:	20 e0       	ldi	r18, 0x00	; 0
    5fc8:	00 e0       	ldi	r16, 0x00	; 0
    5fca:	ee 24       	eor	r14, r14
    5fcc:	e3 94       	inc	r14
    5fce:	cc 24       	eor	r12, r12
    5fd0:	c3 94       	inc	r12
    5fd2:	aa 24       	eor	r10, r10
    5fd4:	a3 94       	inc	r10
    5fd6:	0e 94 b7 23 	call	0x476e	; 0x476e <SevenSegment_Display>
    5fda:	80 e0       	ldi	r24, 0x00	; 0
    5fdc:	90 e0       	ldi	r25, 0x00	; 0
    5fde:	a8 e4       	ldi	r26, 0x48	; 72
    5fe0:	b2 e4       	ldi	r27, 0x42	; 66
    5fe2:	8f a3       	std	Y+39, r24	; 0x27
    5fe4:	98 a7       	std	Y+40, r25	; 0x28
    5fe6:	a9 a7       	std	Y+41, r26	; 0x29
    5fe8:	ba a7       	std	Y+42, r27	; 0x2a
 */
void
_delay_ms(double __ms)
{
	uint16_t __ticks;
	double __tmp = ((F_CPU) / 4e3) * __ms;
    5fea:	6f a1       	ldd	r22, Y+39	; 0x27
    5fec:	78 a5       	ldd	r23, Y+40	; 0x28
    5fee:	89 a5       	ldd	r24, Y+41	; 0x29
    5ff0:	9a a5       	ldd	r25, Y+42	; 0x2a
    5ff2:	20 e0       	ldi	r18, 0x00	; 0
    5ff4:	30 e0       	ldi	r19, 0x00	; 0
    5ff6:	4a e7       	ldi	r20, 0x7A	; 122
    5ff8:	55 e4       	ldi	r21, 0x45	; 69
    5ffa:	0e 94 1f 02 	call	0x43e	; 0x43e <__mulsf3>
    5ffe:	dc 01       	movw	r26, r24
    6000:	cb 01       	movw	r24, r22
    6002:	8b a3       	std	Y+35, r24	; 0x23
    6004:	9c a3       	std	Y+36, r25	; 0x24
    6006:	ad a3       	std	Y+37, r26	; 0x25
    6008:	be a3       	std	Y+38, r27	; 0x26
	if (__tmp < 1.0)
    600a:	6b a1       	ldd	r22, Y+35	; 0x23
    600c:	7c a1       	ldd	r23, Y+36	; 0x24
    600e:	8d a1       	ldd	r24, Y+37	; 0x25
    6010:	9e a1       	ldd	r25, Y+38	; 0x26
    6012:	20 e0       	ldi	r18, 0x00	; 0
    6014:	30 e0       	ldi	r19, 0x00	; 0
    6016:	40 e8       	ldi	r20, 0x80	; 128
    6018:	5f e3       	ldi	r21, 0x3F	; 63
    601a:	0e 94 79 03 	call	0x6f2	; 0x6f2 <__ltsf2>
    601e:	88 23       	and	r24, r24
    6020:	2c f4       	brge	.+10     	; 0x602c <SevenSegment_FromAToH+0x756>
		__ticks = 1;
    6022:	81 e0       	ldi	r24, 0x01	; 1
    6024:	90 e0       	ldi	r25, 0x00	; 0
    6026:	9a a3       	std	Y+34, r25	; 0x22
    6028:	89 a3       	std	Y+33, r24	; 0x21
    602a:	3f c0       	rjmp	.+126    	; 0x60aa <SevenSegment_FromAToH+0x7d4>
	else if (__tmp > 65535)
    602c:	6b a1       	ldd	r22, Y+35	; 0x23
    602e:	7c a1       	ldd	r23, Y+36	; 0x24
    6030:	8d a1       	ldd	r24, Y+37	; 0x25
    6032:	9e a1       	ldd	r25, Y+38	; 0x26
    6034:	20 e0       	ldi	r18, 0x00	; 0
    6036:	3f ef       	ldi	r19, 0xFF	; 255
    6038:	4f e7       	ldi	r20, 0x7F	; 127
    603a:	57 e4       	ldi	r21, 0x47	; 71
    603c:	0e 94 19 03 	call	0x632	; 0x632 <__gtsf2>
    6040:	18 16       	cp	r1, r24
    6042:	4c f5       	brge	.+82     	; 0x6096 <SevenSegment_FromAToH+0x7c0>
	{
		//	__ticks = requested delay in 1/10 ms
		__ticks = (uint16_t) (__ms * 10.0);
    6044:	6f a1       	ldd	r22, Y+39	; 0x27
    6046:	78 a5       	ldd	r23, Y+40	; 0x28
    6048:	89 a5       	ldd	r24, Y+41	; 0x29
    604a:	9a a5       	ldd	r25, Y+42	; 0x2a
    604c:	20 e0       	ldi	r18, 0x00	; 0
    604e:	30 e0       	ldi	r19, 0x00	; 0
    6050:	40 e2       	ldi	r20, 0x20	; 32
    6052:	51 e4       	ldi	r21, 0x41	; 65
    6054:	0e 94 1f 02 	call	0x43e	; 0x43e <__mulsf3>
    6058:	dc 01       	movw	r26, r24
    605a:	cb 01       	movw	r24, r22
    605c:	bc 01       	movw	r22, r24
    605e:	cd 01       	movw	r24, r26
    6060:	0e 94 49 00 	call	0x92	; 0x92 <__fixunssfsi>
    6064:	dc 01       	movw	r26, r24
    6066:	cb 01       	movw	r24, r22
    6068:	9a a3       	std	Y+34, r25	; 0x22
    606a:	89 a3       	std	Y+33, r24	; 0x21
    606c:	0f c0       	rjmp	.+30     	; 0x608c <SevenSegment_FromAToH+0x7b6>
    606e:	80 e9       	ldi	r24, 0x90	; 144
    6070:	91 e0       	ldi	r25, 0x01	; 1
    6072:	98 a3       	std	Y+32, r25	; 0x20
    6074:	8f 8f       	std	Y+31, r24	; 0x1f
    6076:	8f 8d       	ldd	r24, Y+31	; 0x1f
    6078:	98 a1       	ldd	r25, Y+32	; 0x20
    607a:	01 97       	sbiw	r24, 0x01	; 1
    607c:	f1 f7       	brne	.-4      	; 0x607a <SevenSegment_FromAToH+0x7a4>
    607e:	98 a3       	std	Y+32, r25	; 0x20
    6080:	8f 8f       	std	Y+31, r24	; 0x1f
		while(__ticks)
		{
			// wait 1/10 ms
			_delay_loop_2(((F_CPU) / 4e3) / 10);
			__ticks --;
    6082:	89 a1       	ldd	r24, Y+33	; 0x21
    6084:	9a a1       	ldd	r25, Y+34	; 0x22
    6086:	01 97       	sbiw	r24, 0x01	; 1
    6088:	9a a3       	std	Y+34, r25	; 0x22
    608a:	89 a3       	std	Y+33, r24	; 0x21
		__ticks = 1;
	else if (__tmp > 65535)
	{
		//	__ticks = requested delay in 1/10 ms
		__ticks = (uint16_t) (__ms * 10.0);
		while(__ticks)
    608c:	89 a1       	ldd	r24, Y+33	; 0x21
    608e:	9a a1       	ldd	r25, Y+34	; 0x22
    6090:	00 97       	sbiw	r24, 0x00	; 0
    6092:	69 f7       	brne	.-38     	; 0x606e <SevenSegment_FromAToH+0x798>
    6094:	14 c0       	rjmp	.+40     	; 0x60be <SevenSegment_FromAToH+0x7e8>
			__ticks --;
		}
		return;
	}
	else
		__ticks = (uint16_t)__tmp;
    6096:	6b a1       	ldd	r22, Y+35	; 0x23
    6098:	7c a1       	ldd	r23, Y+36	; 0x24
    609a:	8d a1       	ldd	r24, Y+37	; 0x25
    609c:	9e a1       	ldd	r25, Y+38	; 0x26
    609e:	0e 94 49 00 	call	0x92	; 0x92 <__fixunssfsi>
    60a2:	dc 01       	movw	r26, r24
    60a4:	cb 01       	movw	r24, r22
    60a6:	9a a3       	std	Y+34, r25	; 0x22
    60a8:	89 a3       	std	Y+33, r24	; 0x21
    60aa:	89 a1       	ldd	r24, Y+33	; 0x21
    60ac:	9a a1       	ldd	r25, Y+34	; 0x22
    60ae:	9e 8f       	std	Y+30, r25	; 0x1e
    60b0:	8d 8f       	std	Y+29, r24	; 0x1d
    60b2:	8d 8d       	ldd	r24, Y+29	; 0x1d
    60b4:	9e 8d       	ldd	r25, Y+30	; 0x1e
    60b6:	01 97       	sbiw	r24, 0x01	; 1
    60b8:	f1 f7       	brne	.-4      	; 0x60b6 <SevenSegment_FromAToH+0x7e0>
    60ba:	9e 8f       	std	Y+30, r25	; 0x1e
    60bc:	8d 8f       	std	Y+29, r24	; 0x1d
		_delay_ms(50);
		SevenSegment_Display(Copy_u8PortId, 1, 0, 1, 1, 1, 1, 0); // G
    60be:	fe 01       	movw	r30, r28
    60c0:	ef 58       	subi	r30, 0x8F	; 143
    60c2:	ff 4f       	sbci	r31, 0xFF	; 255
    60c4:	80 81       	ld	r24, Z
    60c6:	61 e0       	ldi	r22, 0x01	; 1
    60c8:	40 e0       	ldi	r20, 0x00	; 0
    60ca:	21 e0       	ldi	r18, 0x01	; 1
    60cc:	01 e0       	ldi	r16, 0x01	; 1
    60ce:	ee 24       	eor	r14, r14
    60d0:	e3 94       	inc	r14
    60d2:	cc 24       	eor	r12, r12
    60d4:	c3 94       	inc	r12
    60d6:	aa 24       	eor	r10, r10
    60d8:	0e 94 b7 23 	call	0x476e	; 0x476e <SevenSegment_Display>
    60dc:	80 e0       	ldi	r24, 0x00	; 0
    60de:	90 e0       	ldi	r25, 0x00	; 0
    60e0:	a8 e4       	ldi	r26, 0x48	; 72
    60e2:	b2 e4       	ldi	r27, 0x42	; 66
    60e4:	89 8f       	std	Y+25, r24	; 0x19
    60e6:	9a 8f       	std	Y+26, r25	; 0x1a
    60e8:	ab 8f       	std	Y+27, r26	; 0x1b
    60ea:	bc 8f       	std	Y+28, r27	; 0x1c
 */
void
_delay_ms(double __ms)
{
	uint16_t __ticks;
	double __tmp = ((F_CPU) / 4e3) * __ms;
    60ec:	69 8d       	ldd	r22, Y+25	; 0x19
    60ee:	7a 8d       	ldd	r23, Y+26	; 0x1a
    60f0:	8b 8d       	ldd	r24, Y+27	; 0x1b
    60f2:	9c 8d       	ldd	r25, Y+28	; 0x1c
    60f4:	20 e0       	ldi	r18, 0x00	; 0
    60f6:	30 e0       	ldi	r19, 0x00	; 0
    60f8:	4a e7       	ldi	r20, 0x7A	; 122
    60fa:	55 e4       	ldi	r21, 0x45	; 69
    60fc:	0e 94 1f 02 	call	0x43e	; 0x43e <__mulsf3>
    6100:	dc 01       	movw	r26, r24
    6102:	cb 01       	movw	r24, r22
    6104:	8d 8b       	std	Y+21, r24	; 0x15
    6106:	9e 8b       	std	Y+22, r25	; 0x16
    6108:	af 8b       	std	Y+23, r26	; 0x17
    610a:	b8 8f       	std	Y+24, r27	; 0x18
	if (__tmp < 1.0)
    610c:	6d 89       	ldd	r22, Y+21	; 0x15
    610e:	7e 89       	ldd	r23, Y+22	; 0x16
    6110:	8f 89       	ldd	r24, Y+23	; 0x17
    6112:	98 8d       	ldd	r25, Y+24	; 0x18
    6114:	20 e0       	ldi	r18, 0x00	; 0
    6116:	30 e0       	ldi	r19, 0x00	; 0
    6118:	40 e8       	ldi	r20, 0x80	; 128
    611a:	5f e3       	ldi	r21, 0x3F	; 63
    611c:	0e 94 79 03 	call	0x6f2	; 0x6f2 <__ltsf2>
    6120:	88 23       	and	r24, r24
    6122:	2c f4       	brge	.+10     	; 0x612e <SevenSegment_FromAToH+0x858>
		__ticks = 1;
    6124:	81 e0       	ldi	r24, 0x01	; 1
    6126:	90 e0       	ldi	r25, 0x00	; 0
    6128:	9c 8b       	std	Y+20, r25	; 0x14
    612a:	8b 8b       	std	Y+19, r24	; 0x13
    612c:	3f c0       	rjmp	.+126    	; 0x61ac <SevenSegment_FromAToH+0x8d6>
	else if (__tmp > 65535)
    612e:	6d 89       	ldd	r22, Y+21	; 0x15
    6130:	7e 89       	ldd	r23, Y+22	; 0x16
    6132:	8f 89       	ldd	r24, Y+23	; 0x17
    6134:	98 8d       	ldd	r25, Y+24	; 0x18
    6136:	20 e0       	ldi	r18, 0x00	; 0
    6138:	3f ef       	ldi	r19, 0xFF	; 255
    613a:	4f e7       	ldi	r20, 0x7F	; 127
    613c:	57 e4       	ldi	r21, 0x47	; 71
    613e:	0e 94 19 03 	call	0x632	; 0x632 <__gtsf2>
    6142:	18 16       	cp	r1, r24
    6144:	4c f5       	brge	.+82     	; 0x6198 <SevenSegment_FromAToH+0x8c2>
	{
		//	__ticks = requested delay in 1/10 ms
		__ticks = (uint16_t) (__ms * 10.0);
    6146:	69 8d       	ldd	r22, Y+25	; 0x19
    6148:	7a 8d       	ldd	r23, Y+26	; 0x1a
    614a:	8b 8d       	ldd	r24, Y+27	; 0x1b
    614c:	9c 8d       	ldd	r25, Y+28	; 0x1c
    614e:	20 e0       	ldi	r18, 0x00	; 0
    6150:	30 e0       	ldi	r19, 0x00	; 0
    6152:	40 e2       	ldi	r20, 0x20	; 32
    6154:	51 e4       	ldi	r21, 0x41	; 65
    6156:	0e 94 1f 02 	call	0x43e	; 0x43e <__mulsf3>
    615a:	dc 01       	movw	r26, r24
    615c:	cb 01       	movw	r24, r22
    615e:	bc 01       	movw	r22, r24
    6160:	cd 01       	movw	r24, r26
    6162:	0e 94 49 00 	call	0x92	; 0x92 <__fixunssfsi>
    6166:	dc 01       	movw	r26, r24
    6168:	cb 01       	movw	r24, r22
    616a:	9c 8b       	std	Y+20, r25	; 0x14
    616c:	8b 8b       	std	Y+19, r24	; 0x13
    616e:	0f c0       	rjmp	.+30     	; 0x618e <SevenSegment_FromAToH+0x8b8>
    6170:	80 e9       	ldi	r24, 0x90	; 144
    6172:	91 e0       	ldi	r25, 0x01	; 1
    6174:	9a 8b       	std	Y+18, r25	; 0x12
    6176:	89 8b       	std	Y+17, r24	; 0x11
    6178:	89 89       	ldd	r24, Y+17	; 0x11
    617a:	9a 89       	ldd	r25, Y+18	; 0x12
    617c:	01 97       	sbiw	r24, 0x01	; 1
    617e:	f1 f7       	brne	.-4      	; 0x617c <SevenSegment_FromAToH+0x8a6>
    6180:	9a 8b       	std	Y+18, r25	; 0x12
    6182:	89 8b       	std	Y+17, r24	; 0x11
		while(__ticks)
		{
			// wait 1/10 ms
			_delay_loop_2(((F_CPU) / 4e3) / 10);
			__ticks --;
    6184:	8b 89       	ldd	r24, Y+19	; 0x13
    6186:	9c 89       	ldd	r25, Y+20	; 0x14
    6188:	01 97       	sbiw	r24, 0x01	; 1
    618a:	9c 8b       	std	Y+20, r25	; 0x14
    618c:	8b 8b       	std	Y+19, r24	; 0x13
		__ticks = 1;
	else if (__tmp > 65535)
	{
		//	__ticks = requested delay in 1/10 ms
		__ticks = (uint16_t) (__ms * 10.0);
		while(__ticks)
    618e:	8b 89       	ldd	r24, Y+19	; 0x13
    6190:	9c 89       	ldd	r25, Y+20	; 0x14
    6192:	00 97       	sbiw	r24, 0x00	; 0
    6194:	69 f7       	brne	.-38     	; 0x6170 <SevenSegment_FromAToH+0x89a>
    6196:	14 c0       	rjmp	.+40     	; 0x61c0 <SevenSegment_FromAToH+0x8ea>
			__ticks --;
		}
		return;
	}
	else
		__ticks = (uint16_t)__tmp;
    6198:	6d 89       	ldd	r22, Y+21	; 0x15
    619a:	7e 89       	ldd	r23, Y+22	; 0x16
    619c:	8f 89       	ldd	r24, Y+23	; 0x17
    619e:	98 8d       	ldd	r25, Y+24	; 0x18
    61a0:	0e 94 49 00 	call	0x92	; 0x92 <__fixunssfsi>
    61a4:	dc 01       	movw	r26, r24
    61a6:	cb 01       	movw	r24, r22
    61a8:	9c 8b       	std	Y+20, r25	; 0x14
    61aa:	8b 8b       	std	Y+19, r24	; 0x13
    61ac:	8b 89       	ldd	r24, Y+19	; 0x13
    61ae:	9c 89       	ldd	r25, Y+20	; 0x14
    61b0:	98 8b       	std	Y+16, r25	; 0x10
    61b2:	8f 87       	std	Y+15, r24	; 0x0f
    61b4:	8f 85       	ldd	r24, Y+15	; 0x0f
    61b6:	98 89       	ldd	r25, Y+16	; 0x10
    61b8:	01 97       	sbiw	r24, 0x01	; 1
    61ba:	f1 f7       	brne	.-4      	; 0x61b8 <SevenSegment_FromAToH+0x8e2>
    61bc:	98 8b       	std	Y+16, r25	; 0x10
    61be:	8f 87       	std	Y+15, r24	; 0x0f
		_delay_ms(50);
		SevenSegment_Display(Copy_u8PortId, 0, 1, 1, 0, 1, 1, 1); // H
    61c0:	fe 01       	movw	r30, r28
    61c2:	ef 58       	subi	r30, 0x8F	; 143
    61c4:	ff 4f       	sbci	r31, 0xFF	; 255
    61c6:	80 81       	ld	r24, Z
    61c8:	60 e0       	ldi	r22, 0x00	; 0
    61ca:	41 e0       	ldi	r20, 0x01	; 1
    61cc:	21 e0       	ldi	r18, 0x01	; 1
    61ce:	00 e0       	ldi	r16, 0x00	; 0
    61d0:	ee 24       	eor	r14, r14
    61d2:	e3 94       	inc	r14
    61d4:	cc 24       	eor	r12, r12
    61d6:	c3 94       	inc	r12
    61d8:	aa 24       	eor	r10, r10
    61da:	a3 94       	inc	r10
    61dc:	0e 94 b7 23 	call	0x476e	; 0x476e <SevenSegment_Display>
    61e0:	80 e0       	ldi	r24, 0x00	; 0
    61e2:	90 e0       	ldi	r25, 0x00	; 0
    61e4:	a8 e4       	ldi	r26, 0x48	; 72
    61e6:	b2 e4       	ldi	r27, 0x42	; 66
    61e8:	8b 87       	std	Y+11, r24	; 0x0b
    61ea:	9c 87       	std	Y+12, r25	; 0x0c
    61ec:	ad 87       	std	Y+13, r26	; 0x0d
    61ee:	be 87       	std	Y+14, r27	; 0x0e
 */
void
_delay_ms(double __ms)
{
	uint16_t __ticks;
	double __tmp = ((F_CPU) / 4e3) * __ms;
    61f0:	6b 85       	ldd	r22, Y+11	; 0x0b
    61f2:	7c 85       	ldd	r23, Y+12	; 0x0c
    61f4:	8d 85       	ldd	r24, Y+13	; 0x0d
    61f6:	9e 85       	ldd	r25, Y+14	; 0x0e
    61f8:	20 e0       	ldi	r18, 0x00	; 0
    61fa:	30 e0       	ldi	r19, 0x00	; 0
    61fc:	4a e7       	ldi	r20, 0x7A	; 122
    61fe:	55 e4       	ldi	r21, 0x45	; 69
    6200:	0e 94 1f 02 	call	0x43e	; 0x43e <__mulsf3>
    6204:	dc 01       	movw	r26, r24
    6206:	cb 01       	movw	r24, r22
    6208:	8f 83       	std	Y+7, r24	; 0x07
    620a:	98 87       	std	Y+8, r25	; 0x08
    620c:	a9 87       	std	Y+9, r26	; 0x09
    620e:	ba 87       	std	Y+10, r27	; 0x0a
	if (__tmp < 1.0)
    6210:	6f 81       	ldd	r22, Y+7	; 0x07
    6212:	78 85       	ldd	r23, Y+8	; 0x08
    6214:	89 85       	ldd	r24, Y+9	; 0x09
    6216:	9a 85       	ldd	r25, Y+10	; 0x0a
    6218:	20 e0       	ldi	r18, 0x00	; 0
    621a:	30 e0       	ldi	r19, 0x00	; 0
    621c:	40 e8       	ldi	r20, 0x80	; 128
    621e:	5f e3       	ldi	r21, 0x3F	; 63
    6220:	0e 94 79 03 	call	0x6f2	; 0x6f2 <__ltsf2>
    6224:	88 23       	and	r24, r24
    6226:	2c f4       	brge	.+10     	; 0x6232 <SevenSegment_FromAToH+0x95c>
		__ticks = 1;
    6228:	81 e0       	ldi	r24, 0x01	; 1
    622a:	90 e0       	ldi	r25, 0x00	; 0
    622c:	9e 83       	std	Y+6, r25	; 0x06
    622e:	8d 83       	std	Y+5, r24	; 0x05
    6230:	3f c0       	rjmp	.+126    	; 0x62b0 <SevenSegment_FromAToH+0x9da>
	else if (__tmp > 65535)
    6232:	6f 81       	ldd	r22, Y+7	; 0x07
    6234:	78 85       	ldd	r23, Y+8	; 0x08
    6236:	89 85       	ldd	r24, Y+9	; 0x09
    6238:	9a 85       	ldd	r25, Y+10	; 0x0a
    623a:	20 e0       	ldi	r18, 0x00	; 0
    623c:	3f ef       	ldi	r19, 0xFF	; 255
    623e:	4f e7       	ldi	r20, 0x7F	; 127
    6240:	57 e4       	ldi	r21, 0x47	; 71
    6242:	0e 94 19 03 	call	0x632	; 0x632 <__gtsf2>
    6246:	18 16       	cp	r1, r24
    6248:	4c f5       	brge	.+82     	; 0x629c <SevenSegment_FromAToH+0x9c6>
	{
		//	__ticks = requested delay in 1/10 ms
		__ticks = (uint16_t) (__ms * 10.0);
    624a:	6b 85       	ldd	r22, Y+11	; 0x0b
    624c:	7c 85       	ldd	r23, Y+12	; 0x0c
    624e:	8d 85       	ldd	r24, Y+13	; 0x0d
    6250:	9e 85       	ldd	r25, Y+14	; 0x0e
    6252:	20 e0       	ldi	r18, 0x00	; 0
    6254:	30 e0       	ldi	r19, 0x00	; 0
    6256:	40 e2       	ldi	r20, 0x20	; 32
    6258:	51 e4       	ldi	r21, 0x41	; 65
    625a:	0e 94 1f 02 	call	0x43e	; 0x43e <__mulsf3>
    625e:	dc 01       	movw	r26, r24
    6260:	cb 01       	movw	r24, r22
    6262:	bc 01       	movw	r22, r24
    6264:	cd 01       	movw	r24, r26
    6266:	0e 94 49 00 	call	0x92	; 0x92 <__fixunssfsi>
    626a:	dc 01       	movw	r26, r24
    626c:	cb 01       	movw	r24, r22
    626e:	9e 83       	std	Y+6, r25	; 0x06
    6270:	8d 83       	std	Y+5, r24	; 0x05
    6272:	0f c0       	rjmp	.+30     	; 0x6292 <SevenSegment_FromAToH+0x9bc>
    6274:	80 e9       	ldi	r24, 0x90	; 144
    6276:	91 e0       	ldi	r25, 0x01	; 1
    6278:	9c 83       	std	Y+4, r25	; 0x04
    627a:	8b 83       	std	Y+3, r24	; 0x03
    627c:	8b 81       	ldd	r24, Y+3	; 0x03
    627e:	9c 81       	ldd	r25, Y+4	; 0x04
    6280:	01 97       	sbiw	r24, 0x01	; 1
    6282:	f1 f7       	brne	.-4      	; 0x6280 <SevenSegment_FromAToH+0x9aa>
    6284:	9c 83       	std	Y+4, r25	; 0x04
    6286:	8b 83       	std	Y+3, r24	; 0x03
		while(__ticks)
		{
			// wait 1/10 ms
			_delay_loop_2(((F_CPU) / 4e3) / 10);
			__ticks --;
    6288:	8d 81       	ldd	r24, Y+5	; 0x05
    628a:	9e 81       	ldd	r25, Y+6	; 0x06
    628c:	01 97       	sbiw	r24, 0x01	; 1
    628e:	9e 83       	std	Y+6, r25	; 0x06
    6290:	8d 83       	std	Y+5, r24	; 0x05
		__ticks = 1;
	else if (__tmp > 65535)
	{
		//	__ticks = requested delay in 1/10 ms
		__ticks = (uint16_t) (__ms * 10.0);
		while(__ticks)
    6292:	8d 81       	ldd	r24, Y+5	; 0x05
    6294:	9e 81       	ldd	r25, Y+6	; 0x06
    6296:	00 97       	sbiw	r24, 0x00	; 0
    6298:	69 f7       	brne	.-38     	; 0x6274 <SevenSegment_FromAToH+0x99e>
    629a:	31 cb       	rjmp	.-2462   	; 0x58fe <SevenSegment_FromAToH+0x28>
			__ticks --;
		}
		return;
	}
	else
		__ticks = (uint16_t)__tmp;
    629c:	6f 81       	ldd	r22, Y+7	; 0x07
    629e:	78 85       	ldd	r23, Y+8	; 0x08
    62a0:	89 85       	ldd	r24, Y+9	; 0x09
    62a2:	9a 85       	ldd	r25, Y+10	; 0x0a
    62a4:	0e 94 49 00 	call	0x92	; 0x92 <__fixunssfsi>
    62a8:	dc 01       	movw	r26, r24
    62aa:	cb 01       	movw	r24, r22
    62ac:	9e 83       	std	Y+6, r25	; 0x06
    62ae:	8d 83       	std	Y+5, r24	; 0x05
    62b0:	8d 81       	ldd	r24, Y+5	; 0x05
    62b2:	9e 81       	ldd	r25, Y+6	; 0x06
    62b4:	9a 83       	std	Y+2, r25	; 0x02
    62b6:	89 83       	std	Y+1, r24	; 0x01
    62b8:	89 81       	ldd	r24, Y+1	; 0x01
    62ba:	9a 81       	ldd	r25, Y+2	; 0x02
    62bc:	01 97       	sbiw	r24, 0x01	; 1
    62be:	f1 f7       	brne	.-4      	; 0x62bc <SevenSegment_FromAToH+0x9e6>
    62c0:	9a 83       	std	Y+2, r25	; 0x02
    62c2:	89 83       	std	Y+1, r24	; 0x01
    62c4:	1c cb       	rjmp	.-2504   	; 0x58fe <SevenSegment_FromAToH+0x28>

000062c6 <main>:
#include "APP_Includes.h"

/* Master Code */

int main(void){
    62c6:	df 93       	push	r29
    62c8:	cf 93       	push	r28
    62ca:	0f 92       	push	r0
    62cc:	cd b7       	in	r28, 0x3d	; 61
    62ce:	de b7       	in	r29, 0x3e	; 62
	u8 data;
	DIO_voidInit();
    62d0:	0e 94 55 11 	call	0x22aa	; 0x22aa <DIO_voidInit>
	SPI_voidInit();
    62d4:	0e 94 d5 0a 	call	0x15aa	; 0x15aa <SPI_voidInit>
	
	while(1){
		SPI_u8SendResieve(5, &data);
    62d8:	85 e0       	ldi	r24, 0x05	; 5
    62da:	9e 01       	movw	r18, r28
    62dc:	2f 5f       	subi	r18, 0xFF	; 255
    62de:	3f 4f       	sbci	r19, 0xFF	; 255
    62e0:	b9 01       	movw	r22, r18
    62e2:	0e 94 2d 0b 	call	0x165a	; 0x165a <SPI_u8SendResieve>
		if(10 == data){
    62e6:	89 81       	ldd	r24, Y+1	; 0x01
    62e8:	8a 30       	cpi	r24, 0x0A	; 10
    62ea:	b1 f7       	brne	.-20     	; 0x62d8 <main+0x12>
			DIO_u8SetPinValue(2, 0, 1);
    62ec:	82 e0       	ldi	r24, 0x02	; 2
    62ee:	60 e0       	ldi	r22, 0x00	; 0
    62f0:	41 e0       	ldi	r20, 0x01	; 1
    62f2:	0e 94 a2 12 	call	0x2544	; 0x2544 <DIO_u8SetPinValue>
    62f6:	f0 cf       	rjmp	.-32     	; 0x62d8 <main+0x12>

000062f8 <__divmodhi4>:
    62f8:	97 fb       	bst	r25, 7
    62fa:	09 2e       	mov	r0, r25
    62fc:	07 26       	eor	r0, r23
    62fe:	0a d0       	rcall	.+20     	; 0x6314 <__divmodhi4_neg1>
    6300:	77 fd       	sbrc	r23, 7
    6302:	04 d0       	rcall	.+8      	; 0x630c <__divmodhi4_neg2>
    6304:	2e d0       	rcall	.+92     	; 0x6362 <__udivmodhi4>
    6306:	06 d0       	rcall	.+12     	; 0x6314 <__divmodhi4_neg1>
    6308:	00 20       	and	r0, r0
    630a:	1a f4       	brpl	.+6      	; 0x6312 <__divmodhi4_exit>

0000630c <__divmodhi4_neg2>:
    630c:	70 95       	com	r23
    630e:	61 95       	neg	r22
    6310:	7f 4f       	sbci	r23, 0xFF	; 255

00006312 <__divmodhi4_exit>:
    6312:	08 95       	ret

00006314 <__divmodhi4_neg1>:
    6314:	f6 f7       	brtc	.-4      	; 0x6312 <__divmodhi4_exit>
    6316:	90 95       	com	r25
    6318:	81 95       	neg	r24
    631a:	9f 4f       	sbci	r25, 0xFF	; 255
    631c:	08 95       	ret

0000631e <__udivmodsi4>:
    631e:	a1 e2       	ldi	r26, 0x21	; 33
    6320:	1a 2e       	mov	r1, r26
    6322:	aa 1b       	sub	r26, r26
    6324:	bb 1b       	sub	r27, r27
    6326:	fd 01       	movw	r30, r26
    6328:	0d c0       	rjmp	.+26     	; 0x6344 <__udivmodsi4_ep>

0000632a <__udivmodsi4_loop>:
    632a:	aa 1f       	adc	r26, r26
    632c:	bb 1f       	adc	r27, r27
    632e:	ee 1f       	adc	r30, r30
    6330:	ff 1f       	adc	r31, r31
    6332:	a2 17       	cp	r26, r18
    6334:	b3 07       	cpc	r27, r19
    6336:	e4 07       	cpc	r30, r20
    6338:	f5 07       	cpc	r31, r21
    633a:	20 f0       	brcs	.+8      	; 0x6344 <__udivmodsi4_ep>
    633c:	a2 1b       	sub	r26, r18
    633e:	b3 0b       	sbc	r27, r19
    6340:	e4 0b       	sbc	r30, r20
    6342:	f5 0b       	sbc	r31, r21

00006344 <__udivmodsi4_ep>:
    6344:	66 1f       	adc	r22, r22
    6346:	77 1f       	adc	r23, r23
    6348:	88 1f       	adc	r24, r24
    634a:	99 1f       	adc	r25, r25
    634c:	1a 94       	dec	r1
    634e:	69 f7       	brne	.-38     	; 0x632a <__udivmodsi4_loop>
    6350:	60 95       	com	r22
    6352:	70 95       	com	r23
    6354:	80 95       	com	r24
    6356:	90 95       	com	r25
    6358:	9b 01       	movw	r18, r22
    635a:	ac 01       	movw	r20, r24
    635c:	bd 01       	movw	r22, r26
    635e:	cf 01       	movw	r24, r30
    6360:	08 95       	ret

00006362 <__udivmodhi4>:
    6362:	aa 1b       	sub	r26, r26
    6364:	bb 1b       	sub	r27, r27
    6366:	51 e1       	ldi	r21, 0x11	; 17
    6368:	07 c0       	rjmp	.+14     	; 0x6378 <__udivmodhi4_ep>

0000636a <__udivmodhi4_loop>:
    636a:	aa 1f       	adc	r26, r26
    636c:	bb 1f       	adc	r27, r27
    636e:	a6 17       	cp	r26, r22
    6370:	b7 07       	cpc	r27, r23
    6372:	10 f0       	brcs	.+4      	; 0x6378 <__udivmodhi4_ep>
    6374:	a6 1b       	sub	r26, r22
    6376:	b7 0b       	sbc	r27, r23

00006378 <__udivmodhi4_ep>:
    6378:	88 1f       	adc	r24, r24
    637a:	99 1f       	adc	r25, r25
    637c:	5a 95       	dec	r21
    637e:	a9 f7       	brne	.-22     	; 0x636a <__udivmodhi4_loop>
    6380:	80 95       	com	r24
    6382:	90 95       	com	r25
    6384:	bc 01       	movw	r22, r24
    6386:	cd 01       	movw	r24, r26
    6388:	08 95       	ret

0000638a <__prologue_saves__>:
    638a:	2f 92       	push	r2
    638c:	3f 92       	push	r3
    638e:	4f 92       	push	r4
    6390:	5f 92       	push	r5
    6392:	6f 92       	push	r6
    6394:	7f 92       	push	r7
    6396:	8f 92       	push	r8
    6398:	9f 92       	push	r9
    639a:	af 92       	push	r10
    639c:	bf 92       	push	r11
    639e:	cf 92       	push	r12
    63a0:	df 92       	push	r13
    63a2:	ef 92       	push	r14
    63a4:	ff 92       	push	r15
    63a6:	0f 93       	push	r16
    63a8:	1f 93       	push	r17
    63aa:	cf 93       	push	r28
    63ac:	df 93       	push	r29
    63ae:	cd b7       	in	r28, 0x3d	; 61
    63b0:	de b7       	in	r29, 0x3e	; 62
    63b2:	ca 1b       	sub	r28, r26
    63b4:	db 0b       	sbc	r29, r27
    63b6:	0f b6       	in	r0, 0x3f	; 63
    63b8:	f8 94       	cli
    63ba:	de bf       	out	0x3e, r29	; 62
    63bc:	0f be       	out	0x3f, r0	; 63
    63be:	cd bf       	out	0x3d, r28	; 61
    63c0:	09 94       	ijmp

000063c2 <__epilogue_restores__>:
    63c2:	2a 88       	ldd	r2, Y+18	; 0x12
    63c4:	39 88       	ldd	r3, Y+17	; 0x11
    63c6:	48 88       	ldd	r4, Y+16	; 0x10
    63c8:	5f 84       	ldd	r5, Y+15	; 0x0f
    63ca:	6e 84       	ldd	r6, Y+14	; 0x0e
    63cc:	7d 84       	ldd	r7, Y+13	; 0x0d
    63ce:	8c 84       	ldd	r8, Y+12	; 0x0c
    63d0:	9b 84       	ldd	r9, Y+11	; 0x0b
    63d2:	aa 84       	ldd	r10, Y+10	; 0x0a
    63d4:	b9 84       	ldd	r11, Y+9	; 0x09
    63d6:	c8 84       	ldd	r12, Y+8	; 0x08
    63d8:	df 80       	ldd	r13, Y+7	; 0x07
    63da:	ee 80       	ldd	r14, Y+6	; 0x06
    63dc:	fd 80       	ldd	r15, Y+5	; 0x05
    63de:	0c 81       	ldd	r16, Y+4	; 0x04
    63e0:	1b 81       	ldd	r17, Y+3	; 0x03
    63e2:	aa 81       	ldd	r26, Y+2	; 0x02
    63e4:	b9 81       	ldd	r27, Y+1	; 0x01
    63e6:	ce 0f       	add	r28, r30
    63e8:	d1 1d       	adc	r29, r1
    63ea:	0f b6       	in	r0, 0x3f	; 63
    63ec:	f8 94       	cli
    63ee:	de bf       	out	0x3e, r29	; 62
    63f0:	0f be       	out	0x3f, r0	; 63
    63f2:	cd bf       	out	0x3d, r28	; 61
    63f4:	ed 01       	movw	r28, r26
    63f6:	08 95       	ret

000063f8 <_exit>:
    63f8:	f8 94       	cli

000063fa <__stop_program>:
    63fa:	ff cf       	rjmp	.-2      	; 0x63fa <__stop_program>
